	.text
	.file	"avx_complex_vec_align_load.c"
	.file	0 "/home/mrahman/AVX_MVM_Complex/example_AVX_Vec" "avx_complex_vec_align_load.c" md5 0xfac792a3dc112de9eb6abf65dde9971d
	.file	1 "/usr/include/bits" "sched.h" md5 0x011fbc95a8077d6469ccb4d6c57438d3
	.file	2 "/home/mrahman" "spack/opt/spack/linux-centos7-broadwell/gcc-12.1.0/llvm-14.0.2-xwkcxsjzhnflxkjmsaypm5szea4ab3qs/lib/clang/14.0.1/include/avxintrin.h" md5 0x6fc4b4933de8dca02ac56d49379e05d0
	.file	3 "/home/mrahman" "spack/opt/spack/linux-centos7-broadwell/gcc-12.1.0/llvm-14.0.2-xwkcxsjzhnflxkjmsaypm5szea4ab3qs/lib/clang/14.0.1/include/emmintrin.h" md5 0x3b885b350ea7fd76ea9c80227854a50a
	.section	.rodata.cst8,"aM",@progbits,8
	.p2align	3                               # -- Begin function main
.LCPI0_0:
	.quad	0x412e848000000000              # double 1.0E+6
.LCPI0_1:
	.quad	0x3eb0c6f7a0b5ed8d              # double 9.9999999999999995E-7
.LCPI0_3:
	.quad	0x3cd203af9ee75616              # double 1.0000000000000001E-15
	.section	.rodata.cst16,"aM",@progbits,16
	.p2align	4
.LCPI0_2:
	.quad	0x7fffffffffffffff              # double NaN
	.quad	0x7fffffffffffffff              # double NaN
	.text
	.globl	main
	.p2align	4, 0x90
	.type	main,@function
main:                                   # @main
.Lfunc_begin0:
	.loc	0 99 0                          # avx_complex_vec_align_load.c:99:0
	.cfi_startproc
# %bb.0:
	pushq	%rbp
	.cfi_def_cfa_offset 16
	.cfi_offset %rbp, -16
	movq	%rsp, %rbp
	.cfi_def_cfa_register %rbp
.Ltmp0:
	pushq	%r15
	pushq	%r14
	pushq	%r13
	pushq	%r12
	pushq	%rbx
	andq	$-32, %rsp
	subq	$384, %rsp                      # imm = 0x180
	.cfi_offset %rbx, -56
	.cfi_offset %r12, -48
	.cfi_offset %r13, -40
	.cfi_offset %r14, -32
	.cfi_offset %r15, -24
.Ltmp1:
	#DEBUG_VALUE: main:n <- 5
	#DEBUG_VALUE: main:res1 <- 0.000000e+00
	#DEBUG_VALUE: main:res2 <- 0.000000e+00
	#DEBUG_VALUE: main:res3 <- 0.000000e+00
	#DEBUG_VALUE: main:res4 <- 0.000000e+00
	#DEBUG_VALUE: main:res5 <- 0.000000e+00
	#DEBUG_VALUE: main:res6 <- 0.000000e+00
	#DEBUG_VALUE: main:res7 <- 0.000000e+00
	#DEBUG_VALUE: main:res8 <- 0.000000e+00
	#DEBUG_VALUE: main:res9 <- 0.000000e+00
	#DEBUG_VALUE: main:res10 <- 0.000000e+00
	#DEBUG_VALUE: main:res11 <- 0.000000e+00
	#DEBUG_VALUE: main:res12 <- 0.000000e+00
	#DEBUG_VALUE: main:in <- 100000000
	#DEBUG_VALUE: main:n_times <- 0
	#DEBUG_VALUE: main:n_warmup <- 0
	.loc	0 118 1 prologue_end            # avx_complex_vec_align_load.c:118:1
	vxorpd	%xmm0, %xmm0, %xmm0
	vmovapd	%ymm0, 224(%rsp)
	vmovapd	%ymm0, 320(%rsp)
	vmovapd	%ymm0, 288(%rsp)
	vmovapd	%ymm0, 256(%rsp)
.Ltmp2:
	#DEBUG_VALUE: __cpu <- 0
	.loc	0 119 1                         # avx_complex_vec_align_load.c:119:1
	orb	$1, 224(%rsp)
	leaq	224(%rsp), %rdx
.Ltmp3:
	.loc	0 120 4                         # avx_complex_vec_align_load.c:120:4
	movl	$128, %esi
	xorl	%edi, %edi
	vzeroupper
	callq	sched_setaffinity
.Ltmp4:
	.loc	0 120 44 is_stmt 0              # avx_complex_vec_align_load.c:120:44
	cmpl	$-1, %eax
.Ltmp5:
	.loc	0 120 4                         # avx_complex_vec_align_load.c:120:4
	jne	.LBB0_2
.Ltmp6:
# %bb.1:
	#DEBUG_VALUE: main:n <- 5
	#DEBUG_VALUE: main:res1 <- 0.000000e+00
	#DEBUG_VALUE: main:res2 <- 0.000000e+00
	#DEBUG_VALUE: main:res3 <- 0.000000e+00
	#DEBUG_VALUE: main:res4 <- 0.000000e+00
	#DEBUG_VALUE: main:res5 <- 0.000000e+00
	#DEBUG_VALUE: main:res6 <- 0.000000e+00
	#DEBUG_VALUE: main:res7 <- 0.000000e+00
	#DEBUG_VALUE: main:res8 <- 0.000000e+00
	#DEBUG_VALUE: main:res9 <- 0.000000e+00
	#DEBUG_VALUE: main:res10 <- 0.000000e+00
	#DEBUG_VALUE: main:res11 <- 0.000000e+00
	#DEBUG_VALUE: main:res12 <- 0.000000e+00
	#DEBUG_VALUE: main:in <- 100000000
	#DEBUG_VALUE: main:n_times <- 0
	#DEBUG_VALUE: main:n_warmup <- 0
	.loc	0 121 5 is_stmt 1               # avx_complex_vec_align_load.c:121:5
	movl	$.Lstr, %edi
	callq	puts@PLT
.Ltmp7:
.LBB0_2:
	#DEBUG_VALUE: main:n <- 5
	#DEBUG_VALUE: main:res1 <- 0.000000e+00
	#DEBUG_VALUE: main:res2 <- 0.000000e+00
	#DEBUG_VALUE: main:res3 <- 0.000000e+00
	#DEBUG_VALUE: main:res4 <- 0.000000e+00
	#DEBUG_VALUE: main:res5 <- 0.000000e+00
	#DEBUG_VALUE: main:res6 <- 0.000000e+00
	#DEBUG_VALUE: main:res7 <- 0.000000e+00
	#DEBUG_VALUE: main:res8 <- 0.000000e+00
	#DEBUG_VALUE: main:res9 <- 0.000000e+00
	#DEBUG_VALUE: main:res10 <- 0.000000e+00
	#DEBUG_VALUE: main:res11 <- 0.000000e+00
	#DEBUG_VALUE: main:res12 <- 0.000000e+00
	#DEBUG_VALUE: main:in <- 100000000
	#DEBUG_VALUE: main:n_times <- 0
	#DEBUG_VALUE: main:n_warmup <- 0
	.loc	0 0 5 is_stmt 0                 # avx_complex_vec_align_load.c:0:5
	movabsq	$14400000000, %r14              # imm = 0x35A4E9000
	.loc	0 127 8 is_stmt 1               # avx_complex_vec_align_load.c:127:8
	movq	%r14, %rdi
	movl	$8, %esi
	callq	amalloc
.Ltmp8:
	.loc	0 0 8 is_stmt 0                 # avx_complex_vec_align_load.c:0:8
	movq	%rax, 48(%rsp)                  # 8-byte Spill
.Ltmp9:
	#DEBUG_VALUE: main:up <- [DW_OP_plus_uconst 48] [$rsp+0]
	.loc	0 128 8 is_stmt 1               # avx_complex_vec_align_load.c:128:8
	movq	%r14, %rdi
	movl	$8, %esi
	callq	amalloc
.Ltmp10:
	movq	%rax, %r13
.Ltmp11:
	#DEBUG_VALUE: main:v3 <- $r13
	.loc	0 0 8 is_stmt 0                 # avx_complex_vec_align_load.c:0:8
	movabsq	$4800000000, %r12               # imm = 0x11E1A3000
	.loc	0 130 8 is_stmt 1               # avx_complex_vec_align_load.c:130:8
	movq	%r12, %rdi
	movl	$8, %esi
	callq	amalloc
.Ltmp12:
	movq	%rax, %r14
.Ltmp13:
	#DEBUG_VALUE: main:v1 <- $r14
	.loc	0 131 8                         # avx_complex_vec_align_load.c:131:8
	movq	%r12, %rdi
	movl	$8, %esi
	callq	amalloc
.Ltmp14:
	movq	%rax, %rbx
.Ltmp15:
	#DEBUG_VALUE: main:v2 <- $rbx
	.loc	0 132 9                         # avx_complex_vec_align_load.c:132:9
	movq	%r12, %rdi
	movl	$8, %esi
	callq	amalloc
.Ltmp16:
	.loc	0 0 9 is_stmt 0                 # avx_complex_vec_align_load.c:0:9
	movq	%rax, 40(%rsp)                  # 8-byte Spill
.Ltmp17:
	#DEBUG_VALUE: main:psi <- [DW_OP_plus_uconst 40] [$rsp+0]
	.loc	0 133 10 is_stmt 1              # avx_complex_vec_align_load.c:133:10
	movq	%r12, %rdi
	movl	$8, %esi
	callq	amalloc
.Ltmp18:
	.loc	0 0 10 is_stmt 0                # avx_complex_vec_align_load.c:0:10
	movq	%rax, 32(%rsp)                  # 8-byte Spill
.Ltmp19:
	#DEBUG_VALUE: main:psi2 <- [DW_OP_plus_uconst 32] [$rsp+0]
	.loc	0 134 9 is_stmt 1               # avx_complex_vec_align_load.c:134:9
	movq	%r12, %rdi
	movl	$8, %esi
	callq	amalloc
.Ltmp20:
	.loc	0 0 9 is_stmt 0                 # avx_complex_vec_align_load.c:0:9
	movq	%rax, 152(%rsp)                 # 8-byte Spill
.Ltmp21:
	#DEBUG_VALUE: main:chi <- [DW_OP_plus_uconst 152] [$rsp+0]
	.loc	0 135 10 is_stmt 1              # avx_complex_vec_align_load.c:135:10
	movq	%r12, %rdi
	movl	$8, %esi
	callq	amalloc
.Ltmp22:
	.loc	0 0 10 is_stmt 0                # avx_complex_vec_align_load.c:0:10
	movq	%rax, 144(%rsp)                 # 8-byte Spill
.Ltmp23:
	#DEBUG_VALUE: main:chi2 <- [DW_OP_plus_uconst 144] [$rsp+0]
	.loc	0 136 10 is_stmt 1              # avx_complex_vec_align_load.c:136:10
	movq	%r12, %rdi
	movl	$8, %esi
	callq	amalloc
.Ltmp24:
	.loc	0 0 10 is_stmt 0                # avx_complex_vec_align_load.c:0:10
	movq	%rax, 184(%rsp)                 # 8-byte Spill
.Ltmp25:
	#DEBUG_VALUE: main:chi3 <- [DW_OP_plus_uconst 184] [$rsp+0]
	.loc	0 137 10 is_stmt 1              # avx_complex_vec_align_load.c:137:10
	movq	%r12, %rdi
	movl	$8, %esi
	callq	amalloc
.Ltmp26:
	.loc	0 0 10 is_stmt 0                # avx_complex_vec_align_load.c:0:10
	movq	%rax, 176(%rsp)                 # 8-byte Spill
.Ltmp27:
	#DEBUG_VALUE: main:chi4 <- [DW_OP_plus_uconst 176] [$rsp+0]
	.loc	0 138 10 is_stmt 1              # avx_complex_vec_align_load.c:138:10
	movq	%r12, %rdi
	movl	$8, %esi
	callq	amalloc
.Ltmp28:
	.loc	0 0 10 is_stmt 0                # avx_complex_vec_align_load.c:0:10
	movq	%rax, 72(%rsp)                  # 8-byte Spill
.Ltmp29:
	#DEBUG_VALUE: main:chi5 <- [DW_OP_plus_uconst 72] [$rsp+0]
	.loc	0 139 10 is_stmt 1              # avx_complex_vec_align_load.c:139:10
	movq	%r12, %rdi
	movl	$8, %esi
	callq	amalloc
.Ltmp30:
	.loc	0 0 10 is_stmt 0                # avx_complex_vec_align_load.c:0:10
	movq	%rax, 64(%rsp)                  # 8-byte Spill
.Ltmp31:
	#DEBUG_VALUE: main:chi6 <- [DW_OP_plus_uconst 64] [$rsp+0]
	#DEBUG_VALUE: main:i <- 0
	movq	%r14, 120(%rsp)                 # 8-byte Spill
.Ltmp32:
	#DEBUG_VALUE: main:v1 <- [DW_OP_plus_uconst 120] [$rsp+0]
	.loc	0 151 3 is_stmt 1               # avx_complex_vec_align_load.c:151:3
	addq	$8, %r14
	movq	%rbx, 112(%rsp)                 # 8-byte Spill
.Ltmp33:
	#DEBUG_VALUE: main:v2 <- [DW_OP_plus_uconst 112] [$rsp+0]
	leaq	8(%rbx), %r15
	movq	%r13, 128(%rsp)                 # 8-byte Spill
.Ltmp34:
	#DEBUG_VALUE: main:v3 <- [DW_OP_plus_uconst 128] [$rsp+0]
	addq	$8, %r13
	xorl	%r12d, %r12d
.Ltmp35:
	.p2align	4, 0x90
.LBB0_3:                                # =>This Loop Header: Depth=1
                                        #     Child Loop BB0_4 Depth 2
                                        #     Child Loop BB0_6 Depth 2
	#DEBUG_VALUE: main:n <- 5
	#DEBUG_VALUE: main:res1 <- 0.000000e+00
	#DEBUG_VALUE: main:res2 <- 0.000000e+00
	#DEBUG_VALUE: main:res3 <- 0.000000e+00
	#DEBUG_VALUE: main:res4 <- 0.000000e+00
	#DEBUG_VALUE: main:res5 <- 0.000000e+00
	#DEBUG_VALUE: main:res6 <- 0.000000e+00
	#DEBUG_VALUE: main:res7 <- 0.000000e+00
	#DEBUG_VALUE: main:res8 <- 0.000000e+00
	#DEBUG_VALUE: main:res9 <- 0.000000e+00
	#DEBUG_VALUE: main:res10 <- 0.000000e+00
	#DEBUG_VALUE: main:res11 <- 0.000000e+00
	#DEBUG_VALUE: main:res12 <- 0.000000e+00
	#DEBUG_VALUE: main:in <- 100000000
	#DEBUG_VALUE: main:n_times <- 0
	#DEBUG_VALUE: main:n_warmup <- 0
	#DEBUG_VALUE: main:up <- [DW_OP_plus_uconst 48] [$rsp+0]
	#DEBUG_VALUE: main:v3 <- [DW_OP_plus_uconst 128] [$rsp+0]
	#DEBUG_VALUE: main:v1 <- [DW_OP_plus_uconst 120] [$rsp+0]
	#DEBUG_VALUE: main:v2 <- [DW_OP_plus_uconst 112] [$rsp+0]
	#DEBUG_VALUE: main:psi <- [DW_OP_plus_uconst 40] [$rsp+0]
	#DEBUG_VALUE: main:psi2 <- [DW_OP_plus_uconst 32] [$rsp+0]
	#DEBUG_VALUE: main:chi <- [DW_OP_plus_uconst 152] [$rsp+0]
	#DEBUG_VALUE: main:chi2 <- [DW_OP_plus_uconst 144] [$rsp+0]
	#DEBUG_VALUE: main:chi3 <- [DW_OP_plus_uconst 184] [$rsp+0]
	#DEBUG_VALUE: main:chi4 <- [DW_OP_plus_uconst 176] [$rsp+0]
	#DEBUG_VALUE: main:chi5 <- [DW_OP_plus_uconst 72] [$rsp+0]
	#DEBUG_VALUE: main:chi6 <- [DW_OP_plus_uconst 64] [$rsp+0]
	#DEBUG_VALUE: main:i <- $r12
	#DEBUG_VALUE: main:j <- 0
	.loc	0 0 3 is_stmt 0                 # avx_complex_vec_align_load.c:0:3
	xorl	%ebx, %ebx
.Ltmp36:
	.p2align	4, 0x90
.LBB0_4:                                #   Parent Loop BB0_3 Depth=1
                                        # =>  This Inner Loop Header: Depth=2
	#DEBUG_VALUE: main:n <- 5
	#DEBUG_VALUE: main:res1 <- 0.000000e+00
	#DEBUG_VALUE: main:res2 <- 0.000000e+00
	#DEBUG_VALUE: main:res3 <- 0.000000e+00
	#DEBUG_VALUE: main:res4 <- 0.000000e+00
	#DEBUG_VALUE: main:res5 <- 0.000000e+00
	#DEBUG_VALUE: main:res6 <- 0.000000e+00
	#DEBUG_VALUE: main:res7 <- 0.000000e+00
	#DEBUG_VALUE: main:res8 <- 0.000000e+00
	#DEBUG_VALUE: main:res9 <- 0.000000e+00
	#DEBUG_VALUE: main:res10 <- 0.000000e+00
	#DEBUG_VALUE: main:res11 <- 0.000000e+00
	#DEBUG_VALUE: main:res12 <- 0.000000e+00
	#DEBUG_VALUE: main:in <- 100000000
	#DEBUG_VALUE: main:n_times <- 0
	#DEBUG_VALUE: main:n_warmup <- 0
	#DEBUG_VALUE: main:up <- [DW_OP_plus_uconst 48] [$rsp+0]
	#DEBUG_VALUE: main:v3 <- [DW_OP_plus_uconst 128] [$rsp+0]
	#DEBUG_VALUE: main:v1 <- [DW_OP_plus_uconst 120] [$rsp+0]
	#DEBUG_VALUE: main:v2 <- [DW_OP_plus_uconst 112] [$rsp+0]
	#DEBUG_VALUE: main:psi <- [DW_OP_plus_uconst 40] [$rsp+0]
	#DEBUG_VALUE: main:psi2 <- [DW_OP_plus_uconst 32] [$rsp+0]
	#DEBUG_VALUE: main:chi <- [DW_OP_plus_uconst 152] [$rsp+0]
	#DEBUG_VALUE: main:chi2 <- [DW_OP_plus_uconst 144] [$rsp+0]
	#DEBUG_VALUE: main:chi3 <- [DW_OP_plus_uconst 184] [$rsp+0]
	#DEBUG_VALUE: main:chi4 <- [DW_OP_plus_uconst 176] [$rsp+0]
	#DEBUG_VALUE: main:chi5 <- [DW_OP_plus_uconst 72] [$rsp+0]
	#DEBUG_VALUE: main:chi6 <- [DW_OP_plus_uconst 64] [$rsp+0]
	#DEBUG_VALUE: main:i <- $r12
	#DEBUG_VALUE: main:j <- [DW_OP_LLVM_arg 0, DW_OP_consts 8, DW_OP_LLVM_arg 1, DW_OP_plus_uconst 120, DW_OP_deref, DW_OP_plus, DW_OP_minus, DW_OP_consts 48, DW_OP_div, DW_OP_stack_value] $r14, $rsp
	.loc	0 155 22 is_stmt 1              # avx_complex_vec_align_load.c:155:22
	movl	$5, %edi
	callq	my_rand
.Ltmp37:
	.loc	0 155 20 is_stmt 0              # avx_complex_vec_align_load.c:155:20
	vmovsd	%xmm0, -8(%r14,%rbx)
	vmovsd	%xmm1, (%r14,%rbx)
	.loc	0 156 22 is_stmt 1              # avx_complex_vec_align_load.c:156:22
	movl	$5, %edi
	callq	my_rand
.Ltmp38:
	.loc	0 156 20 is_stmt 0              # avx_complex_vec_align_load.c:156:20
	vmovsd	%xmm0, -8(%r15,%rbx)
	vmovsd	%xmm1, (%r15,%rbx)
.Ltmp39:
	#DEBUG_VALUE: main:j <- [DW_OP_LLVM_arg 0, DW_OP_consts 8, DW_OP_LLVM_arg 1, DW_OP_plus_uconst 120, DW_OP_deref, DW_OP_plus, DW_OP_minus, DW_OP_consts 48, DW_OP_div, DW_OP_consts 1, DW_OP_plus, DW_OP_stack_value] $r14, $rsp
	.loc	0 153 15 is_stmt 1              # avx_complex_vec_align_load.c:153:15
	addq	$16, %rbx
	cmpq	$48, %rbx
.Ltmp40:
	.loc	0 153 5 is_stmt 0               # avx_complex_vec_align_load.c:153:5
	jne	.LBB0_4
.Ltmp41:
# %bb.5:                                #   in Loop: Header=BB0_3 Depth=1
	#DEBUG_VALUE: main:n <- 5
	#DEBUG_VALUE: main:res1 <- 0.000000e+00
	#DEBUG_VALUE: main:res2 <- 0.000000e+00
	#DEBUG_VALUE: main:res3 <- 0.000000e+00
	#DEBUG_VALUE: main:res4 <- 0.000000e+00
	#DEBUG_VALUE: main:res5 <- 0.000000e+00
	#DEBUG_VALUE: main:res6 <- 0.000000e+00
	#DEBUG_VALUE: main:res7 <- 0.000000e+00
	#DEBUG_VALUE: main:res8 <- 0.000000e+00
	#DEBUG_VALUE: main:res9 <- 0.000000e+00
	#DEBUG_VALUE: main:res10 <- 0.000000e+00
	#DEBUG_VALUE: main:res11 <- 0.000000e+00
	#DEBUG_VALUE: main:res12 <- 0.000000e+00
	#DEBUG_VALUE: main:in <- 100000000
	#DEBUG_VALUE: main:n_times <- 0
	#DEBUG_VALUE: main:n_warmup <- 0
	#DEBUG_VALUE: main:up <- [DW_OP_plus_uconst 48] [$rsp+0]
	#DEBUG_VALUE: main:v3 <- [DW_OP_plus_uconst 128] [$rsp+0]
	#DEBUG_VALUE: main:v1 <- [DW_OP_plus_uconst 120] [$rsp+0]
	#DEBUG_VALUE: main:v2 <- [DW_OP_plus_uconst 112] [$rsp+0]
	#DEBUG_VALUE: main:psi <- [DW_OP_plus_uconst 40] [$rsp+0]
	#DEBUG_VALUE: main:psi2 <- [DW_OP_plus_uconst 32] [$rsp+0]
	#DEBUG_VALUE: main:chi <- [DW_OP_plus_uconst 152] [$rsp+0]
	#DEBUG_VALUE: main:chi2 <- [DW_OP_plus_uconst 144] [$rsp+0]
	#DEBUG_VALUE: main:chi3 <- [DW_OP_plus_uconst 184] [$rsp+0]
	#DEBUG_VALUE: main:chi4 <- [DW_OP_plus_uconst 176] [$rsp+0]
	#DEBUG_VALUE: main:chi5 <- [DW_OP_plus_uconst 72] [$rsp+0]
	#DEBUG_VALUE: main:chi6 <- [DW_OP_plus_uconst 64] [$rsp+0]
	#DEBUG_VALUE: main:i <- $r12
	.loc	0 0 5                           # avx_complex_vec_align_load.c:0:5
	xorl	%ebx, %ebx
.Ltmp42:
	.p2align	4, 0x90
.LBB0_6:                                #   Parent Loop BB0_3 Depth=1
                                        # =>  This Inner Loop Header: Depth=2
	#DEBUG_VALUE: main:n <- 5
	#DEBUG_VALUE: main:res1 <- 0.000000e+00
	#DEBUG_VALUE: main:res2 <- 0.000000e+00
	#DEBUG_VALUE: main:res3 <- 0.000000e+00
	#DEBUG_VALUE: main:res4 <- 0.000000e+00
	#DEBUG_VALUE: main:res5 <- 0.000000e+00
	#DEBUG_VALUE: main:res6 <- 0.000000e+00
	#DEBUG_VALUE: main:res7 <- 0.000000e+00
	#DEBUG_VALUE: main:res8 <- 0.000000e+00
	#DEBUG_VALUE: main:res9 <- 0.000000e+00
	#DEBUG_VALUE: main:res10 <- 0.000000e+00
	#DEBUG_VALUE: main:res11 <- 0.000000e+00
	#DEBUG_VALUE: main:res12 <- 0.000000e+00
	#DEBUG_VALUE: main:in <- 100000000
	#DEBUG_VALUE: main:n_times <- 0
	#DEBUG_VALUE: main:n_warmup <- 0
	#DEBUG_VALUE: main:up <- [DW_OP_plus_uconst 48] [$rsp+0]
	#DEBUG_VALUE: main:v3 <- [DW_OP_plus_uconst 128] [$rsp+0]
	#DEBUG_VALUE: main:v1 <- [DW_OP_plus_uconst 120] [$rsp+0]
	#DEBUG_VALUE: main:v2 <- [DW_OP_plus_uconst 112] [$rsp+0]
	#DEBUG_VALUE: main:psi <- [DW_OP_plus_uconst 40] [$rsp+0]
	#DEBUG_VALUE: main:psi2 <- [DW_OP_plus_uconst 32] [$rsp+0]
	#DEBUG_VALUE: main:chi <- [DW_OP_plus_uconst 152] [$rsp+0]
	#DEBUG_VALUE: main:chi2 <- [DW_OP_plus_uconst 144] [$rsp+0]
	#DEBUG_VALUE: main:chi3 <- [DW_OP_plus_uconst 184] [$rsp+0]
	#DEBUG_VALUE: main:chi4 <- [DW_OP_plus_uconst 176] [$rsp+0]
	#DEBUG_VALUE: main:chi5 <- [DW_OP_plus_uconst 72] [$rsp+0]
	#DEBUG_VALUE: main:chi6 <- [DW_OP_plus_uconst 64] [$rsp+0]
	#DEBUG_VALUE: main:i <- $r12
	#DEBUG_VALUE: main:j <- [DW_OP_LLVM_arg 0, DW_OP_consts 8, DW_OP_LLVM_arg 1, DW_OP_plus_uconst 128, DW_OP_deref, DW_OP_plus, DW_OP_minus, DW_OP_consts 144, DW_OP_div, DW_OP_stack_value] $r13, $rsp
	.loc	0 161 22 is_stmt 1              # avx_complex_vec_align_load.c:161:22
	movl	$5, %edi
	callq	my_rand
.Ltmp43:
	.loc	0 161 20 is_stmt 0              # avx_complex_vec_align_load.c:161:20
	vmovsd	%xmm0, -8(%r13,%rbx)
	vmovsd	%xmm1, (%r13,%rbx)
.Ltmp44:
	#DEBUG_VALUE: main:j <- [DW_OP_LLVM_arg 0, DW_OP_consts 8, DW_OP_LLVM_arg 1, DW_OP_plus_uconst 128, DW_OP_deref, DW_OP_plus, DW_OP_minus, DW_OP_consts 144, DW_OP_div, DW_OP_consts 1, DW_OP_plus, DW_OP_stack_value] $r13, $rsp
	.loc	0 159 15 is_stmt 1              # avx_complex_vec_align_load.c:159:15
	addq	$16, %rbx
	cmpq	$144, %rbx
.Ltmp45:
	.loc	0 159 5 is_stmt 0               # avx_complex_vec_align_load.c:159:5
	jne	.LBB0_6
.Ltmp46:
# %bb.7:                                #   in Loop: Header=BB0_3 Depth=1
	#DEBUG_VALUE: main:n <- 5
	#DEBUG_VALUE: main:res1 <- 0.000000e+00
	#DEBUG_VALUE: main:res2 <- 0.000000e+00
	#DEBUG_VALUE: main:res3 <- 0.000000e+00
	#DEBUG_VALUE: main:res4 <- 0.000000e+00
	#DEBUG_VALUE: main:res5 <- 0.000000e+00
	#DEBUG_VALUE: main:res6 <- 0.000000e+00
	#DEBUG_VALUE: main:res7 <- 0.000000e+00
	#DEBUG_VALUE: main:res8 <- 0.000000e+00
	#DEBUG_VALUE: main:res9 <- 0.000000e+00
	#DEBUG_VALUE: main:res10 <- 0.000000e+00
	#DEBUG_VALUE: main:res11 <- 0.000000e+00
	#DEBUG_VALUE: main:res12 <- 0.000000e+00
	#DEBUG_VALUE: main:in <- 100000000
	#DEBUG_VALUE: main:n_times <- 0
	#DEBUG_VALUE: main:n_warmup <- 0
	#DEBUG_VALUE: main:up <- [DW_OP_plus_uconst 48] [$rsp+0]
	#DEBUG_VALUE: main:v3 <- [DW_OP_plus_uconst 128] [$rsp+0]
	#DEBUG_VALUE: main:v1 <- [DW_OP_plus_uconst 120] [$rsp+0]
	#DEBUG_VALUE: main:v2 <- [DW_OP_plus_uconst 112] [$rsp+0]
	#DEBUG_VALUE: main:psi <- [DW_OP_plus_uconst 40] [$rsp+0]
	#DEBUG_VALUE: main:psi2 <- [DW_OP_plus_uconst 32] [$rsp+0]
	#DEBUG_VALUE: main:chi <- [DW_OP_plus_uconst 152] [$rsp+0]
	#DEBUG_VALUE: main:chi2 <- [DW_OP_plus_uconst 144] [$rsp+0]
	#DEBUG_VALUE: main:chi3 <- [DW_OP_plus_uconst 184] [$rsp+0]
	#DEBUG_VALUE: main:chi4 <- [DW_OP_plus_uconst 176] [$rsp+0]
	#DEBUG_VALUE: main:chi5 <- [DW_OP_plus_uconst 72] [$rsp+0]
	#DEBUG_VALUE: main:chi6 <- [DW_OP_plus_uconst 64] [$rsp+0]
	#DEBUG_VALUE: main:i <- $r12
	.loc	0 151 19 is_stmt 1              # avx_complex_vec_align_load.c:151:19
	incq	%r12
.Ltmp47:
	#DEBUG_VALUE: main:i <- $r12
	.loc	0 151 3 is_stmt 0               # avx_complex_vec_align_load.c:151:3
	addq	$48, %r14
	addq	$48, %r15
	addq	$144, %r13
.Ltmp48:
	.loc	0 151 13                        # avx_complex_vec_align_load.c:151:13
	cmpq	$100000000, %r12                # imm = 0x5F5E100
.Ltmp49:
	.loc	0 151 3                         # avx_complex_vec_align_load.c:151:3
	jne	.LBB0_3
.Ltmp50:
# %bb.8:
	#DEBUG_VALUE: main:n <- 5
	#DEBUG_VALUE: main:res1 <- 0.000000e+00
	#DEBUG_VALUE: main:res2 <- 0.000000e+00
	#DEBUG_VALUE: main:res3 <- 0.000000e+00
	#DEBUG_VALUE: main:res4 <- 0.000000e+00
	#DEBUG_VALUE: main:res5 <- 0.000000e+00
	#DEBUG_VALUE: main:res6 <- 0.000000e+00
	#DEBUG_VALUE: main:res7 <- 0.000000e+00
	#DEBUG_VALUE: main:res8 <- 0.000000e+00
	#DEBUG_VALUE: main:res9 <- 0.000000e+00
	#DEBUG_VALUE: main:res10 <- 0.000000e+00
	#DEBUG_VALUE: main:res11 <- 0.000000e+00
	#DEBUG_VALUE: main:res12 <- 0.000000e+00
	#DEBUG_VALUE: main:in <- 100000000
	#DEBUG_VALUE: main:n_times <- 0
	#DEBUG_VALUE: main:n_warmup <- 0
	#DEBUG_VALUE: main:up <- [DW_OP_plus_uconst 48] [$rsp+0]
	#DEBUG_VALUE: main:v3 <- [DW_OP_plus_uconst 128] [$rsp+0]
	#DEBUG_VALUE: main:v1 <- [DW_OP_plus_uconst 120] [$rsp+0]
	#DEBUG_VALUE: main:v2 <- [DW_OP_plus_uconst 112] [$rsp+0]
	#DEBUG_VALUE: main:psi <- [DW_OP_plus_uconst 40] [$rsp+0]
	#DEBUG_VALUE: main:psi2 <- [DW_OP_plus_uconst 32] [$rsp+0]
	#DEBUG_VALUE: main:chi <- [DW_OP_plus_uconst 152] [$rsp+0]
	#DEBUG_VALUE: main:chi2 <- [DW_OP_plus_uconst 144] [$rsp+0]
	#DEBUG_VALUE: main:chi3 <- [DW_OP_plus_uconst 184] [$rsp+0]
	#DEBUG_VALUE: main:chi4 <- [DW_OP_plus_uconst 176] [$rsp+0]
	#DEBUG_VALUE: main:chi5 <- [DW_OP_plus_uconst 72] [$rsp+0]
	#DEBUG_VALUE: main:chi6 <- [DW_OP_plus_uconst 64] [$rsp+0]
	#DEBUG_VALUE: main:i <- $r12
	#DEBUG_VALUE: main:i <- 0
	.loc	0 0 3                           # avx_complex_vec_align_load.c:0:3
	movq	120(%rsp), %rax                 # 8-byte Reload
.Ltmp51:
	#DEBUG_VALUE: main:v1 <- $rax
	.loc	0 172 1 is_stmt 1               # avx_complex_vec_align_load.c:172:1
	leaq	8(%rax), %r9
	movq	40(%rsp), %r11                  # 8-byte Reload
.Ltmp52:
	#DEBUG_VALUE: main:psi <- $r11
	leaq	8(%r11), %rcx
	movq	112(%rsp), %rax                 # 8-byte Reload
.Ltmp53:
	#DEBUG_VALUE: main:v2 <- $rax
	leaq	8(%rax), %rdx
	movq	32(%rsp), %rax                  # 8-byte Reload
.Ltmp54:
	#DEBUG_VALUE: main:psi2 <- $rax
	leaq	8(%rax), %rsi
	movq	128(%rsp), %rax                 # 8-byte Reload
.Ltmp55:
	#DEBUG_VALUE: main:v3 <- $rax
	leaq	8(%rax), %rdi
	movq	48(%rsp), %r10                  # 8-byte Reload
.Ltmp56:
	#DEBUG_VALUE: main:up <- $r10
	leaq	8(%r10), %rbx
	xorl	%r8d, %r8d
	movq	152(%rsp), %r15                 # 8-byte Reload
.Ltmp57:
	#DEBUG_VALUE: main:chi <- $r15
	.loc	0 0 1 is_stmt 0                 # avx_complex_vec_align_load.c:0:1
	movq	144(%rsp), %r12                 # 8-byte Reload
.Ltmp58:
	#DEBUG_VALUE: main:chi2 <- $r12
	.p2align	4, 0x90
.LBB0_9:                                # =>This Loop Header: Depth=1
                                        #     Child Loop BB0_10 Depth 2
                                        #     Child Loop BB0_12 Depth 2
	#DEBUG_VALUE: main:n <- 5
	#DEBUG_VALUE: main:res1 <- 0.000000e+00
	#DEBUG_VALUE: main:res2 <- 0.000000e+00
	#DEBUG_VALUE: main:res3 <- 0.000000e+00
	#DEBUG_VALUE: main:res4 <- 0.000000e+00
	#DEBUG_VALUE: main:res5 <- 0.000000e+00
	#DEBUG_VALUE: main:res6 <- 0.000000e+00
	#DEBUG_VALUE: main:res7 <- 0.000000e+00
	#DEBUG_VALUE: main:res8 <- 0.000000e+00
	#DEBUG_VALUE: main:res9 <- 0.000000e+00
	#DEBUG_VALUE: main:res10 <- 0.000000e+00
	#DEBUG_VALUE: main:res11 <- 0.000000e+00
	#DEBUG_VALUE: main:res12 <- 0.000000e+00
	#DEBUG_VALUE: main:in <- 100000000
	#DEBUG_VALUE: main:n_times <- 0
	#DEBUG_VALUE: main:n_warmup <- 0
	#DEBUG_VALUE: main:up <- $r10
	#DEBUG_VALUE: main:v3 <- [DW_OP_plus_uconst 128] [$rsp+0]
	#DEBUG_VALUE: main:v1 <- [DW_OP_plus_uconst 120] [$rsp+0]
	#DEBUG_VALUE: main:v2 <- [DW_OP_plus_uconst 112] [$rsp+0]
	#DEBUG_VALUE: main:psi <- $r11
	#DEBUG_VALUE: main:psi2 <- [DW_OP_plus_uconst 32] [$rsp+0]
	#DEBUG_VALUE: main:chi <- $r15
	#DEBUG_VALUE: main:chi2 <- $r12
	#DEBUG_VALUE: main:chi3 <- [DW_OP_plus_uconst 184] [$rsp+0]
	#DEBUG_VALUE: main:chi4 <- [DW_OP_plus_uconst 176] [$rsp+0]
	#DEBUG_VALUE: main:chi5 <- [DW_OP_plus_uconst 72] [$rsp+0]
	#DEBUG_VALUE: main:chi6 <- [DW_OP_plus_uconst 64] [$rsp+0]
	#DEBUG_VALUE: main:i <- $r8
	#DEBUG_VALUE: main:j <- 0
	xorl	%eax, %eax
.Ltmp59:
	.p2align	4, 0x90
.LBB0_10:                               #   Parent Loop BB0_9 Depth=1
                                        # =>  This Inner Loop Header: Depth=2
	#DEBUG_VALUE: main:n <- 5
	#DEBUG_VALUE: main:res1 <- 0.000000e+00
	#DEBUG_VALUE: main:res2 <- 0.000000e+00
	#DEBUG_VALUE: main:res3 <- 0.000000e+00
	#DEBUG_VALUE: main:res4 <- 0.000000e+00
	#DEBUG_VALUE: main:res5 <- 0.000000e+00
	#DEBUG_VALUE: main:res6 <- 0.000000e+00
	#DEBUG_VALUE: main:res7 <- 0.000000e+00
	#DEBUG_VALUE: main:res8 <- 0.000000e+00
	#DEBUG_VALUE: main:res9 <- 0.000000e+00
	#DEBUG_VALUE: main:res10 <- 0.000000e+00
	#DEBUG_VALUE: main:res11 <- 0.000000e+00
	#DEBUG_VALUE: main:res12 <- 0.000000e+00
	#DEBUG_VALUE: main:in <- 100000000
	#DEBUG_VALUE: main:n_times <- 0
	#DEBUG_VALUE: main:n_warmup <- 0
	#DEBUG_VALUE: main:up <- $r10
	#DEBUG_VALUE: main:v3 <- [DW_OP_plus_uconst 128] [$rsp+0]
	#DEBUG_VALUE: main:v1 <- [DW_OP_plus_uconst 120] [$rsp+0]
	#DEBUG_VALUE: main:v2 <- [DW_OP_plus_uconst 112] [$rsp+0]
	#DEBUG_VALUE: main:psi <- $r11
	#DEBUG_VALUE: main:psi2 <- [DW_OP_plus_uconst 32] [$rsp+0]
	#DEBUG_VALUE: main:chi <- $r15
	#DEBUG_VALUE: main:chi2 <- $r12
	#DEBUG_VALUE: main:chi3 <- [DW_OP_plus_uconst 184] [$rsp+0]
	#DEBUG_VALUE: main:chi4 <- [DW_OP_plus_uconst 176] [$rsp+0]
	#DEBUG_VALUE: main:chi5 <- [DW_OP_plus_uconst 72] [$rsp+0]
	#DEBUG_VALUE: main:chi6 <- [DW_OP_plus_uconst 64] [$rsp+0]
	#DEBUG_VALUE: main:i <- $r8
	#DEBUG_VALUE: main:j <- [DW_OP_LLVM_arg 0, DW_OP_consts 8, DW_OP_LLVM_arg 1, DW_OP_plus_uconst 120, DW_OP_deref, DW_OP_plus, DW_OP_minus, DW_OP_consts 48, DW_OP_div, DW_OP_stack_value] $r9, $rsp
	.loc	0 176 23 is_stmt 1              # avx_complex_vec_align_load.c:176:23
	vmovups	-8(%r9,%rax), %xmm0
	.loc	0 176 21 is_stmt 0              # avx_complex_vec_align_load.c:176:21
	vmovups	%xmm0, -8(%rcx,%rax)
	.loc	0 177 24 is_stmt 1              # avx_complex_vec_align_load.c:177:24
	vmovupd	-8(%rdx,%rax), %xmm0
	.loc	0 177 22 is_stmt 0              # avx_complex_vec_align_load.c:177:22
	vmovupd	%xmm0, -8(%rsi,%rax)
.Ltmp60:
	#DEBUG_VALUE: main:j <- [DW_OP_LLVM_arg 0, DW_OP_consts 8, DW_OP_LLVM_arg 1, DW_OP_plus_uconst 120, DW_OP_deref, DW_OP_plus, DW_OP_minus, DW_OP_consts 48, DW_OP_div, DW_OP_consts 1, DW_OP_plus, DW_OP_stack_value] $r9, $rsp
	.loc	0 174 15 is_stmt 1              # avx_complex_vec_align_load.c:174:15
	addq	$16, %rax
	cmpq	$48, %rax
.Ltmp61:
	.loc	0 174 5 is_stmt 0               # avx_complex_vec_align_load.c:174:5
	jne	.LBB0_10
.Ltmp62:
# %bb.11:                               #   in Loop: Header=BB0_9 Depth=1
	#DEBUG_VALUE: main:n <- 5
	#DEBUG_VALUE: main:res1 <- 0.000000e+00
	#DEBUG_VALUE: main:res2 <- 0.000000e+00
	#DEBUG_VALUE: main:res3 <- 0.000000e+00
	#DEBUG_VALUE: main:res4 <- 0.000000e+00
	#DEBUG_VALUE: main:res5 <- 0.000000e+00
	#DEBUG_VALUE: main:res6 <- 0.000000e+00
	#DEBUG_VALUE: main:res7 <- 0.000000e+00
	#DEBUG_VALUE: main:res8 <- 0.000000e+00
	#DEBUG_VALUE: main:res9 <- 0.000000e+00
	#DEBUG_VALUE: main:res10 <- 0.000000e+00
	#DEBUG_VALUE: main:res11 <- 0.000000e+00
	#DEBUG_VALUE: main:res12 <- 0.000000e+00
	#DEBUG_VALUE: main:in <- 100000000
	#DEBUG_VALUE: main:n_times <- 0
	#DEBUG_VALUE: main:n_warmup <- 0
	#DEBUG_VALUE: main:up <- $r10
	#DEBUG_VALUE: main:v3 <- [DW_OP_plus_uconst 128] [$rsp+0]
	#DEBUG_VALUE: main:v1 <- [DW_OP_plus_uconst 120] [$rsp+0]
	#DEBUG_VALUE: main:v2 <- [DW_OP_plus_uconst 112] [$rsp+0]
	#DEBUG_VALUE: main:psi <- $r11
	#DEBUG_VALUE: main:psi2 <- [DW_OP_plus_uconst 32] [$rsp+0]
	#DEBUG_VALUE: main:chi <- $r15
	#DEBUG_VALUE: main:chi2 <- $r12
	#DEBUG_VALUE: main:chi3 <- [DW_OP_plus_uconst 184] [$rsp+0]
	#DEBUG_VALUE: main:chi4 <- [DW_OP_plus_uconst 176] [$rsp+0]
	#DEBUG_VALUE: main:chi5 <- [DW_OP_plus_uconst 72] [$rsp+0]
	#DEBUG_VALUE: main:chi6 <- [DW_OP_plus_uconst 64] [$rsp+0]
	#DEBUG_VALUE: main:i <- $r8
	.loc	0 0 5                           # avx_complex_vec_align_load.c:0:5
	xorl	%eax, %eax
.Ltmp63:
	.p2align	4, 0x90
.LBB0_12:                               #   Parent Loop BB0_9 Depth=1
                                        # =>  This Inner Loop Header: Depth=2
	#DEBUG_VALUE: main:n <- 5
	#DEBUG_VALUE: main:res1 <- 0.000000e+00
	#DEBUG_VALUE: main:res2 <- 0.000000e+00
	#DEBUG_VALUE: main:res3 <- 0.000000e+00
	#DEBUG_VALUE: main:res4 <- 0.000000e+00
	#DEBUG_VALUE: main:res5 <- 0.000000e+00
	#DEBUG_VALUE: main:res6 <- 0.000000e+00
	#DEBUG_VALUE: main:res7 <- 0.000000e+00
	#DEBUG_VALUE: main:res8 <- 0.000000e+00
	#DEBUG_VALUE: main:res9 <- 0.000000e+00
	#DEBUG_VALUE: main:res10 <- 0.000000e+00
	#DEBUG_VALUE: main:res11 <- 0.000000e+00
	#DEBUG_VALUE: main:res12 <- 0.000000e+00
	#DEBUG_VALUE: main:in <- 100000000
	#DEBUG_VALUE: main:n_times <- 0
	#DEBUG_VALUE: main:n_warmup <- 0
	#DEBUG_VALUE: main:up <- $r10
	#DEBUG_VALUE: main:v3 <- [DW_OP_plus_uconst 128] [$rsp+0]
	#DEBUG_VALUE: main:v1 <- [DW_OP_plus_uconst 120] [$rsp+0]
	#DEBUG_VALUE: main:v2 <- [DW_OP_plus_uconst 112] [$rsp+0]
	#DEBUG_VALUE: main:psi <- $r11
	#DEBUG_VALUE: main:psi2 <- [DW_OP_plus_uconst 32] [$rsp+0]
	#DEBUG_VALUE: main:chi <- $r15
	#DEBUG_VALUE: main:chi2 <- $r12
	#DEBUG_VALUE: main:chi3 <- [DW_OP_plus_uconst 184] [$rsp+0]
	#DEBUG_VALUE: main:chi4 <- [DW_OP_plus_uconst 176] [$rsp+0]
	#DEBUG_VALUE: main:chi5 <- [DW_OP_plus_uconst 72] [$rsp+0]
	#DEBUG_VALUE: main:chi6 <- [DW_OP_plus_uconst 64] [$rsp+0]
	#DEBUG_VALUE: main:i <- $r8
	#DEBUG_VALUE: main:j <- [DW_OP_LLVM_arg 0, DW_OP_consts 8, DW_OP_LLVM_arg 1, DW_OP_plus_uconst 128, DW_OP_deref, DW_OP_plus, DW_OP_minus, DW_OP_consts 144, DW_OP_div, DW_OP_stack_value] $rdi, $rsp
	.loc	0 182 22 is_stmt 1              # avx_complex_vec_align_load.c:182:22
	vmovupd	-8(%rdi,%rax), %xmm0
	.loc	0 182 20 is_stmt 0              # avx_complex_vec_align_load.c:182:20
	vmovupd	%xmm0, -8(%rbx,%rax)
.Ltmp64:
	#DEBUG_VALUE: main:j <- [DW_OP_LLVM_arg 0, DW_OP_consts 8, DW_OP_LLVM_arg 1, DW_OP_plus_uconst 128, DW_OP_deref, DW_OP_plus, DW_OP_minus, DW_OP_consts 144, DW_OP_div, DW_OP_consts 1, DW_OP_plus, DW_OP_stack_value] $rdi, $rsp
	.loc	0 180 15 is_stmt 1              # avx_complex_vec_align_load.c:180:15
	addq	$16, %rax
	cmpq	$144, %rax
.Ltmp65:
	.loc	0 180 5 is_stmt 0               # avx_complex_vec_align_load.c:180:5
	jne	.LBB0_12
.Ltmp66:
# %bb.13:                               #   in Loop: Header=BB0_9 Depth=1
	#DEBUG_VALUE: main:n <- 5
	#DEBUG_VALUE: main:res1 <- 0.000000e+00
	#DEBUG_VALUE: main:res2 <- 0.000000e+00
	#DEBUG_VALUE: main:res3 <- 0.000000e+00
	#DEBUG_VALUE: main:res4 <- 0.000000e+00
	#DEBUG_VALUE: main:res5 <- 0.000000e+00
	#DEBUG_VALUE: main:res6 <- 0.000000e+00
	#DEBUG_VALUE: main:res7 <- 0.000000e+00
	#DEBUG_VALUE: main:res8 <- 0.000000e+00
	#DEBUG_VALUE: main:res9 <- 0.000000e+00
	#DEBUG_VALUE: main:res10 <- 0.000000e+00
	#DEBUG_VALUE: main:res11 <- 0.000000e+00
	#DEBUG_VALUE: main:res12 <- 0.000000e+00
	#DEBUG_VALUE: main:in <- 100000000
	#DEBUG_VALUE: main:n_times <- 0
	#DEBUG_VALUE: main:n_warmup <- 0
	#DEBUG_VALUE: main:up <- $r10
	#DEBUG_VALUE: main:v3 <- [DW_OP_plus_uconst 128] [$rsp+0]
	#DEBUG_VALUE: main:v1 <- [DW_OP_plus_uconst 120] [$rsp+0]
	#DEBUG_VALUE: main:v2 <- [DW_OP_plus_uconst 112] [$rsp+0]
	#DEBUG_VALUE: main:psi <- $r11
	#DEBUG_VALUE: main:psi2 <- [DW_OP_plus_uconst 32] [$rsp+0]
	#DEBUG_VALUE: main:chi <- $r15
	#DEBUG_VALUE: main:chi2 <- $r12
	#DEBUG_VALUE: main:chi3 <- [DW_OP_plus_uconst 184] [$rsp+0]
	#DEBUG_VALUE: main:chi4 <- [DW_OP_plus_uconst 176] [$rsp+0]
	#DEBUG_VALUE: main:chi5 <- [DW_OP_plus_uconst 72] [$rsp+0]
	#DEBUG_VALUE: main:chi6 <- [DW_OP_plus_uconst 64] [$rsp+0]
	#DEBUG_VALUE: main:i <- $r8
	.loc	0 185 5 is_stmt 1               # avx_complex_vec_align_load.c:185:5
	vmovapd	(%r10), %ymm0
.Ltmp67:
	#DEBUG_VALUE: main:temp1 <- $ymm0
	vmovddup	%ymm0, %ymm8                    # ymm8 = ymm0[0,0,2,2]
.Ltmp68:
	#DEBUG_VALUE: main:temp6 <- $ymm8
	vpermilpd	$15, %ymm0, %ymm10      # ymm10 = ymm0[1,1,3,3]
.Ltmp69:
	#DEBUG_VALUE: main:temp1 <- $ymm10
	vmovupd	48(%r10), %ymm0
.Ltmp70:
	#DEBUG_VALUE: main:temp2 <- $ymm0
	vmovddup	%ymm0, %ymm9                    # ymm9 = ymm0[0,0,2,2]
.Ltmp71:
	#DEBUG_VALUE: main:temp7 <- $ymm9
	vpermilpd	$15, %ymm0, %ymm11      # ymm11 = ymm0[1,1,3,3]
.Ltmp72:
	#DEBUG_VALUE: main:temp2 <- $ymm11
	vmovapd	96(%r10), %ymm1
.Ltmp73:
	#DEBUG_VALUE: main:temp3 <- $ymm1
	vmovddup	%ymm1, %ymm0                    # ymm0 = ymm1[0,0,2,2]
.Ltmp74:
	#DEBUG_VALUE: main:temp8 <- $ymm0
	vpermilpd	$15, %ymm1, %ymm1       # ymm1 = ymm1[1,1,3,3]
.Ltmp75:
	#DEBUG_VALUE: main:temp3 <- $ymm1
	vmovapd	(%r11), %ymm3
.Ltmp76:
	#DEBUG_VALUE: main:temp4 <- $ymm3
	vpermilpd	$5, %ymm3, %ymm5        # ymm5 = ymm3[1,0,3,2]
.Ltmp77:
	#DEBUG_VALUE: main:temp9 <- $ymm5
	.loc	0 0 5 is_stmt 0                 # avx_complex_vec_align_load.c:0:5
	movq	32(%rsp), %rax                  # 8-byte Reload
.Ltmp78:
	#DEBUG_VALUE: main:psi2 <- $rax
	.loc	0 185 5                         # avx_complex_vec_align_load.c:185:5
	vmovapd	(%rax), %ymm2
.Ltmp79:
	#DEBUG_VALUE: main:temp5 <- $ymm2
	vpermilpd	$5, %ymm2, %ymm4        # ymm4 = ymm2[1,0,3,2]
.Ltmp80:
	#DEBUG_VALUE: main:temp10 <- $ymm4
	vmulpd	%ymm5, %ymm10, %ymm6
.Ltmp81:
	#DEBUG_VALUE: main:temp12 <- $ymm6
	vfmaddsub231pd	%ymm3, %ymm8, %ymm6     # ymm6 = (ymm8 * ymm3) +/- ymm6
.Ltmp82:
	#DEBUG_VALUE: main:temp11 <- $ymm6
	vmulpd	%ymm5, %ymm11, %ymm7
.Ltmp83:
	#DEBUG_VALUE: main:temp13 <- $ymm7
	vfmaddsub231pd	%ymm3, %ymm9, %ymm7     # ymm7 = (ymm9 * ymm3) +/- ymm7
.Ltmp84:
	#DEBUG_VALUE: main:temp12 <- $ymm7
	vinsertf128	$1, %xmm7, %ymm6, %ymm12
.Ltmp85:
	#DEBUG_VALUE: main:temp13 <- $ymm12
	#DEBUG_VALUE: main:temp11 <- undef
	vperm2f128	$49, %ymm7, %ymm6, %ymm6 # ymm6 = ymm6[2,3],ymm7[2,3]
.Ltmp86:
	#DEBUG_VALUE: main:temp11 <- $ymm6
	vaddpd	%ymm6, %ymm12, %ymm6
.Ltmp87:
	#DEBUG_VALUE: main:temp11 <- $ymm6
	vmovupd	16(%r10), %ymm7
.Ltmp88:
	#DEBUG_VALUE: main:temp12 <- $ymm7
	#DEBUG_VALUE: main:temp12 <- undef
	#DEBUG_VALUE: main:temp13 <- undef
	vperm2f128	$49, 64(%r10), %ymm7, %ymm12 # ymm12 = ymm7[2,3],mem[2,3]
.Ltmp89:
	#DEBUG_VALUE: main:temp12 <- $ymm12
	vmovupd	16(%r11), %ymm7
.Ltmp90:
	#DEBUG_VALUE: main:temp13 <- $ymm7
	#DEBUG_VALUE: main:temp16 <- undef
	vpermpd	$238, %ymm7, %ymm13             # ymm13 = ymm7[2,3,2,3]
.Ltmp91:
	#DEBUG_VALUE: main:temp13 <- $ymm13
	vmovddup	%ymm12, %ymm14                  # ymm14 = ymm12[0,0,2,2]
.Ltmp92:
	#DEBUG_VALUE: main:temp15 <- $ymm14
	vpermilpd	$15, %ymm12, %ymm12     # ymm12 = ymm12[1,1,3,3]
.Ltmp93:
	#DEBUG_VALUE: main:temp12 <- $ymm12
	vpermpd	$187, %ymm7, %ymm15             # ymm15 = ymm7[3,2,3,2]
.Ltmp94:
	#DEBUG_VALUE: main:temp14 <- $ymm15
	vmulpd	%ymm15, %ymm12, %ymm15
.Ltmp95:
	#DEBUG_VALUE: main:temp14 <- $ymm15
	vfmaddsub231pd	%ymm13, %ymm14, %ymm15  # ymm15 = (ymm14 * ymm13) +/- ymm15
.Ltmp96:
	#DEBUG_VALUE: main:temp13 <- $ymm15
	vaddpd	%ymm6, %ymm15, %ymm6
.Ltmp97:
	#DEBUG_VALUE: main:temp11 <- $ymm6
	vmulpd	%ymm4, %ymm10, %ymm10
.Ltmp98:
	#DEBUG_VALUE: main:temp1 <- $ymm10
	vfmaddsub231pd	%ymm8, %ymm2, %ymm10    # ymm10 = (ymm2 * ymm8) +/- ymm10
.Ltmp99:
	#DEBUG_VALUE: main:temp1 <- $ymm10
	vmulpd	%ymm4, %ymm11, %ymm8
.Ltmp100:
	#DEBUG_VALUE: main:temp2 <- $ymm8
	vfmaddsub231pd	%ymm9, %ymm2, %ymm8     # ymm8 = (ymm2 * ymm9) +/- ymm8
.Ltmp101:
	#DEBUG_VALUE: main:temp7 <- $ymm8
	vinsertf128	$1, %xmm8, %ymm10, %ymm9
.Ltmp102:
	#DEBUG_VALUE: main:temp13 <- $ymm9
	#DEBUG_VALUE: main:temp1 <- undef
	vperm2f128	$49, %ymm8, %ymm10, %ymm8 # ymm8 = ymm10[2,3],ymm8[2,3]
.Ltmp103:
	#DEBUG_VALUE: main:temp1 <- $ymm8
	vaddpd	%ymm8, %ymm9, %ymm8
.Ltmp104:
	#DEBUG_VALUE: main:temp1 <- $ymm8
	vmovupd	16(%rax), %ymm9
.Ltmp105:
	#DEBUG_VALUE: main:temp13 <- $ymm9
	#DEBUG_VALUE: main:temp14 <- undef
	vpermpd	$238, %ymm9, %ymm10             # ymm10 = ymm9[2,3,2,3]
.Ltmp106:
	#DEBUG_VALUE: main:temp14 <- $ymm10
	vpermpd	$187, %ymm9, %ymm11             # ymm11 = ymm9[3,2,3,2]
.Ltmp107:
	#DEBUG_VALUE: main:temp17 <- $ymm11
	vmulpd	%ymm11, %ymm12, %ymm11
.Ltmp108:
	#DEBUG_VALUE: main:temp12 <- $ymm11
	vfmaddsub231pd	%ymm10, %ymm14, %ymm11  # ymm11 = (ymm14 * ymm10) +/- ymm11
.Ltmp109:
	#DEBUG_VALUE: main:temp12 <- $ymm11
	vaddpd	%ymm11, %ymm8, %ymm8
.Ltmp110:
	#DEBUG_VALUE: main:temp1 <- $ymm8
	vmulpd	%ymm5, %ymm1, %ymm5
.Ltmp111:
	#DEBUG_VALUE: main:temp12 <- $ymm5
	vfmaddsub231pd	%ymm3, %ymm0, %ymm5     # ymm5 = (ymm0 * ymm3) +/- ymm5
.Ltmp112:
	#DEBUG_VALUE: main:temp4 <- $ymm5
	vmulpd	%ymm4, %ymm1, %ymm1
.Ltmp113:
	#DEBUG_VALUE: main:temp3 <- $ymm1
	vfmaddsub231pd	%ymm2, %ymm0, %ymm1     # ymm1 = (ymm0 * ymm2) +/- ymm1
.Ltmp114:
	#DEBUG_VALUE: main:temp3 <- $ymm1
	vinsertf128	$1, %xmm1, %ymm5, %ymm0
.Ltmp115:
	#DEBUG_VALUE: main:temp5 <- $ymm0
	#DEBUG_VALUE: main:temp4 <- undef
	vperm2f128	$49, %ymm1, %ymm5, %ymm1 # ymm1 = ymm5[2,3],ymm1[2,3]
.Ltmp116:
	#DEBUG_VALUE: main:temp3 <- $ymm1
	vaddpd	%ymm1, %ymm0, %ymm0
.Ltmp117:
	#DEBUG_VALUE: main:temp3 <- $ymm0
	#DEBUG_VALUE: main:temp10 <- undef
	#DEBUG_VALUE: main:temp9 <- undef
	vbroadcastsd	128(%r10), %ymm1
.Ltmp118:
	#DEBUG_VALUE: main:temp10 <- $ymm1
	vbroadcastsd	136(%r10), %ymm2
.Ltmp119:
	#DEBUG_VALUE: main:temp12 <- $ymm2
	vperm2f128	$49, %ymm9, %ymm7, %ymm3 # ymm3 = ymm7[2,3],ymm9[2,3]
.Ltmp120:
	#DEBUG_VALUE: main:temp9 <- $ymm3
	vpermilpd	$5, %ymm3, %ymm4        # ymm4 = ymm3[1,0,3,2]
.Ltmp121:
	#DEBUG_VALUE: main:temp13 <- $ymm4
	vmulpd	%ymm2, %ymm4, %ymm2
.Ltmp122:
	#DEBUG_VALUE: main:temp2 <- $ymm2
	vfmaddsub231pd	%ymm1, %ymm3, %ymm2     # ymm2 = (ymm3 * ymm1) +/- ymm2
.Ltmp123:
	#DEBUG_VALUE: main:temp7 <- $ymm2
	vaddpd	%ymm2, %ymm0, %ymm0
.Ltmp124:
	#DEBUG_VALUE: main:temp2 <- $ymm0
	#DEBUG_VALUE: main:chi_3rd <- $xmm0
	#DEBUG_VALUE: main:chi2_3rd <- undef
	movq	%r8, %rax
.Ltmp125:
	#DEBUG_VALUE: main:psi2 <- [DW_OP_plus_uconst 32] [$rsp+0]
	shlq	$4, %rax
	leaq	(%rax,%rax,2), %rax
	vmovupd	%ymm6, (%r15,%rax)
	vmovapd	%xmm0, 32(%r15,%rax)
	vmovupd	%ymm8, (%r12,%rax)
	vextractf128	$1, %ymm0, 32(%r12,%rax)
.Ltmp126:
	.loc	0 172 17 is_stmt 1              # avx_complex_vec_align_load.c:172:17
	incq	%r8
.Ltmp127:
	#DEBUG_VALUE: main:i <- $r8
	.loc	0 172 1 is_stmt 0               # avx_complex_vec_align_load.c:172:1
	addq	$48, %r9
	addq	$48, %rcx
	addq	$48, %rdx
	addq	$48, %rsi
	addq	$144, %rdi
	addq	$144, %rbx
.Ltmp128:
	.loc	0 172 11                        # avx_complex_vec_align_load.c:172:11
	cmpq	$100000000, %r8                 # imm = 0x5F5E100
.Ltmp129:
	.loc	0 172 1                         # avx_complex_vec_align_load.c:172:1
	jne	.LBB0_9
.Ltmp130:
# %bb.14:
	#DEBUG_VALUE: main:n <- 5
	#DEBUG_VALUE: main:res1 <- 0.000000e+00
	#DEBUG_VALUE: main:res2 <- 0.000000e+00
	#DEBUG_VALUE: main:res3 <- 0.000000e+00
	#DEBUG_VALUE: main:res4 <- 0.000000e+00
	#DEBUG_VALUE: main:res5 <- 0.000000e+00
	#DEBUG_VALUE: main:res6 <- 0.000000e+00
	#DEBUG_VALUE: main:res7 <- 0.000000e+00
	#DEBUG_VALUE: main:res8 <- 0.000000e+00
	#DEBUG_VALUE: main:res9 <- 0.000000e+00
	#DEBUG_VALUE: main:res10 <- 0.000000e+00
	#DEBUG_VALUE: main:res11 <- 0.000000e+00
	#DEBUG_VALUE: main:res12 <- 0.000000e+00
	#DEBUG_VALUE: main:in <- 100000000
	#DEBUG_VALUE: main:n_times <- 0
	#DEBUG_VALUE: main:n_warmup <- 0
	#DEBUG_VALUE: main:up <- $r10
	#DEBUG_VALUE: main:v3 <- [DW_OP_plus_uconst 128] [$rsp+0]
	#DEBUG_VALUE: main:v1 <- [DW_OP_plus_uconst 120] [$rsp+0]
	#DEBUG_VALUE: main:v2 <- [DW_OP_plus_uconst 112] [$rsp+0]
	#DEBUG_VALUE: main:psi <- $r11
	#DEBUG_VALUE: main:psi2 <- [DW_OP_plus_uconst 32] [$rsp+0]
	#DEBUG_VALUE: main:chi <- $r15
	#DEBUG_VALUE: main:chi2 <- $r12
	#DEBUG_VALUE: main:chi3 <- [DW_OP_plus_uconst 184] [$rsp+0]
	#DEBUG_VALUE: main:chi4 <- [DW_OP_plus_uconst 176] [$rsp+0]
	#DEBUG_VALUE: main:chi5 <- [DW_OP_plus_uconst 72] [$rsp+0]
	#DEBUG_VALUE: main:chi6 <- [DW_OP_plus_uconst 64] [$rsp+0]
	#DEBUG_VALUE: main:i <- $r8
	#DEBUG_VALUE: main:temp1 <- $ymm8
	#DEBUG_VALUE: main:temp2 <- $ymm0
	#DEBUG_VALUE: main:temp7 <- $ymm2
	#DEBUG_VALUE: main:temp9 <- $ymm3
	#DEBUG_VALUE: main:temp10 <- $ymm1
	#DEBUG_VALUE: main:temp11 <- $ymm6
	#DEBUG_VALUE: main:temp13 <- $ymm4
	#DEBUG_VALUE: main:temp15 <- $ymm14
	#DEBUG_VALUE: main:temp14 <- $ymm10
	#DEBUG_VALUE: main:chi_3rd <- $xmm0
	.loc	0 0 1                           # avx_complex_vec_align_load.c:0:1
	xorl	%r14d, %r14d
	leaq	192(%rsp), %rdi
	.loc	0 190 3 is_stmt 1               # avx_complex_vec_align_load.c:190:3
	xorl	%esi, %esi
	vzeroupper
.Ltmp131:
	callq	gettimeofday
.Ltmp132:
	#DEBUG_VALUE: main:up <- [DW_OP_plus_uconst 48] [$rsp+0]
	#DEBUG_VALUE: main:psi <- [DW_OP_plus_uconst 40] [$rsp+0]
	.loc	0 192 9                         # avx_complex_vec_align_load.c:192:9
	callq	omp_get_wtime
.Ltmp133:
	.loc	0 0 9 is_stmt 0                 # avx_complex_vec_align_load.c:0:9
	vmovsd	%xmm0, 104(%rsp)                # 8-byte Spill
.Ltmp134:
	#DEBUG_VALUE: main:wt1 <- [DW_OP_plus_uconst 104] [$rsp+0]
	.loc	0 194 6 is_stmt 1               # avx_complex_vec_align_load.c:194:6
	callq	clock
.Ltmp135:
	.loc	0 0 6 is_stmt 0                 # avx_complex_vec_align_load.c:0:6
	movq	40(%rsp), %r10                  # 8-byte Reload
.Ltmp136:
	#DEBUG_VALUE: main:psi <- $r10
	movq	48(%rsp), %r9                   # 8-byte Reload
.Ltmp137:
	#DEBUG_VALUE: main:up <- $r9
	.loc	0 194 6                         # avx_complex_vec_align_load.c:194:6
	movq	%rax, %r13
.Ltmp138:
	#DEBUG_VALUE: main:t1 <- $r13
	#DEBUG_VALUE: main:i <- 0
	.loc	0 0 6                           # avx_complex_vec_align_load.c:0:6
	movq	120(%rsp), %rax                 # 8-byte Reload
.Ltmp139:
	#DEBUG_VALUE: main:v1 <- $rax
	.loc	0 196 1 is_stmt 1               # avx_complex_vec_align_load.c:196:1
	leaq	8(%rax), %r8
	leaq	8(%r10), %rcx
	movq	112(%rsp), %rax                 # 8-byte Reload
.Ltmp140:
	#DEBUG_VALUE: main:v2 <- $rax
	leaq	8(%rax), %rdx
	movq	32(%rsp), %r11                  # 8-byte Reload
.Ltmp141:
	#DEBUG_VALUE: main:psi2 <- $r11
	leaq	8(%r11), %rsi
	movq	128(%rsp), %rax                 # 8-byte Reload
.Ltmp142:
	#DEBUG_VALUE: main:v3 <- $rax
	leaq	8(%rax), %rdi
	leaq	8(%r9), %rbx
.Ltmp143:
	.p2align	4, 0x90
.LBB0_15:                               # =>This Loop Header: Depth=1
                                        #     Child Loop BB0_16 Depth 2
                                        #     Child Loop BB0_18 Depth 2
	#DEBUG_VALUE: main:n <- 5
	#DEBUG_VALUE: main:res1 <- 0.000000e+00
	#DEBUG_VALUE: main:res2 <- 0.000000e+00
	#DEBUG_VALUE: main:res3 <- 0.000000e+00
	#DEBUG_VALUE: main:res4 <- 0.000000e+00
	#DEBUG_VALUE: main:res5 <- 0.000000e+00
	#DEBUG_VALUE: main:res6 <- 0.000000e+00
	#DEBUG_VALUE: main:res7 <- 0.000000e+00
	#DEBUG_VALUE: main:res8 <- 0.000000e+00
	#DEBUG_VALUE: main:res9 <- 0.000000e+00
	#DEBUG_VALUE: main:res10 <- 0.000000e+00
	#DEBUG_VALUE: main:res11 <- 0.000000e+00
	#DEBUG_VALUE: main:res12 <- 0.000000e+00
	#DEBUG_VALUE: main:in <- 100000000
	#DEBUG_VALUE: main:n_times <- 0
	#DEBUG_VALUE: main:n_warmup <- 0
	#DEBUG_VALUE: main:up <- [DW_OP_plus_uconst 48] [$rsp+0]
	#DEBUG_VALUE: main:v3 <- [DW_OP_plus_uconst 128] [$rsp+0]
	#DEBUG_VALUE: main:v1 <- [DW_OP_plus_uconst 120] [$rsp+0]
	#DEBUG_VALUE: main:v2 <- [DW_OP_plus_uconst 112] [$rsp+0]
	#DEBUG_VALUE: main:psi <- [DW_OP_plus_uconst 40] [$rsp+0]
	#DEBUG_VALUE: main:psi2 <- [DW_OP_plus_uconst 32] [$rsp+0]
	#DEBUG_VALUE: main:chi <- $r15
	#DEBUG_VALUE: main:chi2 <- $r12
	#DEBUG_VALUE: main:chi3 <- [DW_OP_plus_uconst 184] [$rsp+0]
	#DEBUG_VALUE: main:chi4 <- [DW_OP_plus_uconst 176] [$rsp+0]
	#DEBUG_VALUE: main:chi5 <- [DW_OP_plus_uconst 72] [$rsp+0]
	#DEBUG_VALUE: main:chi6 <- [DW_OP_plus_uconst 64] [$rsp+0]
	#DEBUG_VALUE: main:wt1 <- [DW_OP_plus_uconst 104] [$rsp+0]
	#DEBUG_VALUE: main:t1 <- $r13
	#DEBUG_VALUE: main:i <- $r14
	#DEBUG_VALUE: main:j <- 0
	.loc	0 0 1 is_stmt 0                 # avx_complex_vec_align_load.c:0:1
	xorl	%eax, %eax
.Ltmp144:
	.p2align	4, 0x90
.LBB0_16:                               #   Parent Loop BB0_15 Depth=1
                                        # =>  This Inner Loop Header: Depth=2
	#DEBUG_VALUE: main:n <- 5
	#DEBUG_VALUE: main:res1 <- 0.000000e+00
	#DEBUG_VALUE: main:res2 <- 0.000000e+00
	#DEBUG_VALUE: main:res3 <- 0.000000e+00
	#DEBUG_VALUE: main:res4 <- 0.000000e+00
	#DEBUG_VALUE: main:res5 <- 0.000000e+00
	#DEBUG_VALUE: main:res6 <- 0.000000e+00
	#DEBUG_VALUE: main:res7 <- 0.000000e+00
	#DEBUG_VALUE: main:res8 <- 0.000000e+00
	#DEBUG_VALUE: main:res9 <- 0.000000e+00
	#DEBUG_VALUE: main:res10 <- 0.000000e+00
	#DEBUG_VALUE: main:res11 <- 0.000000e+00
	#DEBUG_VALUE: main:res12 <- 0.000000e+00
	#DEBUG_VALUE: main:in <- 100000000
	#DEBUG_VALUE: main:n_times <- 0
	#DEBUG_VALUE: main:n_warmup <- 0
	#DEBUG_VALUE: main:up <- [DW_OP_plus_uconst 48] [$rsp+0]
	#DEBUG_VALUE: main:v3 <- [DW_OP_plus_uconst 128] [$rsp+0]
	#DEBUG_VALUE: main:v1 <- [DW_OP_plus_uconst 120] [$rsp+0]
	#DEBUG_VALUE: main:v2 <- [DW_OP_plus_uconst 112] [$rsp+0]
	#DEBUG_VALUE: main:psi <- [DW_OP_plus_uconst 40] [$rsp+0]
	#DEBUG_VALUE: main:psi2 <- [DW_OP_plus_uconst 32] [$rsp+0]
	#DEBUG_VALUE: main:chi <- $r15
	#DEBUG_VALUE: main:chi2 <- $r12
	#DEBUG_VALUE: main:chi3 <- [DW_OP_plus_uconst 184] [$rsp+0]
	#DEBUG_VALUE: main:chi4 <- [DW_OP_plus_uconst 176] [$rsp+0]
	#DEBUG_VALUE: main:chi5 <- [DW_OP_plus_uconst 72] [$rsp+0]
	#DEBUG_VALUE: main:chi6 <- [DW_OP_plus_uconst 64] [$rsp+0]
	#DEBUG_VALUE: main:i <- $r14
	#DEBUG_VALUE: main:wt1 <- [DW_OP_plus_uconst 104] [$rsp+0]
	#DEBUG_VALUE: main:t1 <- $r13
	#DEBUG_VALUE: main:j <- [DW_OP_LLVM_arg 0, DW_OP_consts 8, DW_OP_LLVM_arg 1, DW_OP_plus_uconst 120, DW_OP_deref, DW_OP_plus, DW_OP_minus, DW_OP_consts 48, DW_OP_div, DW_OP_stack_value] $r8, $rsp
	.loc	0 200 23 is_stmt 1              # avx_complex_vec_align_load.c:200:23
	vmovups	-8(%r8,%rax), %xmm0
	.loc	0 200 21 is_stmt 0              # avx_complex_vec_align_load.c:200:21
	vmovups	%xmm0, -8(%rcx,%rax)
	.loc	0 201 24 is_stmt 1              # avx_complex_vec_align_load.c:201:24
	vmovupd	-8(%rdx,%rax), %xmm0
	.loc	0 201 22 is_stmt 0              # avx_complex_vec_align_load.c:201:22
	vmovupd	%xmm0, -8(%rsi,%rax)
.Ltmp145:
	#DEBUG_VALUE: main:j <- [DW_OP_LLVM_arg 0, DW_OP_consts 8, DW_OP_LLVM_arg 1, DW_OP_plus_uconst 120, DW_OP_deref, DW_OP_plus, DW_OP_minus, DW_OP_consts 48, DW_OP_div, DW_OP_consts 1, DW_OP_plus, DW_OP_stack_value] $r8, $rsp
	.loc	0 198 15 is_stmt 1              # avx_complex_vec_align_load.c:198:15
	addq	$16, %rax
	cmpq	$48, %rax
.Ltmp146:
	.loc	0 198 5 is_stmt 0               # avx_complex_vec_align_load.c:198:5
	jne	.LBB0_16
.Ltmp147:
# %bb.17:                               #   in Loop: Header=BB0_15 Depth=1
	#DEBUG_VALUE: main:n <- 5
	#DEBUG_VALUE: main:res1 <- 0.000000e+00
	#DEBUG_VALUE: main:res2 <- 0.000000e+00
	#DEBUG_VALUE: main:res3 <- 0.000000e+00
	#DEBUG_VALUE: main:res4 <- 0.000000e+00
	#DEBUG_VALUE: main:res5 <- 0.000000e+00
	#DEBUG_VALUE: main:res6 <- 0.000000e+00
	#DEBUG_VALUE: main:res7 <- 0.000000e+00
	#DEBUG_VALUE: main:res8 <- 0.000000e+00
	#DEBUG_VALUE: main:res9 <- 0.000000e+00
	#DEBUG_VALUE: main:res10 <- 0.000000e+00
	#DEBUG_VALUE: main:res11 <- 0.000000e+00
	#DEBUG_VALUE: main:res12 <- 0.000000e+00
	#DEBUG_VALUE: main:in <- 100000000
	#DEBUG_VALUE: main:n_times <- 0
	#DEBUG_VALUE: main:n_warmup <- 0
	#DEBUG_VALUE: main:up <- [DW_OP_plus_uconst 48] [$rsp+0]
	#DEBUG_VALUE: main:v3 <- [DW_OP_plus_uconst 128] [$rsp+0]
	#DEBUG_VALUE: main:v1 <- [DW_OP_plus_uconst 120] [$rsp+0]
	#DEBUG_VALUE: main:v2 <- [DW_OP_plus_uconst 112] [$rsp+0]
	#DEBUG_VALUE: main:psi <- [DW_OP_plus_uconst 40] [$rsp+0]
	#DEBUG_VALUE: main:psi2 <- [DW_OP_plus_uconst 32] [$rsp+0]
	#DEBUG_VALUE: main:chi <- $r15
	#DEBUG_VALUE: main:chi2 <- $r12
	#DEBUG_VALUE: main:chi3 <- [DW_OP_plus_uconst 184] [$rsp+0]
	#DEBUG_VALUE: main:chi4 <- [DW_OP_plus_uconst 176] [$rsp+0]
	#DEBUG_VALUE: main:chi5 <- [DW_OP_plus_uconst 72] [$rsp+0]
	#DEBUG_VALUE: main:chi6 <- [DW_OP_plus_uconst 64] [$rsp+0]
	#DEBUG_VALUE: main:i <- $r14
	#DEBUG_VALUE: main:wt1 <- [DW_OP_plus_uconst 104] [$rsp+0]
	#DEBUG_VALUE: main:t1 <- $r13
	.loc	0 0 5                           # avx_complex_vec_align_load.c:0:5
	xorl	%eax, %eax
.Ltmp148:
	.p2align	4, 0x90
.LBB0_18:                               #   Parent Loop BB0_15 Depth=1
                                        # =>  This Inner Loop Header: Depth=2
	#DEBUG_VALUE: main:n <- 5
	#DEBUG_VALUE: main:res1 <- 0.000000e+00
	#DEBUG_VALUE: main:res2 <- 0.000000e+00
	#DEBUG_VALUE: main:res3 <- 0.000000e+00
	#DEBUG_VALUE: main:res4 <- 0.000000e+00
	#DEBUG_VALUE: main:res5 <- 0.000000e+00
	#DEBUG_VALUE: main:res6 <- 0.000000e+00
	#DEBUG_VALUE: main:res7 <- 0.000000e+00
	#DEBUG_VALUE: main:res8 <- 0.000000e+00
	#DEBUG_VALUE: main:res9 <- 0.000000e+00
	#DEBUG_VALUE: main:res10 <- 0.000000e+00
	#DEBUG_VALUE: main:res11 <- 0.000000e+00
	#DEBUG_VALUE: main:res12 <- 0.000000e+00
	#DEBUG_VALUE: main:in <- 100000000
	#DEBUG_VALUE: main:n_times <- 0
	#DEBUG_VALUE: main:n_warmup <- 0
	#DEBUG_VALUE: main:up <- [DW_OP_plus_uconst 48] [$rsp+0]
	#DEBUG_VALUE: main:v3 <- [DW_OP_plus_uconst 128] [$rsp+0]
	#DEBUG_VALUE: main:v1 <- [DW_OP_plus_uconst 120] [$rsp+0]
	#DEBUG_VALUE: main:v2 <- [DW_OP_plus_uconst 112] [$rsp+0]
	#DEBUG_VALUE: main:psi <- [DW_OP_plus_uconst 40] [$rsp+0]
	#DEBUG_VALUE: main:psi2 <- [DW_OP_plus_uconst 32] [$rsp+0]
	#DEBUG_VALUE: main:chi <- $r15
	#DEBUG_VALUE: main:chi2 <- $r12
	#DEBUG_VALUE: main:chi3 <- [DW_OP_plus_uconst 184] [$rsp+0]
	#DEBUG_VALUE: main:chi4 <- [DW_OP_plus_uconst 176] [$rsp+0]
	#DEBUG_VALUE: main:chi5 <- [DW_OP_plus_uconst 72] [$rsp+0]
	#DEBUG_VALUE: main:chi6 <- [DW_OP_plus_uconst 64] [$rsp+0]
	#DEBUG_VALUE: main:i <- $r14
	#DEBUG_VALUE: main:wt1 <- [DW_OP_plus_uconst 104] [$rsp+0]
	#DEBUG_VALUE: main:t1 <- $r13
	#DEBUG_VALUE: main:j <- [DW_OP_LLVM_arg 0, DW_OP_consts 8, DW_OP_LLVM_arg 1, DW_OP_plus_uconst 128, DW_OP_deref, DW_OP_plus, DW_OP_minus, DW_OP_consts 144, DW_OP_div, DW_OP_stack_value] $rdi, $rsp
	.loc	0 206 22 is_stmt 1              # avx_complex_vec_align_load.c:206:22
	vmovupd	-8(%rdi,%rax), %xmm0
	.loc	0 206 20 is_stmt 0              # avx_complex_vec_align_load.c:206:20
	vmovupd	%xmm0, -8(%rbx,%rax)
.Ltmp149:
	#DEBUG_VALUE: main:j <- [DW_OP_LLVM_arg 0, DW_OP_consts 8, DW_OP_LLVM_arg 1, DW_OP_plus_uconst 128, DW_OP_deref, DW_OP_plus, DW_OP_minus, DW_OP_consts 144, DW_OP_div, DW_OP_consts 1, DW_OP_plus, DW_OP_stack_value] $rdi, $rsp
	.loc	0 204 15 is_stmt 1              # avx_complex_vec_align_load.c:204:15
	addq	$16, %rax
	cmpq	$144, %rax
.Ltmp150:
	.loc	0 204 5 is_stmt 0               # avx_complex_vec_align_load.c:204:5
	jne	.LBB0_18
.Ltmp151:
# %bb.19:                               #   in Loop: Header=BB0_15 Depth=1
	#DEBUG_VALUE: main:n <- 5
	#DEBUG_VALUE: main:res1 <- 0.000000e+00
	#DEBUG_VALUE: main:res2 <- 0.000000e+00
	#DEBUG_VALUE: main:res3 <- 0.000000e+00
	#DEBUG_VALUE: main:res4 <- 0.000000e+00
	#DEBUG_VALUE: main:res5 <- 0.000000e+00
	#DEBUG_VALUE: main:res6 <- 0.000000e+00
	#DEBUG_VALUE: main:res7 <- 0.000000e+00
	#DEBUG_VALUE: main:res8 <- 0.000000e+00
	#DEBUG_VALUE: main:res9 <- 0.000000e+00
	#DEBUG_VALUE: main:res10 <- 0.000000e+00
	#DEBUG_VALUE: main:res11 <- 0.000000e+00
	#DEBUG_VALUE: main:res12 <- 0.000000e+00
	#DEBUG_VALUE: main:in <- 100000000
	#DEBUG_VALUE: main:n_times <- 0
	#DEBUG_VALUE: main:n_warmup <- 0
	#DEBUG_VALUE: main:up <- [DW_OP_plus_uconst 48] [$rsp+0]
	#DEBUG_VALUE: main:v3 <- [DW_OP_plus_uconst 128] [$rsp+0]
	#DEBUG_VALUE: main:v1 <- [DW_OP_plus_uconst 120] [$rsp+0]
	#DEBUG_VALUE: main:v2 <- [DW_OP_plus_uconst 112] [$rsp+0]
	#DEBUG_VALUE: main:psi <- [DW_OP_plus_uconst 40] [$rsp+0]
	#DEBUG_VALUE: main:psi2 <- [DW_OP_plus_uconst 32] [$rsp+0]
	#DEBUG_VALUE: main:chi <- $r15
	#DEBUG_VALUE: main:chi2 <- $r12
	#DEBUG_VALUE: main:chi3 <- [DW_OP_plus_uconst 184] [$rsp+0]
	#DEBUG_VALUE: main:chi4 <- [DW_OP_plus_uconst 176] [$rsp+0]
	#DEBUG_VALUE: main:chi5 <- [DW_OP_plus_uconst 72] [$rsp+0]
	#DEBUG_VALUE: main:chi6 <- [DW_OP_plus_uconst 64] [$rsp+0]
	#DEBUG_VALUE: main:i <- $r14
	#DEBUG_VALUE: main:wt1 <- [DW_OP_plus_uconst 104] [$rsp+0]
	#DEBUG_VALUE: main:t1 <- $r13
	.loc	0 209 5 is_stmt 1               # avx_complex_vec_align_load.c:209:5
	#APP
	# LLVM-MCA-BEGIN double_MVM_macro
	#NO_APP
.Ltmp152:
	.loc	0 210 9                         # avx_complex_vec_align_load.c:210:9
	vmovapd	(%r9), %ymm0
.Ltmp153:
	#DEBUG_VALUE: main:temp1 <- $ymm0
	vmovddup	%ymm0, %ymm8                    # ymm8 = ymm0[0,0,2,2]
.Ltmp154:
	#DEBUG_VALUE: main:temp6 <- $ymm8
	vpermilpd	$15, %ymm0, %ymm10      # ymm10 = ymm0[1,1,3,3]
.Ltmp155:
	#DEBUG_VALUE: main:temp1 <- $ymm10
	vmovupd	48(%r9), %ymm0
.Ltmp156:
	#DEBUG_VALUE: main:temp2 <- $ymm0
	vmovddup	%ymm0, %ymm9                    # ymm9 = ymm0[0,0,2,2]
.Ltmp157:
	#DEBUG_VALUE: main:temp7 <- $ymm9
	vpermilpd	$15, %ymm0, %ymm11      # ymm11 = ymm0[1,1,3,3]
.Ltmp158:
	#DEBUG_VALUE: main:temp2 <- $ymm11
	vmovapd	96(%r9), %ymm1
.Ltmp159:
	#DEBUG_VALUE: main:temp3 <- $ymm1
	vmovddup	%ymm1, %ymm0                    # ymm0 = ymm1[0,0,2,2]
.Ltmp160:
	#DEBUG_VALUE: main:temp8 <- $ymm0
	vpermilpd	$15, %ymm1, %ymm1       # ymm1 = ymm1[1,1,3,3]
.Ltmp161:
	#DEBUG_VALUE: main:temp3 <- $ymm1
	vmovapd	(%r10), %ymm3
.Ltmp162:
	#DEBUG_VALUE: main:temp4 <- $ymm3
	vpermilpd	$5, %ymm3, %ymm5        # ymm5 = ymm3[1,0,3,2]
.Ltmp163:
	#DEBUG_VALUE: main:temp9 <- $ymm5
	vmovapd	(%r11), %ymm2
.Ltmp164:
	#DEBUG_VALUE: main:temp5 <- $ymm2
	vpermilpd	$5, %ymm2, %ymm4        # ymm4 = ymm2[1,0,3,2]
.Ltmp165:
	#DEBUG_VALUE: main:temp10 <- $ymm4
	vmulpd	%ymm5, %ymm10, %ymm6
.Ltmp166:
	#DEBUG_VALUE: main:temp12 <- $ymm6
	vfmaddsub231pd	%ymm3, %ymm8, %ymm6     # ymm6 = (ymm8 * ymm3) +/- ymm6
.Ltmp167:
	#DEBUG_VALUE: main:temp11 <- $ymm6
	vmulpd	%ymm5, %ymm11, %ymm7
.Ltmp168:
	#DEBUG_VALUE: main:temp13 <- $ymm7
	vfmaddsub231pd	%ymm3, %ymm9, %ymm7     # ymm7 = (ymm9 * ymm3) +/- ymm7
.Ltmp169:
	#DEBUG_VALUE: main:temp12 <- $ymm7
	vinsertf128	$1, %xmm7, %ymm6, %ymm12
.Ltmp170:
	#DEBUG_VALUE: main:temp13 <- $ymm12
	#DEBUG_VALUE: main:temp11 <- undef
	vperm2f128	$49, %ymm7, %ymm6, %ymm6 # ymm6 = ymm6[2,3],ymm7[2,3]
.Ltmp171:
	#DEBUG_VALUE: main:temp11 <- $ymm6
	#DEBUG_VALUE: main:temp11 <- undef
	vmovupd	16(%r9), %ymm7
.Ltmp172:
	#DEBUG_VALUE: main:temp12 <- $ymm7
	#DEBUG_VALUE: main:temp12 <- undef
	#DEBUG_VALUE: main:temp13 <- undef
	vperm2f128	$49, 64(%r9), %ymm7, %ymm13 # ymm13 = ymm7[2,3],mem[2,3]
.Ltmp173:
	#DEBUG_VALUE: main:temp12 <- $ymm13
	vaddpd	%ymm6, %ymm12, %ymm6
.Ltmp174:
	#DEBUG_VALUE: main:temp11 <- $ymm6
	vmovupd	16(%r10), %ymm7
.Ltmp175:
	#DEBUG_VALUE: main:temp13 <- $ymm7
	#DEBUG_VALUE: main:temp16 <- undef
	vpermpd	$238, %ymm7, %ymm12             # ymm12 = ymm7[2,3,2,3]
.Ltmp176:
	#DEBUG_VALUE: main:temp13 <- $ymm12
	vmovddup	%ymm13, %ymm14                  # ymm14 = ymm13[0,0,2,2]
.Ltmp177:
	#DEBUG_VALUE: main:temp15 <- $ymm14
	vpermilpd	$15, %ymm13, %ymm13     # ymm13 = ymm13[1,1,3,3]
.Ltmp178:
	#DEBUG_VALUE: main:temp12 <- $ymm13
	vpermpd	$187, %ymm7, %ymm15             # ymm15 = ymm7[3,2,3,2]
.Ltmp179:
	#DEBUG_VALUE: main:temp14 <- $ymm15
	vmulpd	%ymm15, %ymm13, %ymm15
.Ltmp180:
	#DEBUG_VALUE: main:temp14 <- $ymm15
	vfmaddsub231pd	%ymm12, %ymm14, %ymm15  # ymm15 = (ymm14 * ymm12) +/- ymm15
.Ltmp181:
	#DEBUG_VALUE: main:temp13 <- $ymm15
	vaddpd	%ymm6, %ymm15, %ymm6
.Ltmp182:
	#DEBUG_VALUE: main:temp11 <- $ymm6
	vmulpd	%ymm4, %ymm10, %ymm10
.Ltmp183:
	#DEBUG_VALUE: main:temp1 <- $ymm10
	vfmaddsub231pd	%ymm8, %ymm2, %ymm10    # ymm10 = (ymm2 * ymm8) +/- ymm10
.Ltmp184:
	#DEBUG_VALUE: main:temp1 <- $ymm10
	vmulpd	%ymm4, %ymm11, %ymm8
.Ltmp185:
	#DEBUG_VALUE: main:temp2 <- $ymm8
	vfmaddsub231pd	%ymm9, %ymm2, %ymm8     # ymm8 = (ymm2 * ymm9) +/- ymm8
.Ltmp186:
	#DEBUG_VALUE: main:temp7 <- $ymm8
	vinsertf128	$1, %xmm8, %ymm10, %ymm9
.Ltmp187:
	#DEBUG_VALUE: main:temp13 <- $ymm9
	#DEBUG_VALUE: main:temp1 <- undef
	vperm2f128	$49, %ymm8, %ymm10, %ymm8 # ymm8 = ymm10[2,3],ymm8[2,3]
.Ltmp188:
	#DEBUG_VALUE: main:temp1 <- $ymm8
	vaddpd	%ymm8, %ymm9, %ymm8
.Ltmp189:
	#DEBUG_VALUE: main:temp1 <- $ymm8
	vmovupd	16(%r11), %ymm9
.Ltmp190:
	#DEBUG_VALUE: main:temp13 <- $ymm9
	#DEBUG_VALUE: main:temp14 <- undef
	vpermpd	$238, %ymm9, %ymm10             # ymm10 = ymm9[2,3,2,3]
.Ltmp191:
	#DEBUG_VALUE: main:temp14 <- $ymm10
	vpermpd	$187, %ymm9, %ymm11             # ymm11 = ymm9[3,2,3,2]
.Ltmp192:
	#DEBUG_VALUE: main:temp17 <- $ymm11
	vmulpd	%ymm11, %ymm13, %ymm11
.Ltmp193:
	#DEBUG_VALUE: main:temp12 <- $ymm11
	vfmaddsub231pd	%ymm10, %ymm14, %ymm11  # ymm11 = (ymm14 * ymm10) +/- ymm11
.Ltmp194:
	#DEBUG_VALUE: main:temp12 <- $ymm11
	vaddpd	%ymm11, %ymm8, %ymm8
.Ltmp195:
	#DEBUG_VALUE: main:temp1 <- $ymm8
	vmulpd	%ymm5, %ymm1, %ymm5
.Ltmp196:
	#DEBUG_VALUE: main:temp12 <- $ymm5
	vfmaddsub231pd	%ymm3, %ymm0, %ymm5     # ymm5 = (ymm0 * ymm3) +/- ymm5
.Ltmp197:
	#DEBUG_VALUE: main:temp4 <- $ymm5
	vmulpd	%ymm4, %ymm1, %ymm1
.Ltmp198:
	#DEBUG_VALUE: main:temp3 <- $ymm1
	vfmaddsub231pd	%ymm2, %ymm0, %ymm1     # ymm1 = (ymm0 * ymm2) +/- ymm1
.Ltmp199:
	#DEBUG_VALUE: main:temp3 <- $ymm1
	vinsertf128	$1, %xmm1, %ymm5, %ymm0
.Ltmp200:
	#DEBUG_VALUE: main:temp5 <- $ymm0
	#DEBUG_VALUE: main:temp4 <- undef
	vperm2f128	$49, %ymm1, %ymm5, %ymm1 # ymm1 = ymm5[2,3],ymm1[2,3]
.Ltmp201:
	#DEBUG_VALUE: main:temp3 <- $ymm1
	vaddpd	%ymm1, %ymm0, %ymm0
.Ltmp202:
	#DEBUG_VALUE: main:temp3 <- $ymm0
	#DEBUG_VALUE: main:temp10 <- undef
	#DEBUG_VALUE: main:temp9 <- undef
	vbroadcastsd	128(%r9), %ymm1
.Ltmp203:
	#DEBUG_VALUE: main:temp10 <- $ymm1
	vbroadcastsd	136(%r9), %ymm2
.Ltmp204:
	#DEBUG_VALUE: main:temp12 <- $ymm2
	vperm2f128	$49, %ymm9, %ymm7, %ymm3 # ymm3 = ymm7[2,3],ymm9[2,3]
.Ltmp205:
	#DEBUG_VALUE: main:temp9 <- $ymm3
	vpermilpd	$5, %ymm3, %ymm4        # ymm4 = ymm3[1,0,3,2]
.Ltmp206:
	#DEBUG_VALUE: main:temp13 <- $ymm4
	vmulpd	%ymm2, %ymm4, %ymm2
.Ltmp207:
	#DEBUG_VALUE: main:temp2 <- $ymm2
	vfmaddsub231pd	%ymm1, %ymm3, %ymm2     # ymm2 = (ymm3 * ymm1) +/- ymm2
.Ltmp208:
	#DEBUG_VALUE: main:temp7 <- $ymm2
	vaddpd	%ymm2, %ymm0, %ymm0
.Ltmp209:
	#DEBUG_VALUE: main:temp2 <- $ymm0
	#DEBUG_VALUE: main:chi_3rd <- $xmm0
	#DEBUG_VALUE: main:chi2_3rd <- undef
	movq	%r14, %rax
	shlq	$4, %rax
	leaq	(%rax,%rax,2), %rax
	vmovupd	%ymm6, (%r15,%rax)
	vmovapd	%xmm0, 32(%r15,%rax)
	vmovupd	%ymm8, (%r12,%rax)
	vextractf128	$1, %ymm0, 32(%r12,%rax)
.Ltmp210:
	.loc	0 211 5                         # avx_complex_vec_align_load.c:211:5
	#APP
	# LLVM-MCA-END
	#NO_APP
.Ltmp211:
	.loc	0 196 17                        # avx_complex_vec_align_load.c:196:17
	incq	%r14
.Ltmp212:
	#DEBUG_VALUE: main:i <- $r14
	.loc	0 196 1 is_stmt 0               # avx_complex_vec_align_load.c:196:1
	addq	$48, %r8
	addq	$48, %rcx
	addq	$48, %rdx
	addq	$48, %rsi
	addq	$144, %rdi
	addq	$144, %rbx
.Ltmp213:
	.loc	0 196 11                        # avx_complex_vec_align_load.c:196:11
	cmpq	$100000000, %r14                # imm = 0x5F5E100
.Ltmp214:
	.loc	0 196 1                         # avx_complex_vec_align_load.c:196:1
	jne	.LBB0_15
.Ltmp215:
# %bb.20:
	#DEBUG_VALUE: main:n <- 5
	#DEBUG_VALUE: main:res1 <- 0.000000e+00
	#DEBUG_VALUE: main:res2 <- 0.000000e+00
	#DEBUG_VALUE: main:res3 <- 0.000000e+00
	#DEBUG_VALUE: main:res4 <- 0.000000e+00
	#DEBUG_VALUE: main:res5 <- 0.000000e+00
	#DEBUG_VALUE: main:res6 <- 0.000000e+00
	#DEBUG_VALUE: main:res7 <- 0.000000e+00
	#DEBUG_VALUE: main:res8 <- 0.000000e+00
	#DEBUG_VALUE: main:res9 <- 0.000000e+00
	#DEBUG_VALUE: main:res10 <- 0.000000e+00
	#DEBUG_VALUE: main:res11 <- 0.000000e+00
	#DEBUG_VALUE: main:res12 <- 0.000000e+00
	#DEBUG_VALUE: main:in <- 100000000
	#DEBUG_VALUE: main:n_times <- 0
	#DEBUG_VALUE: main:n_warmup <- 0
	#DEBUG_VALUE: main:up <- [DW_OP_plus_uconst 48] [$rsp+0]
	#DEBUG_VALUE: main:v3 <- [DW_OP_plus_uconst 128] [$rsp+0]
	#DEBUG_VALUE: main:v1 <- [DW_OP_plus_uconst 120] [$rsp+0]
	#DEBUG_VALUE: main:v2 <- [DW_OP_plus_uconst 112] [$rsp+0]
	#DEBUG_VALUE: main:psi <- [DW_OP_plus_uconst 40] [$rsp+0]
	#DEBUG_VALUE: main:psi2 <- [DW_OP_plus_uconst 32] [$rsp+0]
	#DEBUG_VALUE: main:chi <- $r15
	#DEBUG_VALUE: main:chi2 <- $r12
	#DEBUG_VALUE: main:chi3 <- [DW_OP_plus_uconst 184] [$rsp+0]
	#DEBUG_VALUE: main:chi4 <- [DW_OP_plus_uconst 176] [$rsp+0]
	#DEBUG_VALUE: main:chi5 <- [DW_OP_plus_uconst 72] [$rsp+0]
	#DEBUG_VALUE: main:chi6 <- [DW_OP_plus_uconst 64] [$rsp+0]
	#DEBUG_VALUE: main:i <- $r14
	#DEBUG_VALUE: main:temp1 <- $ymm8
	#DEBUG_VALUE: main:temp2 <- $ymm0
	#DEBUG_VALUE: main:temp7 <- $ymm2
	#DEBUG_VALUE: main:temp9 <- $ymm3
	#DEBUG_VALUE: main:temp10 <- $ymm1
	#DEBUG_VALUE: main:temp11 <- $ymm6
	#DEBUG_VALUE: main:temp13 <- $ymm4
	#DEBUG_VALUE: main:temp15 <- $ymm14
	#DEBUG_VALUE: main:temp14 <- $ymm10
	#DEBUG_VALUE: main:chi_3rd <- $xmm0
	#DEBUG_VALUE: main:wt1 <- [DW_OP_plus_uconst 104] [$rsp+0]
	#DEBUG_VALUE: main:t1 <- $r13
	.loc	0 215 4 is_stmt 1               # avx_complex_vec_align_load.c:215:4
	vzeroupper
.Ltmp216:
	callq	clock
.Ltmp217:
	movq	%rax, %rbx
.Ltmp218:
	#DEBUG_VALUE: main:t2 <- $rbx
	.loc	0 217 9                         # avx_complex_vec_align_load.c:217:9
	callq	omp_get_wtime
.Ltmp219:
	.loc	0 0 9 is_stmt 0                 # avx_complex_vec_align_load.c:0:9
	vmovsd	%xmm0, 56(%rsp)                 # 8-byte Spill
.Ltmp220:
	#DEBUG_VALUE: main:wt2 <- [DW_OP_plus_uconst 56] [$rsp+0]
	leaq	208(%rsp), %r14
.Ltmp221:
	.loc	0 219 3 is_stmt 1               # avx_complex_vec_align_load.c:219:3
	movq	%r14, %rdi
	xorl	%esi, %esi
	callq	gettimeofday
.Ltmp222:
	.loc	0 0 3 is_stmt 0                 # avx_complex_vec_align_load.c:0:3
	leaq	160(%rsp), %rdi
	leaq	192(%rsp), %rdx
	.loc	0 220 3 is_stmt 1               # avx_complex_vec_align_load.c:220:3
	movq	%r14, %rsi
	callq	timeval_subtract
.Ltmp223:
	.loc	0 222 80                        # avx_complex_vec_align_load.c:222:80
	subq	%r13, %rbx
.Ltmp224:
	.loc	0 222 77 is_stmt 0              # avx_complex_vec_align_load.c:222:77
	vxorps	%xmm7, %xmm7, %xmm7
	vcvtsi2sd	%rbx, %xmm7, %xmm0
	.loc	0 222 84                        # avx_complex_vec_align_load.c:222:84
	vdivsd	.LCPI0_0(%rip), %xmm0, %xmm0
	.loc	0 222 5                         # avx_complex_vec_align_load.c:222:5
	movl	$.L.str.1, %edi
	movl	$.L.str.2, %edx
	xorl	%esi, %esi
	movb	$1, %al
	callq	lprintf
.Ltmp225:
	.loc	0 0 5                           # avx_complex_vec_align_load.c:0:5
	vmovsd	56(%rsp), %xmm0                 # 8-byte Reload
                                        # xmm0 = mem[0],zero
.Ltmp226:
	#DEBUG_VALUE: main:wt2 <- $xmm0
	.loc	0 224 80 is_stmt 1              # avx_complex_vec_align_load.c:224:80
	vsubsd	104(%rsp), %xmm0, %xmm0         # 8-byte Folded Reload
.Ltmp227:
	#DEBUG_VALUE: main:wt2 <- [DW_OP_plus_uconst 56] [$rsp+0]
	.loc	0 224 5 is_stmt 0               # avx_complex_vec_align_load.c:224:5
	movl	$.L.str.1, %edi
	movl	$.L.str.3, %edx
	xorl	%esi, %esi
	movb	$1, %al
	callq	lprintf
.Ltmp228:
	.loc	0 226 79 is_stmt 1              # avx_complex_vec_align_load.c:226:79
	vxorps	%xmm7, %xmm7, %xmm7
	vcvtsi2sdq	160(%rsp), %xmm7, %xmm1
	.loc	0 226 96 is_stmt 0              # avx_complex_vec_align_load.c:226:96
	vxorps	%xmm7, %xmm7, %xmm7
	vcvtsi2sdq	168(%rsp), %xmm7, %xmm0
	.loc	0 226 94                        # avx_complex_vec_align_load.c:226:94
	vfmadd132sd	.LCPI0_1(%rip), %xmm1, %xmm0 # xmm0 = (xmm0 * mem) + xmm1
	.loc	0 226 5                         # avx_complex_vec_align_load.c:226:5
	movl	$.L.str.1, %edi
	movl	$.L.str.4, %edx
	xorl	%esi, %esi
	movb	$1, %al
	callq	lprintf
.Ltmp229:
	.loc	0 0 5                           # avx_complex_vec_align_load.c:0:5
	xorl	%r9d, %r9d
	movq	32(%rsp), %rsi                  # 8-byte Reload
.Ltmp230:
	#DEBUG_VALUE: main:psi2 <- $rsi
	movq	40(%rsp), %r11                  # 8-byte Reload
.Ltmp231:
	#DEBUG_VALUE: main:psi <- $r11
	movq	48(%rsp), %rcx                  # 8-byte Reload
.Ltmp232:
	#DEBUG_VALUE: main:up <- $rcx
	#DEBUG_VALUE: main:i <- 0
	#DEBUG_VALUE: main:i <- 0
	movq	120(%rsp), %rax                 # 8-byte Reload
.Ltmp233:
	#DEBUG_VALUE: main:v1 <- $rax
	.loc	0 236 3 is_stmt 1               # avx_complex_vec_align_load.c:236:3
	leaq	8(%rax), %rdi
	leaq	8(%r11), %rdx
	movq	112(%rsp), %rax                 # 8-byte Reload
.Ltmp234:
	#DEBUG_VALUE: main:v2 <- $rax
	leaq	8(%rax), %rbx
	leaq	8(%rsi), %r13
.Ltmp235:
	.loc	0 0 3 is_stmt 0                 # avx_complex_vec_align_load.c:0:3
	movq	128(%rsp), %rax                 # 8-byte Reload
.Ltmp236:
	#DEBUG_VALUE: main:v3 <- $rax
	.loc	0 236 3                         # avx_complex_vec_align_load.c:236:3
	leaq	8(%rax), %r12
.Ltmp237:
	#DEBUG_VALUE: main:chi2 <- [DW_OP_plus_uconst 144] [$rsp+0]
	leaq	8(%rcx), %r14
	movq	72(%rsp), %r8                   # 8-byte Reload
.Ltmp238:
	#DEBUG_VALUE: main:chi5 <- $r8
	.loc	0 0 3                           # avx_complex_vec_align_load.c:0:3
	movq	64(%rsp), %r10                  # 8-byte Reload
.Ltmp239:
	#DEBUG_VALUE: main:chi6 <- $r10
	.p2align	4, 0x90
.LBB0_21:                               # =>This Loop Header: Depth=1
                                        #     Child Loop BB0_22 Depth 2
                                        #     Child Loop BB0_24 Depth 2
	#DEBUG_VALUE: main:n <- 5
	#DEBUG_VALUE: main:res1 <- 0.000000e+00
	#DEBUG_VALUE: main:res2 <- 0.000000e+00
	#DEBUG_VALUE: main:res3 <- 0.000000e+00
	#DEBUG_VALUE: main:res4 <- 0.000000e+00
	#DEBUG_VALUE: main:res5 <- 0.000000e+00
	#DEBUG_VALUE: main:res6 <- 0.000000e+00
	#DEBUG_VALUE: main:res7 <- 0.000000e+00
	#DEBUG_VALUE: main:res8 <- 0.000000e+00
	#DEBUG_VALUE: main:res9 <- 0.000000e+00
	#DEBUG_VALUE: main:res10 <- 0.000000e+00
	#DEBUG_VALUE: main:res11 <- 0.000000e+00
	#DEBUG_VALUE: main:res12 <- 0.000000e+00
	#DEBUG_VALUE: main:in <- 100000000
	#DEBUG_VALUE: main:n_times <- 0
	#DEBUG_VALUE: main:n_warmup <- 0
	#DEBUG_VALUE: main:up <- [DW_OP_plus_uconst 48] [$rsp+0]
	#DEBUG_VALUE: main:v3 <- [DW_OP_plus_uconst 128] [$rsp+0]
	#DEBUG_VALUE: main:v1 <- [DW_OP_plus_uconst 120] [$rsp+0]
	#DEBUG_VALUE: main:v2 <- [DW_OP_plus_uconst 112] [$rsp+0]
	#DEBUG_VALUE: main:psi <- [DW_OP_plus_uconst 40] [$rsp+0]
	#DEBUG_VALUE: main:psi2 <- [DW_OP_plus_uconst 32] [$rsp+0]
	#DEBUG_VALUE: main:chi <- [DW_OP_plus_uconst 152] [$rsp+0]
	#DEBUG_VALUE: main:chi2 <- [DW_OP_plus_uconst 144] [$rsp+0]
	#DEBUG_VALUE: main:chi3 <- [DW_OP_plus_uconst 184] [$rsp+0]
	#DEBUG_VALUE: main:chi4 <- [DW_OP_plus_uconst 176] [$rsp+0]
	#DEBUG_VALUE: main:chi5 <- [DW_OP_plus_uconst 72] [$rsp+0]
	#DEBUG_VALUE: main:chi6 <- [DW_OP_plus_uconst 64] [$rsp+0]
	#DEBUG_VALUE: main:i <- $r9
	#DEBUG_VALUE: main:j <- 0
	xorl	%eax, %eax
.Ltmp240:
	.p2align	4, 0x90
.LBB0_22:                               #   Parent Loop BB0_21 Depth=1
                                        # =>  This Inner Loop Header: Depth=2
	#DEBUG_VALUE: main:n <- 5
	#DEBUG_VALUE: main:res1 <- 0.000000e+00
	#DEBUG_VALUE: main:res2 <- 0.000000e+00
	#DEBUG_VALUE: main:res3 <- 0.000000e+00
	#DEBUG_VALUE: main:res4 <- 0.000000e+00
	#DEBUG_VALUE: main:res5 <- 0.000000e+00
	#DEBUG_VALUE: main:res6 <- 0.000000e+00
	#DEBUG_VALUE: main:res7 <- 0.000000e+00
	#DEBUG_VALUE: main:res8 <- 0.000000e+00
	#DEBUG_VALUE: main:res9 <- 0.000000e+00
	#DEBUG_VALUE: main:res10 <- 0.000000e+00
	#DEBUG_VALUE: main:res11 <- 0.000000e+00
	#DEBUG_VALUE: main:res12 <- 0.000000e+00
	#DEBUG_VALUE: main:in <- 100000000
	#DEBUG_VALUE: main:n_times <- 0
	#DEBUG_VALUE: main:n_warmup <- 0
	#DEBUG_VALUE: main:up <- [DW_OP_plus_uconst 48] [$rsp+0]
	#DEBUG_VALUE: main:v3 <- [DW_OP_plus_uconst 128] [$rsp+0]
	#DEBUG_VALUE: main:v1 <- [DW_OP_plus_uconst 120] [$rsp+0]
	#DEBUG_VALUE: main:v2 <- [DW_OP_plus_uconst 112] [$rsp+0]
	#DEBUG_VALUE: main:psi <- [DW_OP_plus_uconst 40] [$rsp+0]
	#DEBUG_VALUE: main:psi2 <- [DW_OP_plus_uconst 32] [$rsp+0]
	#DEBUG_VALUE: main:chi <- [DW_OP_plus_uconst 152] [$rsp+0]
	#DEBUG_VALUE: main:chi2 <- [DW_OP_plus_uconst 144] [$rsp+0]
	#DEBUG_VALUE: main:chi3 <- [DW_OP_plus_uconst 184] [$rsp+0]
	#DEBUG_VALUE: main:chi4 <- [DW_OP_plus_uconst 176] [$rsp+0]
	#DEBUG_VALUE: main:chi5 <- [DW_OP_plus_uconst 72] [$rsp+0]
	#DEBUG_VALUE: main:chi6 <- [DW_OP_plus_uconst 64] [$rsp+0]
	#DEBUG_VALUE: main:i <- $r9
	#DEBUG_VALUE: main:j <- [DW_OP_LLVM_arg 0, DW_OP_consts 8, DW_OP_LLVM_arg 1, DW_OP_plus_uconst 120, DW_OP_deref, DW_OP_plus, DW_OP_minus, DW_OP_consts 48, DW_OP_div, DW_OP_stack_value] $rdi, $rsp
	.loc	0 241 23 is_stmt 1              # avx_complex_vec_align_load.c:241:23
	vmovups	-8(%rdi,%rax), %xmm0
	.loc	0 241 21 is_stmt 0              # avx_complex_vec_align_load.c:241:21
	vmovups	%xmm0, -8(%rdx,%rax)
	.loc	0 242 24 is_stmt 1              # avx_complex_vec_align_load.c:242:24
	vmovupd	-8(%rbx,%rax), %xmm0
	.loc	0 242 22 is_stmt 0              # avx_complex_vec_align_load.c:242:22
	vmovupd	%xmm0, -8(%r13,%rax)
.Ltmp241:
	#DEBUG_VALUE: main:j <- [DW_OP_LLVM_arg 0, DW_OP_consts 8, DW_OP_LLVM_arg 1, DW_OP_plus_uconst 120, DW_OP_deref, DW_OP_plus, DW_OP_minus, DW_OP_consts 48, DW_OP_div, DW_OP_consts 1, DW_OP_plus, DW_OP_stack_value] $rdi, $rsp
	.loc	0 239 15 is_stmt 1              # avx_complex_vec_align_load.c:239:15
	addq	$16, %rax
	cmpq	$48, %rax
.Ltmp242:
	.loc	0 239 5 is_stmt 0               # avx_complex_vec_align_load.c:239:5
	jne	.LBB0_22
.Ltmp243:
# %bb.23:                               #   in Loop: Header=BB0_21 Depth=1
	#DEBUG_VALUE: main:n <- 5
	#DEBUG_VALUE: main:res1 <- 0.000000e+00
	#DEBUG_VALUE: main:res2 <- 0.000000e+00
	#DEBUG_VALUE: main:res3 <- 0.000000e+00
	#DEBUG_VALUE: main:res4 <- 0.000000e+00
	#DEBUG_VALUE: main:res5 <- 0.000000e+00
	#DEBUG_VALUE: main:res6 <- 0.000000e+00
	#DEBUG_VALUE: main:res7 <- 0.000000e+00
	#DEBUG_VALUE: main:res8 <- 0.000000e+00
	#DEBUG_VALUE: main:res9 <- 0.000000e+00
	#DEBUG_VALUE: main:res10 <- 0.000000e+00
	#DEBUG_VALUE: main:res11 <- 0.000000e+00
	#DEBUG_VALUE: main:res12 <- 0.000000e+00
	#DEBUG_VALUE: main:in <- 100000000
	#DEBUG_VALUE: main:n_times <- 0
	#DEBUG_VALUE: main:n_warmup <- 0
	#DEBUG_VALUE: main:up <- [DW_OP_plus_uconst 48] [$rsp+0]
	#DEBUG_VALUE: main:v3 <- [DW_OP_plus_uconst 128] [$rsp+0]
	#DEBUG_VALUE: main:v1 <- [DW_OP_plus_uconst 120] [$rsp+0]
	#DEBUG_VALUE: main:v2 <- [DW_OP_plus_uconst 112] [$rsp+0]
	#DEBUG_VALUE: main:psi <- [DW_OP_plus_uconst 40] [$rsp+0]
	#DEBUG_VALUE: main:psi2 <- [DW_OP_plus_uconst 32] [$rsp+0]
	#DEBUG_VALUE: main:chi <- [DW_OP_plus_uconst 152] [$rsp+0]
	#DEBUG_VALUE: main:chi2 <- [DW_OP_plus_uconst 144] [$rsp+0]
	#DEBUG_VALUE: main:chi3 <- [DW_OP_plus_uconst 184] [$rsp+0]
	#DEBUG_VALUE: main:chi4 <- [DW_OP_plus_uconst 176] [$rsp+0]
	#DEBUG_VALUE: main:chi5 <- [DW_OP_plus_uconst 72] [$rsp+0]
	#DEBUG_VALUE: main:chi6 <- [DW_OP_plus_uconst 64] [$rsp+0]
	#DEBUG_VALUE: main:i <- $r9
	.loc	0 0 5                           # avx_complex_vec_align_load.c:0:5
	xorl	%eax, %eax
.Ltmp244:
	.p2align	4, 0x90
.LBB0_24:                               #   Parent Loop BB0_21 Depth=1
                                        # =>  This Inner Loop Header: Depth=2
	#DEBUG_VALUE: main:n <- 5
	#DEBUG_VALUE: main:res1 <- 0.000000e+00
	#DEBUG_VALUE: main:res2 <- 0.000000e+00
	#DEBUG_VALUE: main:res3 <- 0.000000e+00
	#DEBUG_VALUE: main:res4 <- 0.000000e+00
	#DEBUG_VALUE: main:res5 <- 0.000000e+00
	#DEBUG_VALUE: main:res6 <- 0.000000e+00
	#DEBUG_VALUE: main:res7 <- 0.000000e+00
	#DEBUG_VALUE: main:res8 <- 0.000000e+00
	#DEBUG_VALUE: main:res9 <- 0.000000e+00
	#DEBUG_VALUE: main:res10 <- 0.000000e+00
	#DEBUG_VALUE: main:res11 <- 0.000000e+00
	#DEBUG_VALUE: main:res12 <- 0.000000e+00
	#DEBUG_VALUE: main:in <- 100000000
	#DEBUG_VALUE: main:n_times <- 0
	#DEBUG_VALUE: main:n_warmup <- 0
	#DEBUG_VALUE: main:up <- [DW_OP_plus_uconst 48] [$rsp+0]
	#DEBUG_VALUE: main:v3 <- [DW_OP_plus_uconst 128] [$rsp+0]
	#DEBUG_VALUE: main:v1 <- [DW_OP_plus_uconst 120] [$rsp+0]
	#DEBUG_VALUE: main:v2 <- [DW_OP_plus_uconst 112] [$rsp+0]
	#DEBUG_VALUE: main:psi <- [DW_OP_plus_uconst 40] [$rsp+0]
	#DEBUG_VALUE: main:psi2 <- [DW_OP_plus_uconst 32] [$rsp+0]
	#DEBUG_VALUE: main:chi <- [DW_OP_plus_uconst 152] [$rsp+0]
	#DEBUG_VALUE: main:chi2 <- [DW_OP_plus_uconst 144] [$rsp+0]
	#DEBUG_VALUE: main:chi3 <- [DW_OP_plus_uconst 184] [$rsp+0]
	#DEBUG_VALUE: main:chi4 <- [DW_OP_plus_uconst 176] [$rsp+0]
	#DEBUG_VALUE: main:chi5 <- [DW_OP_plus_uconst 72] [$rsp+0]
	#DEBUG_VALUE: main:chi6 <- [DW_OP_plus_uconst 64] [$rsp+0]
	#DEBUG_VALUE: main:i <- $r9
	#DEBUG_VALUE: main:j <- [DW_OP_LLVM_arg 0, DW_OP_consts 8, DW_OP_LLVM_arg 1, DW_OP_plus_uconst 128, DW_OP_deref, DW_OP_plus, DW_OP_minus, DW_OP_consts 144, DW_OP_div, DW_OP_stack_value] $r12, $rsp
	.loc	0 247 22 is_stmt 1              # avx_complex_vec_align_load.c:247:22
	vmovupd	-8(%r12,%rax), %xmm0
	.loc	0 247 20 is_stmt 0              # avx_complex_vec_align_load.c:247:20
	vmovupd	%xmm0, -8(%r14,%rax)
.Ltmp245:
	#DEBUG_VALUE: main:j <- [DW_OP_LLVM_arg 0, DW_OP_consts 8, DW_OP_LLVM_arg 1, DW_OP_plus_uconst 128, DW_OP_deref, DW_OP_plus, DW_OP_minus, DW_OP_consts 144, DW_OP_div, DW_OP_consts 1, DW_OP_plus, DW_OP_stack_value] $r12, $rsp
	.loc	0 245 15 is_stmt 1              # avx_complex_vec_align_load.c:245:15
	addq	$16, %rax
	cmpq	$144, %rax
.Ltmp246:
	.loc	0 245 5 is_stmt 0               # avx_complex_vec_align_load.c:245:5
	jne	.LBB0_24
.Ltmp247:
# %bb.25:                               #   in Loop: Header=BB0_21 Depth=1
	#DEBUG_VALUE: main:n <- 5
	#DEBUG_VALUE: main:res1 <- 0.000000e+00
	#DEBUG_VALUE: main:res2 <- 0.000000e+00
	#DEBUG_VALUE: main:res3 <- 0.000000e+00
	#DEBUG_VALUE: main:res4 <- 0.000000e+00
	#DEBUG_VALUE: main:res5 <- 0.000000e+00
	#DEBUG_VALUE: main:res6 <- 0.000000e+00
	#DEBUG_VALUE: main:res7 <- 0.000000e+00
	#DEBUG_VALUE: main:res8 <- 0.000000e+00
	#DEBUG_VALUE: main:res9 <- 0.000000e+00
	#DEBUG_VALUE: main:res10 <- 0.000000e+00
	#DEBUG_VALUE: main:res11 <- 0.000000e+00
	#DEBUG_VALUE: main:res12 <- 0.000000e+00
	#DEBUG_VALUE: main:in <- 100000000
	#DEBUG_VALUE: main:n_times <- 0
	#DEBUG_VALUE: main:n_warmup <- 0
	#DEBUG_VALUE: main:up <- [DW_OP_plus_uconst 48] [$rsp+0]
	#DEBUG_VALUE: main:v3 <- [DW_OP_plus_uconst 128] [$rsp+0]
	#DEBUG_VALUE: main:v1 <- [DW_OP_plus_uconst 120] [$rsp+0]
	#DEBUG_VALUE: main:v2 <- [DW_OP_plus_uconst 112] [$rsp+0]
	#DEBUG_VALUE: main:psi <- [DW_OP_plus_uconst 40] [$rsp+0]
	#DEBUG_VALUE: main:psi2 <- [DW_OP_plus_uconst 32] [$rsp+0]
	#DEBUG_VALUE: main:chi <- [DW_OP_plus_uconst 152] [$rsp+0]
	#DEBUG_VALUE: main:chi2 <- [DW_OP_plus_uconst 144] [$rsp+0]
	#DEBUG_VALUE: main:chi3 <- [DW_OP_plus_uconst 184] [$rsp+0]
	#DEBUG_VALUE: main:chi4 <- [DW_OP_plus_uconst 176] [$rsp+0]
	#DEBUG_VALUE: main:chi5 <- [DW_OP_plus_uconst 72] [$rsp+0]
	#DEBUG_VALUE: main:chi6 <- [DW_OP_plus_uconst 64] [$rsp+0]
	#DEBUG_VALUE: main:i <- $r9
	.loc	0 250 3 is_stmt 1               # avx_complex_vec_align_load.c:250:3
	vmovsd	(%rcx), %xmm4                   # xmm4 = mem[0],zero
	vmovsd	8(%rcx), %xmm5                  # xmm5 = mem[0],zero
	vmovsd	(%r11), %xmm2                   # xmm2 = mem[0],zero
	vmovsd	8(%r11), %xmm3                  # xmm3 = mem[0],zero
	vmulsd	%xmm2, %xmm4, %xmm0
	vmulsd	%xmm3, %xmm5, %xmm1
	vsubsd	%xmm1, %xmm0, %xmm0
	vmulsd	%xmm3, %xmm4, %xmm1
	vmulsd	%xmm2, %xmm5, %xmm6
	vaddsd	%xmm1, %xmm6, %xmm1
	vucomisd	%xmm0, %xmm0
	movq	%rbx, 104(%rsp)                 # 8-byte Spill
	jp	.LBB0_26
.Ltmp248:
.LBB0_28:                               #   in Loop: Header=BB0_21 Depth=1
	#DEBUG_VALUE: main:n <- 5
	#DEBUG_VALUE: main:res1 <- 0.000000e+00
	#DEBUG_VALUE: main:res2 <- 0.000000e+00
	#DEBUG_VALUE: main:res3 <- 0.000000e+00
	#DEBUG_VALUE: main:res4 <- 0.000000e+00
	#DEBUG_VALUE: main:res5 <- 0.000000e+00
	#DEBUG_VALUE: main:res6 <- 0.000000e+00
	#DEBUG_VALUE: main:res7 <- 0.000000e+00
	#DEBUG_VALUE: main:res8 <- 0.000000e+00
	#DEBUG_VALUE: main:res9 <- 0.000000e+00
	#DEBUG_VALUE: main:res10 <- 0.000000e+00
	#DEBUG_VALUE: main:res11 <- 0.000000e+00
	#DEBUG_VALUE: main:res12 <- 0.000000e+00
	#DEBUG_VALUE: main:in <- 100000000
	#DEBUG_VALUE: main:n_times <- 0
	#DEBUG_VALUE: main:n_warmup <- 0
	#DEBUG_VALUE: main:up <- [DW_OP_plus_uconst 48] [$rsp+0]
	#DEBUG_VALUE: main:v3 <- [DW_OP_plus_uconst 128] [$rsp+0]
	#DEBUG_VALUE: main:v1 <- [DW_OP_plus_uconst 120] [$rsp+0]
	#DEBUG_VALUE: main:v2 <- [DW_OP_plus_uconst 112] [$rsp+0]
	#DEBUG_VALUE: main:psi <- [DW_OP_plus_uconst 40] [$rsp+0]
	#DEBUG_VALUE: main:psi2 <- [DW_OP_plus_uconst 32] [$rsp+0]
	#DEBUG_VALUE: main:chi <- [DW_OP_plus_uconst 152] [$rsp+0]
	#DEBUG_VALUE: main:chi2 <- [DW_OP_plus_uconst 144] [$rsp+0]
	#DEBUG_VALUE: main:chi3 <- [DW_OP_plus_uconst 184] [$rsp+0]
	#DEBUG_VALUE: main:chi4 <- [DW_OP_plus_uconst 176] [$rsp+0]
	#DEBUG_VALUE: main:chi5 <- [DW_OP_plus_uconst 72] [$rsp+0]
	#DEBUG_VALUE: main:chi6 <- [DW_OP_plus_uconst 64] [$rsp+0]
	leaq	(%r9,%r9,2), %rax
	shlq	$4, %rax
	vmovsd	%xmm0, (%r8,%rax)
	vmovsd	%xmm1, 8(%r8,%rax)
	leaq	(%r8,%rax), %r15
	vmovsd	16(%rcx), %xmm4                 # xmm4 = mem[0],zero
	vmovsd	24(%rcx), %xmm5                 # xmm5 = mem[0],zero
	vmovsd	16(%r11), %xmm2                 # xmm2 = mem[0],zero
	vmovsd	24(%r11), %xmm3                 # xmm3 = mem[0],zero
	vmulsd	%xmm2, %xmm4, %xmm0
	vmulsd	%xmm3, %xmm5, %xmm1
	vsubsd	%xmm1, %xmm0, %xmm0
	vmulsd	%xmm3, %xmm4, %xmm1
	vmulsd	%xmm2, %xmm5, %xmm6
	vaddsd	%xmm1, %xmm6, %xmm1
	vucomisd	%xmm0, %xmm0
	jp	.LBB0_29
.Ltmp249:
.LBB0_31:                               #   in Loop: Header=BB0_21 Depth=1
	#DEBUG_VALUE: main:n <- 5
	#DEBUG_VALUE: main:res1 <- 0.000000e+00
	#DEBUG_VALUE: main:res2 <- 0.000000e+00
	#DEBUG_VALUE: main:res3 <- 0.000000e+00
	#DEBUG_VALUE: main:res4 <- 0.000000e+00
	#DEBUG_VALUE: main:res5 <- 0.000000e+00
	#DEBUG_VALUE: main:res6 <- 0.000000e+00
	#DEBUG_VALUE: main:res7 <- 0.000000e+00
	#DEBUG_VALUE: main:res8 <- 0.000000e+00
	#DEBUG_VALUE: main:res9 <- 0.000000e+00
	#DEBUG_VALUE: main:res10 <- 0.000000e+00
	#DEBUG_VALUE: main:res11 <- 0.000000e+00
	#DEBUG_VALUE: main:res12 <- 0.000000e+00
	#DEBUG_VALUE: main:in <- 100000000
	#DEBUG_VALUE: main:n_times <- 0
	#DEBUG_VALUE: main:n_warmup <- 0
	#DEBUG_VALUE: main:up <- [DW_OP_plus_uconst 48] [$rsp+0]
	#DEBUG_VALUE: main:v3 <- [DW_OP_plus_uconst 128] [$rsp+0]
	#DEBUG_VALUE: main:v1 <- [DW_OP_plus_uconst 120] [$rsp+0]
	#DEBUG_VALUE: main:v2 <- [DW_OP_plus_uconst 112] [$rsp+0]
	#DEBUG_VALUE: main:psi <- [DW_OP_plus_uconst 40] [$rsp+0]
	#DEBUG_VALUE: main:psi2 <- [DW_OP_plus_uconst 32] [$rsp+0]
	#DEBUG_VALUE: main:chi <- [DW_OP_plus_uconst 152] [$rsp+0]
	#DEBUG_VALUE: main:chi2 <- [DW_OP_plus_uconst 144] [$rsp+0]
	#DEBUG_VALUE: main:chi3 <- [DW_OP_plus_uconst 184] [$rsp+0]
	#DEBUG_VALUE: main:chi4 <- [DW_OP_plus_uconst 176] [$rsp+0]
	#DEBUG_VALUE: main:chi5 <- [DW_OP_plus_uconst 72] [$rsp+0]
	#DEBUG_VALUE: main:chi6 <- [DW_OP_plus_uconst 64] [$rsp+0]
	leaq	(%r8,%rax), %rbx
	addq	$8, %rbx
	vaddsd	(%r15), %xmm0, %xmm0
	vaddsd	(%rbx), %xmm1, %xmm1
	vmovsd	%xmm0, (%r15)
	vmovsd	%xmm1, (%rbx)
	vmovsd	32(%rcx), %xmm4                 # xmm4 = mem[0],zero
	vmovsd	40(%rcx), %xmm5                 # xmm5 = mem[0],zero
	vmovsd	32(%r11), %xmm2                 # xmm2 = mem[0],zero
	vmovsd	40(%r11), %xmm3                 # xmm3 = mem[0],zero
	vmulsd	%xmm2, %xmm4, %xmm0
	vmulsd	%xmm3, %xmm5, %xmm1
	vsubsd	%xmm1, %xmm0, %xmm0
	vmulsd	%xmm3, %xmm4, %xmm1
	vmulsd	%xmm2, %xmm5, %xmm6
	vaddsd	%xmm1, %xmm6, %xmm1
	vucomisd	%xmm0, %xmm0
	jp	.LBB0_32
.Ltmp250:
.LBB0_34:                               #   in Loop: Header=BB0_21 Depth=1
	#DEBUG_VALUE: main:n <- 5
	#DEBUG_VALUE: main:res1 <- 0.000000e+00
	#DEBUG_VALUE: main:res2 <- 0.000000e+00
	#DEBUG_VALUE: main:res3 <- 0.000000e+00
	#DEBUG_VALUE: main:res4 <- 0.000000e+00
	#DEBUG_VALUE: main:res5 <- 0.000000e+00
	#DEBUG_VALUE: main:res6 <- 0.000000e+00
	#DEBUG_VALUE: main:res7 <- 0.000000e+00
	#DEBUG_VALUE: main:res8 <- 0.000000e+00
	#DEBUG_VALUE: main:res9 <- 0.000000e+00
	#DEBUG_VALUE: main:res10 <- 0.000000e+00
	#DEBUG_VALUE: main:res11 <- 0.000000e+00
	#DEBUG_VALUE: main:res12 <- 0.000000e+00
	#DEBUG_VALUE: main:in <- 100000000
	#DEBUG_VALUE: main:n_times <- 0
	#DEBUG_VALUE: main:n_warmup <- 0
	#DEBUG_VALUE: main:up <- [DW_OP_plus_uconst 48] [$rsp+0]
	#DEBUG_VALUE: main:v3 <- [DW_OP_plus_uconst 128] [$rsp+0]
	#DEBUG_VALUE: main:v1 <- [DW_OP_plus_uconst 120] [$rsp+0]
	#DEBUG_VALUE: main:v2 <- [DW_OP_plus_uconst 112] [$rsp+0]
	#DEBUG_VALUE: main:psi <- [DW_OP_plus_uconst 40] [$rsp+0]
	#DEBUG_VALUE: main:psi2 <- [DW_OP_plus_uconst 32] [$rsp+0]
	#DEBUG_VALUE: main:chi <- [DW_OP_plus_uconst 152] [$rsp+0]
	#DEBUG_VALUE: main:chi2 <- [DW_OP_plus_uconst 144] [$rsp+0]
	#DEBUG_VALUE: main:chi3 <- [DW_OP_plus_uconst 184] [$rsp+0]
	#DEBUG_VALUE: main:chi4 <- [DW_OP_plus_uconst 176] [$rsp+0]
	#DEBUG_VALUE: main:chi5 <- [DW_OP_plus_uconst 72] [$rsp+0]
	#DEBUG_VALUE: main:chi6 <- [DW_OP_plus_uconst 64] [$rsp+0]
	vaddsd	(%r15), %xmm0, %xmm0
	vaddsd	(%rbx), %xmm1, %xmm1
	vmovsd	%xmm0, (%r15)
	vmovsd	%xmm1, (%rbx)
	vmovsd	48(%rcx), %xmm4                 # xmm4 = mem[0],zero
	vmovsd	56(%rcx), %xmm5                 # xmm5 = mem[0],zero
	vmovsd	(%r11), %xmm2                   # xmm2 = mem[0],zero
	vmovsd	8(%r11), %xmm3                  # xmm3 = mem[0],zero
	vmulsd	%xmm2, %xmm4, %xmm0
	vmulsd	%xmm3, %xmm5, %xmm1
	vsubsd	%xmm1, %xmm0, %xmm0
	vmulsd	%xmm3, %xmm4, %xmm1
	vmulsd	%xmm2, %xmm5, %xmm6
	vaddsd	%xmm1, %xmm6, %xmm1
	vucomisd	%xmm0, %xmm0
	jp	.LBB0_35
.Ltmp251:
.LBB0_37:                               #   in Loop: Header=BB0_21 Depth=1
	#DEBUG_VALUE: main:n <- 5
	#DEBUG_VALUE: main:res1 <- 0.000000e+00
	#DEBUG_VALUE: main:res2 <- 0.000000e+00
	#DEBUG_VALUE: main:res3 <- 0.000000e+00
	#DEBUG_VALUE: main:res4 <- 0.000000e+00
	#DEBUG_VALUE: main:res5 <- 0.000000e+00
	#DEBUG_VALUE: main:res6 <- 0.000000e+00
	#DEBUG_VALUE: main:res7 <- 0.000000e+00
	#DEBUG_VALUE: main:res8 <- 0.000000e+00
	#DEBUG_VALUE: main:res9 <- 0.000000e+00
	#DEBUG_VALUE: main:res10 <- 0.000000e+00
	#DEBUG_VALUE: main:res11 <- 0.000000e+00
	#DEBUG_VALUE: main:res12 <- 0.000000e+00
	#DEBUG_VALUE: main:in <- 100000000
	#DEBUG_VALUE: main:n_times <- 0
	#DEBUG_VALUE: main:n_warmup <- 0
	#DEBUG_VALUE: main:up <- [DW_OP_plus_uconst 48] [$rsp+0]
	#DEBUG_VALUE: main:v3 <- [DW_OP_plus_uconst 128] [$rsp+0]
	#DEBUG_VALUE: main:v1 <- [DW_OP_plus_uconst 120] [$rsp+0]
	#DEBUG_VALUE: main:v2 <- [DW_OP_plus_uconst 112] [$rsp+0]
	#DEBUG_VALUE: main:psi <- [DW_OP_plus_uconst 40] [$rsp+0]
	#DEBUG_VALUE: main:psi2 <- [DW_OP_plus_uconst 32] [$rsp+0]
	#DEBUG_VALUE: main:chi <- [DW_OP_plus_uconst 152] [$rsp+0]
	#DEBUG_VALUE: main:chi2 <- [DW_OP_plus_uconst 144] [$rsp+0]
	#DEBUG_VALUE: main:chi3 <- [DW_OP_plus_uconst 184] [$rsp+0]
	#DEBUG_VALUE: main:chi4 <- [DW_OP_plus_uconst 176] [$rsp+0]
	#DEBUG_VALUE: main:chi5 <- [DW_OP_plus_uconst 72] [$rsp+0]
	#DEBUG_VALUE: main:chi6 <- [DW_OP_plus_uconst 64] [$rsp+0]
	vmovsd	%xmm0, 16(%r8,%rax)
	vmovsd	%xmm1, 24(%r8,%rax)
	vmovsd	64(%rcx), %xmm4                 # xmm4 = mem[0],zero
	vmovsd	72(%rcx), %xmm5                 # xmm5 = mem[0],zero
	vmovsd	16(%r11), %xmm2                 # xmm2 = mem[0],zero
	vmovsd	24(%r11), %xmm3                 # xmm3 = mem[0],zero
	vmulsd	%xmm2, %xmm4, %xmm0
	vmulsd	%xmm3, %xmm5, %xmm1
	vsubsd	%xmm1, %xmm0, %xmm0
	vmulsd	%xmm3, %xmm4, %xmm1
	vmulsd	%xmm2, %xmm5, %xmm6
	vaddsd	%xmm1, %xmm6, %xmm1
	vucomisd	%xmm0, %xmm0
	jp	.LBB0_38
.Ltmp252:
.LBB0_40:                               #   in Loop: Header=BB0_21 Depth=1
	#DEBUG_VALUE: main:n <- 5
	#DEBUG_VALUE: main:res1 <- 0.000000e+00
	#DEBUG_VALUE: main:res2 <- 0.000000e+00
	#DEBUG_VALUE: main:res3 <- 0.000000e+00
	#DEBUG_VALUE: main:res4 <- 0.000000e+00
	#DEBUG_VALUE: main:res5 <- 0.000000e+00
	#DEBUG_VALUE: main:res6 <- 0.000000e+00
	#DEBUG_VALUE: main:res7 <- 0.000000e+00
	#DEBUG_VALUE: main:res8 <- 0.000000e+00
	#DEBUG_VALUE: main:res9 <- 0.000000e+00
	#DEBUG_VALUE: main:res10 <- 0.000000e+00
	#DEBUG_VALUE: main:res11 <- 0.000000e+00
	#DEBUG_VALUE: main:res12 <- 0.000000e+00
	#DEBUG_VALUE: main:in <- 100000000
	#DEBUG_VALUE: main:n_times <- 0
	#DEBUG_VALUE: main:n_warmup <- 0
	#DEBUG_VALUE: main:up <- [DW_OP_plus_uconst 48] [$rsp+0]
	#DEBUG_VALUE: main:v3 <- [DW_OP_plus_uconst 128] [$rsp+0]
	#DEBUG_VALUE: main:v1 <- [DW_OP_plus_uconst 120] [$rsp+0]
	#DEBUG_VALUE: main:v2 <- [DW_OP_plus_uconst 112] [$rsp+0]
	#DEBUG_VALUE: main:psi <- [DW_OP_plus_uconst 40] [$rsp+0]
	#DEBUG_VALUE: main:psi2 <- [DW_OP_plus_uconst 32] [$rsp+0]
	#DEBUG_VALUE: main:chi <- [DW_OP_plus_uconst 152] [$rsp+0]
	#DEBUG_VALUE: main:chi2 <- [DW_OP_plus_uconst 144] [$rsp+0]
	#DEBUG_VALUE: main:chi3 <- [DW_OP_plus_uconst 184] [$rsp+0]
	#DEBUG_VALUE: main:chi4 <- [DW_OP_plus_uconst 176] [$rsp+0]
	#DEBUG_VALUE: main:chi5 <- [DW_OP_plus_uconst 72] [$rsp+0]
	#DEBUG_VALUE: main:chi6 <- [DW_OP_plus_uconst 64] [$rsp+0]
	leaq	(%r8,%rax), %rbx
	addq	$16, %rbx
	vaddsd	(%rbx), %xmm0, %xmm0
	vaddsd	8(%rbx), %xmm1, %xmm1
	vmovsd	%xmm0, (%rbx)
	vmovsd	%xmm1, 8(%rbx)
	vmovsd	80(%rcx), %xmm4                 # xmm4 = mem[0],zero
	vmovsd	88(%rcx), %xmm5                 # xmm5 = mem[0],zero
	vmovsd	32(%r11), %xmm2                 # xmm2 = mem[0],zero
	vmovsd	40(%r11), %xmm3                 # xmm3 = mem[0],zero
	vmulsd	%xmm2, %xmm4, %xmm0
	vmulsd	%xmm3, %xmm5, %xmm1
	vsubsd	%xmm1, %xmm0, %xmm0
	vmulsd	%xmm3, %xmm4, %xmm1
	vmulsd	%xmm2, %xmm5, %xmm6
	vaddsd	%xmm1, %xmm6, %xmm1
	vucomisd	%xmm0, %xmm0
	jp	.LBB0_41
.Ltmp253:
.LBB0_43:                               #   in Loop: Header=BB0_21 Depth=1
	#DEBUG_VALUE: main:n <- 5
	#DEBUG_VALUE: main:res1 <- 0.000000e+00
	#DEBUG_VALUE: main:res2 <- 0.000000e+00
	#DEBUG_VALUE: main:res3 <- 0.000000e+00
	#DEBUG_VALUE: main:res4 <- 0.000000e+00
	#DEBUG_VALUE: main:res5 <- 0.000000e+00
	#DEBUG_VALUE: main:res6 <- 0.000000e+00
	#DEBUG_VALUE: main:res7 <- 0.000000e+00
	#DEBUG_VALUE: main:res8 <- 0.000000e+00
	#DEBUG_VALUE: main:res9 <- 0.000000e+00
	#DEBUG_VALUE: main:res10 <- 0.000000e+00
	#DEBUG_VALUE: main:res11 <- 0.000000e+00
	#DEBUG_VALUE: main:res12 <- 0.000000e+00
	#DEBUG_VALUE: main:in <- 100000000
	#DEBUG_VALUE: main:n_times <- 0
	#DEBUG_VALUE: main:n_warmup <- 0
	#DEBUG_VALUE: main:up <- [DW_OP_plus_uconst 48] [$rsp+0]
	#DEBUG_VALUE: main:v3 <- [DW_OP_plus_uconst 128] [$rsp+0]
	#DEBUG_VALUE: main:v1 <- [DW_OP_plus_uconst 120] [$rsp+0]
	#DEBUG_VALUE: main:v2 <- [DW_OP_plus_uconst 112] [$rsp+0]
	#DEBUG_VALUE: main:psi <- [DW_OP_plus_uconst 40] [$rsp+0]
	#DEBUG_VALUE: main:psi2 <- [DW_OP_plus_uconst 32] [$rsp+0]
	#DEBUG_VALUE: main:chi <- [DW_OP_plus_uconst 152] [$rsp+0]
	#DEBUG_VALUE: main:chi2 <- [DW_OP_plus_uconst 144] [$rsp+0]
	#DEBUG_VALUE: main:chi3 <- [DW_OP_plus_uconst 184] [$rsp+0]
	#DEBUG_VALUE: main:chi4 <- [DW_OP_plus_uconst 176] [$rsp+0]
	#DEBUG_VALUE: main:chi5 <- [DW_OP_plus_uconst 72] [$rsp+0]
	#DEBUG_VALUE: main:chi6 <- [DW_OP_plus_uconst 64] [$rsp+0]
	vaddsd	(%rbx), %xmm0, %xmm0
	vaddsd	8(%rbx), %xmm1, %xmm1
	vmovsd	%xmm0, (%rbx)
	vmovsd	%xmm1, 8(%rbx)
	vmovsd	96(%rcx), %xmm4                 # xmm4 = mem[0],zero
	vmovsd	104(%rcx), %xmm5                # xmm5 = mem[0],zero
	vmovsd	(%r11), %xmm2                   # xmm2 = mem[0],zero
	vmovsd	8(%r11), %xmm3                  # xmm3 = mem[0],zero
	vmulsd	%xmm2, %xmm4, %xmm0
	vmulsd	%xmm3, %xmm5, %xmm1
	vsubsd	%xmm1, %xmm0, %xmm0
	vmulsd	%xmm3, %xmm4, %xmm1
	vmulsd	%xmm2, %xmm5, %xmm6
	vaddsd	%xmm1, %xmm6, %xmm1
	vucomisd	%xmm0, %xmm0
	jp	.LBB0_44
.Ltmp254:
.LBB0_46:                               #   in Loop: Header=BB0_21 Depth=1
	#DEBUG_VALUE: main:n <- 5
	#DEBUG_VALUE: main:res1 <- 0.000000e+00
	#DEBUG_VALUE: main:res2 <- 0.000000e+00
	#DEBUG_VALUE: main:res3 <- 0.000000e+00
	#DEBUG_VALUE: main:res4 <- 0.000000e+00
	#DEBUG_VALUE: main:res5 <- 0.000000e+00
	#DEBUG_VALUE: main:res6 <- 0.000000e+00
	#DEBUG_VALUE: main:res7 <- 0.000000e+00
	#DEBUG_VALUE: main:res8 <- 0.000000e+00
	#DEBUG_VALUE: main:res9 <- 0.000000e+00
	#DEBUG_VALUE: main:res10 <- 0.000000e+00
	#DEBUG_VALUE: main:res11 <- 0.000000e+00
	#DEBUG_VALUE: main:res12 <- 0.000000e+00
	#DEBUG_VALUE: main:in <- 100000000
	#DEBUG_VALUE: main:n_times <- 0
	#DEBUG_VALUE: main:n_warmup <- 0
	#DEBUG_VALUE: main:up <- [DW_OP_plus_uconst 48] [$rsp+0]
	#DEBUG_VALUE: main:v3 <- [DW_OP_plus_uconst 128] [$rsp+0]
	#DEBUG_VALUE: main:v1 <- [DW_OP_plus_uconst 120] [$rsp+0]
	#DEBUG_VALUE: main:v2 <- [DW_OP_plus_uconst 112] [$rsp+0]
	#DEBUG_VALUE: main:psi <- [DW_OP_plus_uconst 40] [$rsp+0]
	#DEBUG_VALUE: main:psi2 <- [DW_OP_plus_uconst 32] [$rsp+0]
	#DEBUG_VALUE: main:chi <- [DW_OP_plus_uconst 152] [$rsp+0]
	#DEBUG_VALUE: main:chi2 <- [DW_OP_plus_uconst 144] [$rsp+0]
	#DEBUG_VALUE: main:chi3 <- [DW_OP_plus_uconst 184] [$rsp+0]
	#DEBUG_VALUE: main:chi4 <- [DW_OP_plus_uconst 176] [$rsp+0]
	#DEBUG_VALUE: main:chi5 <- [DW_OP_plus_uconst 72] [$rsp+0]
	#DEBUG_VALUE: main:chi6 <- [DW_OP_plus_uconst 64] [$rsp+0]
	vmovsd	%xmm0, 32(%r8,%rax)
	vmovsd	%xmm1, 40(%r8,%rax)
	vmovsd	112(%rcx), %xmm4                # xmm4 = mem[0],zero
	vmovsd	120(%rcx), %xmm5                # xmm5 = mem[0],zero
	vmovsd	16(%r11), %xmm2                 # xmm2 = mem[0],zero
	vmovsd	24(%r11), %xmm3                 # xmm3 = mem[0],zero
	vmulsd	%xmm2, %xmm4, %xmm0
	vmulsd	%xmm3, %xmm5, %xmm1
	vsubsd	%xmm1, %xmm0, %xmm0
	vmulsd	%xmm3, %xmm4, %xmm1
	vmulsd	%xmm2, %xmm5, %xmm6
	vaddsd	%xmm1, %xmm6, %xmm1
	vucomisd	%xmm0, %xmm0
	jp	.LBB0_47
.Ltmp255:
.LBB0_49:                               #   in Loop: Header=BB0_21 Depth=1
	#DEBUG_VALUE: main:n <- 5
	#DEBUG_VALUE: main:res1 <- 0.000000e+00
	#DEBUG_VALUE: main:res2 <- 0.000000e+00
	#DEBUG_VALUE: main:res3 <- 0.000000e+00
	#DEBUG_VALUE: main:res4 <- 0.000000e+00
	#DEBUG_VALUE: main:res5 <- 0.000000e+00
	#DEBUG_VALUE: main:res6 <- 0.000000e+00
	#DEBUG_VALUE: main:res7 <- 0.000000e+00
	#DEBUG_VALUE: main:res8 <- 0.000000e+00
	#DEBUG_VALUE: main:res9 <- 0.000000e+00
	#DEBUG_VALUE: main:res10 <- 0.000000e+00
	#DEBUG_VALUE: main:res11 <- 0.000000e+00
	#DEBUG_VALUE: main:res12 <- 0.000000e+00
	#DEBUG_VALUE: main:in <- 100000000
	#DEBUG_VALUE: main:n_times <- 0
	#DEBUG_VALUE: main:n_warmup <- 0
	#DEBUG_VALUE: main:up <- [DW_OP_plus_uconst 48] [$rsp+0]
	#DEBUG_VALUE: main:v3 <- [DW_OP_plus_uconst 128] [$rsp+0]
	#DEBUG_VALUE: main:v1 <- [DW_OP_plus_uconst 120] [$rsp+0]
	#DEBUG_VALUE: main:v2 <- [DW_OP_plus_uconst 112] [$rsp+0]
	#DEBUG_VALUE: main:psi <- [DW_OP_plus_uconst 40] [$rsp+0]
	#DEBUG_VALUE: main:psi2 <- [DW_OP_plus_uconst 32] [$rsp+0]
	#DEBUG_VALUE: main:chi <- [DW_OP_plus_uconst 152] [$rsp+0]
	#DEBUG_VALUE: main:chi2 <- [DW_OP_plus_uconst 144] [$rsp+0]
	#DEBUG_VALUE: main:chi3 <- [DW_OP_plus_uconst 184] [$rsp+0]
	#DEBUG_VALUE: main:chi4 <- [DW_OP_plus_uconst 176] [$rsp+0]
	#DEBUG_VALUE: main:chi5 <- [DW_OP_plus_uconst 72] [$rsp+0]
	#DEBUG_VALUE: main:chi6 <- [DW_OP_plus_uconst 64] [$rsp+0]
	leaq	(%r8,%rax), %rbx
	addq	$32, %rbx
	vaddsd	(%rbx), %xmm0, %xmm0
	vaddsd	8(%rbx), %xmm1, %xmm1
	vmovsd	%xmm0, (%rbx)
	vmovsd	%xmm1, 8(%rbx)
	vmovsd	128(%rcx), %xmm4                # xmm4 = mem[0],zero
	vmovsd	136(%rcx), %xmm5                # xmm5 = mem[0],zero
	vmovsd	32(%r11), %xmm2                 # xmm2 = mem[0],zero
	vmovsd	40(%r11), %xmm3                 # xmm3 = mem[0],zero
	vmulsd	%xmm2, %xmm4, %xmm0
	vmulsd	%xmm3, %xmm5, %xmm1
	vsubsd	%xmm1, %xmm0, %xmm0
	vmulsd	%xmm3, %xmm4, %xmm1
	vmulsd	%xmm2, %xmm5, %xmm6
	vaddsd	%xmm1, %xmm6, %xmm1
	vucomisd	%xmm0, %xmm0
	jp	.LBB0_50
.Ltmp256:
.LBB0_52:                               #   in Loop: Header=BB0_21 Depth=1
	#DEBUG_VALUE: main:n <- 5
	#DEBUG_VALUE: main:res1 <- 0.000000e+00
	#DEBUG_VALUE: main:res2 <- 0.000000e+00
	#DEBUG_VALUE: main:res3 <- 0.000000e+00
	#DEBUG_VALUE: main:res4 <- 0.000000e+00
	#DEBUG_VALUE: main:res5 <- 0.000000e+00
	#DEBUG_VALUE: main:res6 <- 0.000000e+00
	#DEBUG_VALUE: main:res7 <- 0.000000e+00
	#DEBUG_VALUE: main:res8 <- 0.000000e+00
	#DEBUG_VALUE: main:res9 <- 0.000000e+00
	#DEBUG_VALUE: main:res10 <- 0.000000e+00
	#DEBUG_VALUE: main:res11 <- 0.000000e+00
	#DEBUG_VALUE: main:res12 <- 0.000000e+00
	#DEBUG_VALUE: main:in <- 100000000
	#DEBUG_VALUE: main:n_times <- 0
	#DEBUG_VALUE: main:n_warmup <- 0
	#DEBUG_VALUE: main:up <- [DW_OP_plus_uconst 48] [$rsp+0]
	#DEBUG_VALUE: main:v3 <- [DW_OP_plus_uconst 128] [$rsp+0]
	#DEBUG_VALUE: main:v1 <- [DW_OP_plus_uconst 120] [$rsp+0]
	#DEBUG_VALUE: main:v2 <- [DW_OP_plus_uconst 112] [$rsp+0]
	#DEBUG_VALUE: main:psi <- [DW_OP_plus_uconst 40] [$rsp+0]
	#DEBUG_VALUE: main:psi2 <- [DW_OP_plus_uconst 32] [$rsp+0]
	#DEBUG_VALUE: main:chi <- [DW_OP_plus_uconst 152] [$rsp+0]
	#DEBUG_VALUE: main:chi2 <- [DW_OP_plus_uconst 144] [$rsp+0]
	#DEBUG_VALUE: main:chi3 <- [DW_OP_plus_uconst 184] [$rsp+0]
	#DEBUG_VALUE: main:chi4 <- [DW_OP_plus_uconst 176] [$rsp+0]
	#DEBUG_VALUE: main:chi5 <- [DW_OP_plus_uconst 72] [$rsp+0]
	#DEBUG_VALUE: main:chi6 <- [DW_OP_plus_uconst 64] [$rsp+0]
	vaddsd	(%rbx), %xmm0, %xmm0
	vaddsd	8(%rbx), %xmm1, %xmm1
	vmovsd	%xmm0, (%rbx)
	vmovsd	%xmm1, 8(%rbx)
	.loc	0 251 3                         # avx_complex_vec_align_load.c:251:3
	vmovsd	(%rcx), %xmm4                   # xmm4 = mem[0],zero
	vmovsd	8(%rcx), %xmm5                  # xmm5 = mem[0],zero
	vmovsd	(%rsi), %xmm2                   # xmm2 = mem[0],zero
	vmovsd	8(%rsi), %xmm3                  # xmm3 = mem[0],zero
	vmulsd	%xmm2, %xmm4, %xmm0
	vmulsd	%xmm3, %xmm5, %xmm1
	vsubsd	%xmm1, %xmm0, %xmm0
	vmulsd	%xmm3, %xmm4, %xmm1
	vmulsd	%xmm2, %xmm5, %xmm6
	vaddsd	%xmm1, %xmm6, %xmm1
	vucomisd	%xmm0, %xmm0
	jp	.LBB0_53
.Ltmp257:
.LBB0_55:                               #   in Loop: Header=BB0_21 Depth=1
	#DEBUG_VALUE: main:n <- 5
	#DEBUG_VALUE: main:res1 <- 0.000000e+00
	#DEBUG_VALUE: main:res2 <- 0.000000e+00
	#DEBUG_VALUE: main:res3 <- 0.000000e+00
	#DEBUG_VALUE: main:res4 <- 0.000000e+00
	#DEBUG_VALUE: main:res5 <- 0.000000e+00
	#DEBUG_VALUE: main:res6 <- 0.000000e+00
	#DEBUG_VALUE: main:res7 <- 0.000000e+00
	#DEBUG_VALUE: main:res8 <- 0.000000e+00
	#DEBUG_VALUE: main:res9 <- 0.000000e+00
	#DEBUG_VALUE: main:res10 <- 0.000000e+00
	#DEBUG_VALUE: main:res11 <- 0.000000e+00
	#DEBUG_VALUE: main:res12 <- 0.000000e+00
	#DEBUG_VALUE: main:in <- 100000000
	#DEBUG_VALUE: main:n_times <- 0
	#DEBUG_VALUE: main:n_warmup <- 0
	#DEBUG_VALUE: main:up <- [DW_OP_plus_uconst 48] [$rsp+0]
	#DEBUG_VALUE: main:v3 <- [DW_OP_plus_uconst 128] [$rsp+0]
	#DEBUG_VALUE: main:v1 <- [DW_OP_plus_uconst 120] [$rsp+0]
	#DEBUG_VALUE: main:v2 <- [DW_OP_plus_uconst 112] [$rsp+0]
	#DEBUG_VALUE: main:psi <- [DW_OP_plus_uconst 40] [$rsp+0]
	#DEBUG_VALUE: main:psi2 <- [DW_OP_plus_uconst 32] [$rsp+0]
	#DEBUG_VALUE: main:chi <- [DW_OP_plus_uconst 152] [$rsp+0]
	#DEBUG_VALUE: main:chi2 <- [DW_OP_plus_uconst 144] [$rsp+0]
	#DEBUG_VALUE: main:chi3 <- [DW_OP_plus_uconst 184] [$rsp+0]
	#DEBUG_VALUE: main:chi4 <- [DW_OP_plus_uconst 176] [$rsp+0]
	#DEBUG_VALUE: main:chi5 <- [DW_OP_plus_uconst 72] [$rsp+0]
	#DEBUG_VALUE: main:chi6 <- [DW_OP_plus_uconst 64] [$rsp+0]
	vmovsd	%xmm0, (%r10,%rax)
	vmovsd	%xmm1, 8(%r10,%rax)
	leaq	(%r10,%rax), %r15
	vmovsd	16(%rcx), %xmm4                 # xmm4 = mem[0],zero
	vmovsd	24(%rcx), %xmm5                 # xmm5 = mem[0],zero
	vmovsd	16(%rsi), %xmm2                 # xmm2 = mem[0],zero
	vmovsd	24(%rsi), %xmm3                 # xmm3 = mem[0],zero
	vmulsd	%xmm2, %xmm4, %xmm0
	vmulsd	%xmm3, %xmm5, %xmm1
	vsubsd	%xmm1, %xmm0, %xmm0
	vmulsd	%xmm3, %xmm4, %xmm1
	vmulsd	%xmm2, %xmm5, %xmm6
	vaddsd	%xmm1, %xmm6, %xmm1
	vucomisd	%xmm0, %xmm0
	jp	.LBB0_56
.Ltmp258:
.LBB0_58:                               #   in Loop: Header=BB0_21 Depth=1
	#DEBUG_VALUE: main:n <- 5
	#DEBUG_VALUE: main:res1 <- 0.000000e+00
	#DEBUG_VALUE: main:res2 <- 0.000000e+00
	#DEBUG_VALUE: main:res3 <- 0.000000e+00
	#DEBUG_VALUE: main:res4 <- 0.000000e+00
	#DEBUG_VALUE: main:res5 <- 0.000000e+00
	#DEBUG_VALUE: main:res6 <- 0.000000e+00
	#DEBUG_VALUE: main:res7 <- 0.000000e+00
	#DEBUG_VALUE: main:res8 <- 0.000000e+00
	#DEBUG_VALUE: main:res9 <- 0.000000e+00
	#DEBUG_VALUE: main:res10 <- 0.000000e+00
	#DEBUG_VALUE: main:res11 <- 0.000000e+00
	#DEBUG_VALUE: main:res12 <- 0.000000e+00
	#DEBUG_VALUE: main:in <- 100000000
	#DEBUG_VALUE: main:n_times <- 0
	#DEBUG_VALUE: main:n_warmup <- 0
	#DEBUG_VALUE: main:up <- [DW_OP_plus_uconst 48] [$rsp+0]
	#DEBUG_VALUE: main:v3 <- [DW_OP_plus_uconst 128] [$rsp+0]
	#DEBUG_VALUE: main:v1 <- [DW_OP_plus_uconst 120] [$rsp+0]
	#DEBUG_VALUE: main:v2 <- [DW_OP_plus_uconst 112] [$rsp+0]
	#DEBUG_VALUE: main:psi <- [DW_OP_plus_uconst 40] [$rsp+0]
	#DEBUG_VALUE: main:psi2 <- [DW_OP_plus_uconst 32] [$rsp+0]
	#DEBUG_VALUE: main:chi <- [DW_OP_plus_uconst 152] [$rsp+0]
	#DEBUG_VALUE: main:chi2 <- [DW_OP_plus_uconst 144] [$rsp+0]
	#DEBUG_VALUE: main:chi3 <- [DW_OP_plus_uconst 184] [$rsp+0]
	#DEBUG_VALUE: main:chi4 <- [DW_OP_plus_uconst 176] [$rsp+0]
	#DEBUG_VALUE: main:chi5 <- [DW_OP_plus_uconst 72] [$rsp+0]
	#DEBUG_VALUE: main:chi6 <- [DW_OP_plus_uconst 64] [$rsp+0]
	leaq	(%r10,%rax), %rbx
	addq	$8, %rbx
	vaddsd	(%r15), %xmm0, %xmm0
	vaddsd	(%rbx), %xmm1, %xmm1
	vmovsd	%xmm0, (%r15)
	vmovsd	%xmm1, (%rbx)
	vmovsd	32(%rcx), %xmm4                 # xmm4 = mem[0],zero
	vmovsd	40(%rcx), %xmm5                 # xmm5 = mem[0],zero
	vmovsd	32(%rsi), %xmm2                 # xmm2 = mem[0],zero
	vmovsd	40(%rsi), %xmm3                 # xmm3 = mem[0],zero
	vmulsd	%xmm2, %xmm4, %xmm0
	vmulsd	%xmm3, %xmm5, %xmm1
	vsubsd	%xmm1, %xmm0, %xmm0
	vmulsd	%xmm3, %xmm4, %xmm1
	vmulsd	%xmm2, %xmm5, %xmm6
	vaddsd	%xmm1, %xmm6, %xmm1
	vucomisd	%xmm0, %xmm0
	jp	.LBB0_59
.Ltmp259:
.LBB0_61:                               #   in Loop: Header=BB0_21 Depth=1
	#DEBUG_VALUE: main:n <- 5
	#DEBUG_VALUE: main:res1 <- 0.000000e+00
	#DEBUG_VALUE: main:res2 <- 0.000000e+00
	#DEBUG_VALUE: main:res3 <- 0.000000e+00
	#DEBUG_VALUE: main:res4 <- 0.000000e+00
	#DEBUG_VALUE: main:res5 <- 0.000000e+00
	#DEBUG_VALUE: main:res6 <- 0.000000e+00
	#DEBUG_VALUE: main:res7 <- 0.000000e+00
	#DEBUG_VALUE: main:res8 <- 0.000000e+00
	#DEBUG_VALUE: main:res9 <- 0.000000e+00
	#DEBUG_VALUE: main:res10 <- 0.000000e+00
	#DEBUG_VALUE: main:res11 <- 0.000000e+00
	#DEBUG_VALUE: main:res12 <- 0.000000e+00
	#DEBUG_VALUE: main:in <- 100000000
	#DEBUG_VALUE: main:n_times <- 0
	#DEBUG_VALUE: main:n_warmup <- 0
	#DEBUG_VALUE: main:up <- [DW_OP_plus_uconst 48] [$rsp+0]
	#DEBUG_VALUE: main:v3 <- [DW_OP_plus_uconst 128] [$rsp+0]
	#DEBUG_VALUE: main:v1 <- [DW_OP_plus_uconst 120] [$rsp+0]
	#DEBUG_VALUE: main:v2 <- [DW_OP_plus_uconst 112] [$rsp+0]
	#DEBUG_VALUE: main:psi <- [DW_OP_plus_uconst 40] [$rsp+0]
	#DEBUG_VALUE: main:psi2 <- [DW_OP_plus_uconst 32] [$rsp+0]
	#DEBUG_VALUE: main:chi <- [DW_OP_plus_uconst 152] [$rsp+0]
	#DEBUG_VALUE: main:chi2 <- [DW_OP_plus_uconst 144] [$rsp+0]
	#DEBUG_VALUE: main:chi3 <- [DW_OP_plus_uconst 184] [$rsp+0]
	#DEBUG_VALUE: main:chi4 <- [DW_OP_plus_uconst 176] [$rsp+0]
	#DEBUG_VALUE: main:chi5 <- [DW_OP_plus_uconst 72] [$rsp+0]
	#DEBUG_VALUE: main:chi6 <- [DW_OP_plus_uconst 64] [$rsp+0]
	vaddsd	(%r15), %xmm0, %xmm0
	vaddsd	(%rbx), %xmm1, %xmm1
	vmovsd	%xmm0, (%r15)
	vmovsd	%xmm1, (%rbx)
	vmovsd	48(%rcx), %xmm4                 # xmm4 = mem[0],zero
	vmovsd	56(%rcx), %xmm5                 # xmm5 = mem[0],zero
	vmovsd	(%rsi), %xmm2                   # xmm2 = mem[0],zero
	vmovsd	8(%rsi), %xmm3                  # xmm3 = mem[0],zero
	vmulsd	%xmm2, %xmm4, %xmm0
	vmulsd	%xmm3, %xmm5, %xmm1
	vsubsd	%xmm1, %xmm0, %xmm0
	vmulsd	%xmm3, %xmm4, %xmm1
	vmulsd	%xmm2, %xmm5, %xmm6
	vaddsd	%xmm1, %xmm6, %xmm1
	vucomisd	%xmm0, %xmm0
	jp	.LBB0_62
.Ltmp260:
.LBB0_64:                               #   in Loop: Header=BB0_21 Depth=1
	#DEBUG_VALUE: main:n <- 5
	#DEBUG_VALUE: main:res1 <- 0.000000e+00
	#DEBUG_VALUE: main:res2 <- 0.000000e+00
	#DEBUG_VALUE: main:res3 <- 0.000000e+00
	#DEBUG_VALUE: main:res4 <- 0.000000e+00
	#DEBUG_VALUE: main:res5 <- 0.000000e+00
	#DEBUG_VALUE: main:res6 <- 0.000000e+00
	#DEBUG_VALUE: main:res7 <- 0.000000e+00
	#DEBUG_VALUE: main:res8 <- 0.000000e+00
	#DEBUG_VALUE: main:res9 <- 0.000000e+00
	#DEBUG_VALUE: main:res10 <- 0.000000e+00
	#DEBUG_VALUE: main:res11 <- 0.000000e+00
	#DEBUG_VALUE: main:res12 <- 0.000000e+00
	#DEBUG_VALUE: main:in <- 100000000
	#DEBUG_VALUE: main:n_times <- 0
	#DEBUG_VALUE: main:n_warmup <- 0
	#DEBUG_VALUE: main:up <- [DW_OP_plus_uconst 48] [$rsp+0]
	#DEBUG_VALUE: main:v3 <- [DW_OP_plus_uconst 128] [$rsp+0]
	#DEBUG_VALUE: main:v1 <- [DW_OP_plus_uconst 120] [$rsp+0]
	#DEBUG_VALUE: main:v2 <- [DW_OP_plus_uconst 112] [$rsp+0]
	#DEBUG_VALUE: main:psi <- [DW_OP_plus_uconst 40] [$rsp+0]
	#DEBUG_VALUE: main:psi2 <- [DW_OP_plus_uconst 32] [$rsp+0]
	#DEBUG_VALUE: main:chi <- [DW_OP_plus_uconst 152] [$rsp+0]
	#DEBUG_VALUE: main:chi2 <- [DW_OP_plus_uconst 144] [$rsp+0]
	#DEBUG_VALUE: main:chi3 <- [DW_OP_plus_uconst 184] [$rsp+0]
	#DEBUG_VALUE: main:chi4 <- [DW_OP_plus_uconst 176] [$rsp+0]
	#DEBUG_VALUE: main:chi5 <- [DW_OP_plus_uconst 72] [$rsp+0]
	#DEBUG_VALUE: main:chi6 <- [DW_OP_plus_uconst 64] [$rsp+0]
	vmovsd	%xmm0, 16(%r10,%rax)
	vmovsd	%xmm1, 24(%r10,%rax)
	vmovsd	64(%rcx), %xmm4                 # xmm4 = mem[0],zero
	vmovsd	72(%rcx), %xmm5                 # xmm5 = mem[0],zero
	vmovsd	16(%rsi), %xmm2                 # xmm2 = mem[0],zero
	vmovsd	24(%rsi), %xmm3                 # xmm3 = mem[0],zero
	vmulsd	%xmm2, %xmm4, %xmm0
	vmulsd	%xmm3, %xmm5, %xmm1
	vsubsd	%xmm1, %xmm0, %xmm0
	vmulsd	%xmm3, %xmm4, %xmm1
	vmulsd	%xmm2, %xmm5, %xmm6
	vaddsd	%xmm1, %xmm6, %xmm1
	vucomisd	%xmm0, %xmm0
	jp	.LBB0_65
.Ltmp261:
.LBB0_67:                               #   in Loop: Header=BB0_21 Depth=1
	#DEBUG_VALUE: main:n <- 5
	#DEBUG_VALUE: main:res1 <- 0.000000e+00
	#DEBUG_VALUE: main:res2 <- 0.000000e+00
	#DEBUG_VALUE: main:res3 <- 0.000000e+00
	#DEBUG_VALUE: main:res4 <- 0.000000e+00
	#DEBUG_VALUE: main:res5 <- 0.000000e+00
	#DEBUG_VALUE: main:res6 <- 0.000000e+00
	#DEBUG_VALUE: main:res7 <- 0.000000e+00
	#DEBUG_VALUE: main:res8 <- 0.000000e+00
	#DEBUG_VALUE: main:res9 <- 0.000000e+00
	#DEBUG_VALUE: main:res10 <- 0.000000e+00
	#DEBUG_VALUE: main:res11 <- 0.000000e+00
	#DEBUG_VALUE: main:res12 <- 0.000000e+00
	#DEBUG_VALUE: main:in <- 100000000
	#DEBUG_VALUE: main:n_times <- 0
	#DEBUG_VALUE: main:n_warmup <- 0
	#DEBUG_VALUE: main:up <- [DW_OP_plus_uconst 48] [$rsp+0]
	#DEBUG_VALUE: main:v3 <- [DW_OP_plus_uconst 128] [$rsp+0]
	#DEBUG_VALUE: main:v1 <- [DW_OP_plus_uconst 120] [$rsp+0]
	#DEBUG_VALUE: main:v2 <- [DW_OP_plus_uconst 112] [$rsp+0]
	#DEBUG_VALUE: main:psi <- [DW_OP_plus_uconst 40] [$rsp+0]
	#DEBUG_VALUE: main:psi2 <- [DW_OP_plus_uconst 32] [$rsp+0]
	#DEBUG_VALUE: main:chi <- [DW_OP_plus_uconst 152] [$rsp+0]
	#DEBUG_VALUE: main:chi2 <- [DW_OP_plus_uconst 144] [$rsp+0]
	#DEBUG_VALUE: main:chi3 <- [DW_OP_plus_uconst 184] [$rsp+0]
	#DEBUG_VALUE: main:chi4 <- [DW_OP_plus_uconst 176] [$rsp+0]
	#DEBUG_VALUE: main:chi5 <- [DW_OP_plus_uconst 72] [$rsp+0]
	#DEBUG_VALUE: main:chi6 <- [DW_OP_plus_uconst 64] [$rsp+0]
	leaq	(%r10,%rax), %rbx
	addq	$16, %rbx
	vaddsd	(%rbx), %xmm0, %xmm0
	vaddsd	8(%rbx), %xmm1, %xmm1
	vmovsd	%xmm0, (%rbx)
	vmovsd	%xmm1, 8(%rbx)
	vmovsd	80(%rcx), %xmm4                 # xmm4 = mem[0],zero
	vmovsd	88(%rcx), %xmm5                 # xmm5 = mem[0],zero
	vmovsd	32(%rsi), %xmm2                 # xmm2 = mem[0],zero
	vmovsd	40(%rsi), %xmm3                 # xmm3 = mem[0],zero
	vmulsd	%xmm2, %xmm4, %xmm0
	vmulsd	%xmm3, %xmm5, %xmm1
	vsubsd	%xmm1, %xmm0, %xmm0
	vmulsd	%xmm3, %xmm4, %xmm1
	vmulsd	%xmm2, %xmm5, %xmm6
	vaddsd	%xmm1, %xmm6, %xmm1
	vucomisd	%xmm0, %xmm0
	jp	.LBB0_68
.Ltmp262:
.LBB0_70:                               #   in Loop: Header=BB0_21 Depth=1
	#DEBUG_VALUE: main:n <- 5
	#DEBUG_VALUE: main:res1 <- 0.000000e+00
	#DEBUG_VALUE: main:res2 <- 0.000000e+00
	#DEBUG_VALUE: main:res3 <- 0.000000e+00
	#DEBUG_VALUE: main:res4 <- 0.000000e+00
	#DEBUG_VALUE: main:res5 <- 0.000000e+00
	#DEBUG_VALUE: main:res6 <- 0.000000e+00
	#DEBUG_VALUE: main:res7 <- 0.000000e+00
	#DEBUG_VALUE: main:res8 <- 0.000000e+00
	#DEBUG_VALUE: main:res9 <- 0.000000e+00
	#DEBUG_VALUE: main:res10 <- 0.000000e+00
	#DEBUG_VALUE: main:res11 <- 0.000000e+00
	#DEBUG_VALUE: main:res12 <- 0.000000e+00
	#DEBUG_VALUE: main:in <- 100000000
	#DEBUG_VALUE: main:n_times <- 0
	#DEBUG_VALUE: main:n_warmup <- 0
	#DEBUG_VALUE: main:up <- [DW_OP_plus_uconst 48] [$rsp+0]
	#DEBUG_VALUE: main:v3 <- [DW_OP_plus_uconst 128] [$rsp+0]
	#DEBUG_VALUE: main:v1 <- [DW_OP_plus_uconst 120] [$rsp+0]
	#DEBUG_VALUE: main:v2 <- [DW_OP_plus_uconst 112] [$rsp+0]
	#DEBUG_VALUE: main:psi <- [DW_OP_plus_uconst 40] [$rsp+0]
	#DEBUG_VALUE: main:psi2 <- [DW_OP_plus_uconst 32] [$rsp+0]
	#DEBUG_VALUE: main:chi <- [DW_OP_plus_uconst 152] [$rsp+0]
	#DEBUG_VALUE: main:chi2 <- [DW_OP_plus_uconst 144] [$rsp+0]
	#DEBUG_VALUE: main:chi3 <- [DW_OP_plus_uconst 184] [$rsp+0]
	#DEBUG_VALUE: main:chi4 <- [DW_OP_plus_uconst 176] [$rsp+0]
	#DEBUG_VALUE: main:chi5 <- [DW_OP_plus_uconst 72] [$rsp+0]
	#DEBUG_VALUE: main:chi6 <- [DW_OP_plus_uconst 64] [$rsp+0]
	vaddsd	(%rbx), %xmm0, %xmm0
	vaddsd	8(%rbx), %xmm1, %xmm1
	vmovsd	%xmm0, (%rbx)
	vmovsd	%xmm1, 8(%rbx)
	vmovsd	96(%rcx), %xmm4                 # xmm4 = mem[0],zero
	vmovsd	104(%rcx), %xmm5                # xmm5 = mem[0],zero
	vmovsd	(%rsi), %xmm2                   # xmm2 = mem[0],zero
	vmovsd	8(%rsi), %xmm3                  # xmm3 = mem[0],zero
	vmulsd	%xmm2, %xmm4, %xmm0
	vmulsd	%xmm3, %xmm5, %xmm1
	vsubsd	%xmm1, %xmm0, %xmm0
	vmulsd	%xmm3, %xmm4, %xmm1
	vmulsd	%xmm2, %xmm5, %xmm6
	vaddsd	%xmm1, %xmm6, %xmm1
	vucomisd	%xmm0, %xmm0
	jp	.LBB0_71
.Ltmp263:
.LBB0_73:                               #   in Loop: Header=BB0_21 Depth=1
	#DEBUG_VALUE: main:n <- 5
	#DEBUG_VALUE: main:res1 <- 0.000000e+00
	#DEBUG_VALUE: main:res2 <- 0.000000e+00
	#DEBUG_VALUE: main:res3 <- 0.000000e+00
	#DEBUG_VALUE: main:res4 <- 0.000000e+00
	#DEBUG_VALUE: main:res5 <- 0.000000e+00
	#DEBUG_VALUE: main:res6 <- 0.000000e+00
	#DEBUG_VALUE: main:res7 <- 0.000000e+00
	#DEBUG_VALUE: main:res8 <- 0.000000e+00
	#DEBUG_VALUE: main:res9 <- 0.000000e+00
	#DEBUG_VALUE: main:res10 <- 0.000000e+00
	#DEBUG_VALUE: main:res11 <- 0.000000e+00
	#DEBUG_VALUE: main:res12 <- 0.000000e+00
	#DEBUG_VALUE: main:in <- 100000000
	#DEBUG_VALUE: main:n_times <- 0
	#DEBUG_VALUE: main:n_warmup <- 0
	#DEBUG_VALUE: main:up <- [DW_OP_plus_uconst 48] [$rsp+0]
	#DEBUG_VALUE: main:v3 <- [DW_OP_plus_uconst 128] [$rsp+0]
	#DEBUG_VALUE: main:v1 <- [DW_OP_plus_uconst 120] [$rsp+0]
	#DEBUG_VALUE: main:v2 <- [DW_OP_plus_uconst 112] [$rsp+0]
	#DEBUG_VALUE: main:psi <- [DW_OP_plus_uconst 40] [$rsp+0]
	#DEBUG_VALUE: main:psi2 <- [DW_OP_plus_uconst 32] [$rsp+0]
	#DEBUG_VALUE: main:chi <- [DW_OP_plus_uconst 152] [$rsp+0]
	#DEBUG_VALUE: main:chi2 <- [DW_OP_plus_uconst 144] [$rsp+0]
	#DEBUG_VALUE: main:chi3 <- [DW_OP_plus_uconst 184] [$rsp+0]
	#DEBUG_VALUE: main:chi4 <- [DW_OP_plus_uconst 176] [$rsp+0]
	#DEBUG_VALUE: main:chi5 <- [DW_OP_plus_uconst 72] [$rsp+0]
	#DEBUG_VALUE: main:chi6 <- [DW_OP_plus_uconst 64] [$rsp+0]
	vmovsd	%xmm0, 32(%r10,%rax)
	vmovsd	%xmm1, 40(%r10,%rax)
	vmovsd	112(%rcx), %xmm4                # xmm4 = mem[0],zero
	vmovsd	120(%rcx), %xmm5                # xmm5 = mem[0],zero
	vmovsd	16(%rsi), %xmm2                 # xmm2 = mem[0],zero
	vmovsd	24(%rsi), %xmm3                 # xmm3 = mem[0],zero
	vmulsd	%xmm2, %xmm4, %xmm0
	vmulsd	%xmm3, %xmm5, %xmm1
	vsubsd	%xmm1, %xmm0, %xmm0
	vmulsd	%xmm3, %xmm4, %xmm1
	vmulsd	%xmm2, %xmm5, %xmm6
	vaddsd	%xmm1, %xmm6, %xmm1
	vucomisd	%xmm0, %xmm0
	jp	.LBB0_74
.Ltmp264:
.LBB0_76:                               #   in Loop: Header=BB0_21 Depth=1
	#DEBUG_VALUE: main:n <- 5
	#DEBUG_VALUE: main:res1 <- 0.000000e+00
	#DEBUG_VALUE: main:res2 <- 0.000000e+00
	#DEBUG_VALUE: main:res3 <- 0.000000e+00
	#DEBUG_VALUE: main:res4 <- 0.000000e+00
	#DEBUG_VALUE: main:res5 <- 0.000000e+00
	#DEBUG_VALUE: main:res6 <- 0.000000e+00
	#DEBUG_VALUE: main:res7 <- 0.000000e+00
	#DEBUG_VALUE: main:res8 <- 0.000000e+00
	#DEBUG_VALUE: main:res9 <- 0.000000e+00
	#DEBUG_VALUE: main:res10 <- 0.000000e+00
	#DEBUG_VALUE: main:res11 <- 0.000000e+00
	#DEBUG_VALUE: main:res12 <- 0.000000e+00
	#DEBUG_VALUE: main:in <- 100000000
	#DEBUG_VALUE: main:n_times <- 0
	#DEBUG_VALUE: main:n_warmup <- 0
	#DEBUG_VALUE: main:up <- [DW_OP_plus_uconst 48] [$rsp+0]
	#DEBUG_VALUE: main:v3 <- [DW_OP_plus_uconst 128] [$rsp+0]
	#DEBUG_VALUE: main:v1 <- [DW_OP_plus_uconst 120] [$rsp+0]
	#DEBUG_VALUE: main:v2 <- [DW_OP_plus_uconst 112] [$rsp+0]
	#DEBUG_VALUE: main:psi <- [DW_OP_plus_uconst 40] [$rsp+0]
	#DEBUG_VALUE: main:psi2 <- [DW_OP_plus_uconst 32] [$rsp+0]
	#DEBUG_VALUE: main:chi <- [DW_OP_plus_uconst 152] [$rsp+0]
	#DEBUG_VALUE: main:chi2 <- [DW_OP_plus_uconst 144] [$rsp+0]
	#DEBUG_VALUE: main:chi3 <- [DW_OP_plus_uconst 184] [$rsp+0]
	#DEBUG_VALUE: main:chi4 <- [DW_OP_plus_uconst 176] [$rsp+0]
	#DEBUG_VALUE: main:chi5 <- [DW_OP_plus_uconst 72] [$rsp+0]
	#DEBUG_VALUE: main:chi6 <- [DW_OP_plus_uconst 64] [$rsp+0]
	leaq	(%r10,%rax), %rbx
	addq	$32, %rbx
	vaddsd	(%rbx), %xmm0, %xmm0
	vaddsd	8(%rbx), %xmm1, %xmm1
	vmovsd	%xmm0, (%rbx)
	vmovsd	%xmm1, 8(%rbx)
	vmovsd	128(%rcx), %xmm4                # xmm4 = mem[0],zero
	vmovsd	136(%rcx), %xmm5                # xmm5 = mem[0],zero
	vmovsd	32(%rsi), %xmm2                 # xmm2 = mem[0],zero
	vmovsd	40(%rsi), %xmm3                 # xmm3 = mem[0],zero
	vmulsd	%xmm2, %xmm4, %xmm0
	vmulsd	%xmm3, %xmm5, %xmm1
	vsubsd	%xmm1, %xmm0, %xmm0
	vmulsd	%xmm3, %xmm4, %xmm1
	vmulsd	%xmm2, %xmm5, %xmm6
	vaddsd	%xmm1, %xmm6, %xmm1
	vucomisd	%xmm0, %xmm0
	jp	.LBB0_77
.Ltmp265:
.LBB0_79:                               #   in Loop: Header=BB0_21 Depth=1
	#DEBUG_VALUE: main:n <- 5
	#DEBUG_VALUE: main:res1 <- 0.000000e+00
	#DEBUG_VALUE: main:res2 <- 0.000000e+00
	#DEBUG_VALUE: main:res3 <- 0.000000e+00
	#DEBUG_VALUE: main:res4 <- 0.000000e+00
	#DEBUG_VALUE: main:res5 <- 0.000000e+00
	#DEBUG_VALUE: main:res6 <- 0.000000e+00
	#DEBUG_VALUE: main:res7 <- 0.000000e+00
	#DEBUG_VALUE: main:res8 <- 0.000000e+00
	#DEBUG_VALUE: main:res9 <- 0.000000e+00
	#DEBUG_VALUE: main:res10 <- 0.000000e+00
	#DEBUG_VALUE: main:res11 <- 0.000000e+00
	#DEBUG_VALUE: main:res12 <- 0.000000e+00
	#DEBUG_VALUE: main:in <- 100000000
	#DEBUG_VALUE: main:n_times <- 0
	#DEBUG_VALUE: main:n_warmup <- 0
	#DEBUG_VALUE: main:up <- [DW_OP_plus_uconst 48] [$rsp+0]
	#DEBUG_VALUE: main:v3 <- [DW_OP_plus_uconst 128] [$rsp+0]
	#DEBUG_VALUE: main:v1 <- [DW_OP_plus_uconst 120] [$rsp+0]
	#DEBUG_VALUE: main:v2 <- [DW_OP_plus_uconst 112] [$rsp+0]
	#DEBUG_VALUE: main:psi <- [DW_OP_plus_uconst 40] [$rsp+0]
	#DEBUG_VALUE: main:psi2 <- [DW_OP_plus_uconst 32] [$rsp+0]
	#DEBUG_VALUE: main:chi <- [DW_OP_plus_uconst 152] [$rsp+0]
	#DEBUG_VALUE: main:chi2 <- [DW_OP_plus_uconst 144] [$rsp+0]
	#DEBUG_VALUE: main:chi3 <- [DW_OP_plus_uconst 184] [$rsp+0]
	#DEBUG_VALUE: main:chi4 <- [DW_OP_plus_uconst 176] [$rsp+0]
	#DEBUG_VALUE: main:chi5 <- [DW_OP_plus_uconst 72] [$rsp+0]
	#DEBUG_VALUE: main:chi6 <- [DW_OP_plus_uconst 64] [$rsp+0]
	vaddsd	(%rbx), %xmm0, %xmm0
	vaddsd	8(%rbx), %xmm1, %xmm1
	vmovsd	%xmm0, (%rbx)
	vmovsd	%xmm1, 8(%rbx)
.Ltmp266:
	.loc	0 236 19                        # avx_complex_vec_align_load.c:236:19
	incq	%r9
.Ltmp267:
	#DEBUG_VALUE: main:i <- $r9
	.loc	0 236 3 is_stmt 0               # avx_complex_vec_align_load.c:236:3
	addq	$48, %rdi
	addq	$48, %rdx
	movq	104(%rsp), %rbx                 # 8-byte Reload
	addq	$48, %rbx
	addq	$48, %r13
	addq	$144, %r12
	addq	$144, %r14
.Ltmp268:
	.loc	0 236 13                        # avx_complex_vec_align_load.c:236:13
	cmpq	$100000000, %r9                 # imm = 0x5F5E100
.Ltmp269:
	.loc	0 236 3                         # avx_complex_vec_align_load.c:236:3
	jne	.LBB0_21
	jmp	.LBB0_80
.Ltmp270:
.LBB0_26:                               #   in Loop: Header=BB0_21 Depth=1
	#DEBUG_VALUE: main:n <- 5
	#DEBUG_VALUE: main:res1 <- 0.000000e+00
	#DEBUG_VALUE: main:res2 <- 0.000000e+00
	#DEBUG_VALUE: main:res3 <- 0.000000e+00
	#DEBUG_VALUE: main:res4 <- 0.000000e+00
	#DEBUG_VALUE: main:res5 <- 0.000000e+00
	#DEBUG_VALUE: main:res6 <- 0.000000e+00
	#DEBUG_VALUE: main:res7 <- 0.000000e+00
	#DEBUG_VALUE: main:res8 <- 0.000000e+00
	#DEBUG_VALUE: main:res9 <- 0.000000e+00
	#DEBUG_VALUE: main:res10 <- 0.000000e+00
	#DEBUG_VALUE: main:res11 <- 0.000000e+00
	#DEBUG_VALUE: main:res12 <- 0.000000e+00
	#DEBUG_VALUE: main:in <- 100000000
	#DEBUG_VALUE: main:n_times <- 0
	#DEBUG_VALUE: main:n_warmup <- 0
	#DEBUG_VALUE: main:up <- [DW_OP_plus_uconst 48] [$rsp+0]
	#DEBUG_VALUE: main:v3 <- [DW_OP_plus_uconst 128] [$rsp+0]
	#DEBUG_VALUE: main:v1 <- [DW_OP_plus_uconst 120] [$rsp+0]
	#DEBUG_VALUE: main:v2 <- [DW_OP_plus_uconst 112] [$rsp+0]
	#DEBUG_VALUE: main:psi <- [DW_OP_plus_uconst 40] [$rsp+0]
	#DEBUG_VALUE: main:psi2 <- [DW_OP_plus_uconst 32] [$rsp+0]
	#DEBUG_VALUE: main:chi <- [DW_OP_plus_uconst 152] [$rsp+0]
	#DEBUG_VALUE: main:chi2 <- [DW_OP_plus_uconst 144] [$rsp+0]
	#DEBUG_VALUE: main:chi3 <- [DW_OP_plus_uconst 184] [$rsp+0]
	#DEBUG_VALUE: main:chi4 <- [DW_OP_plus_uconst 176] [$rsp+0]
	#DEBUG_VALUE: main:chi5 <- [DW_OP_plus_uconst 72] [$rsp+0]
	#DEBUG_VALUE: main:chi6 <- [DW_OP_plus_uconst 64] [$rsp+0]
	#DEBUG_VALUE: main:i <- $r9
	.loc	0 250 3 is_stmt 1               # avx_complex_vec_align_load.c:250:3
	vucomisd	%xmm1, %xmm1
	jnp	.LBB0_28
.Ltmp271:
# %bb.27:                               #   in Loop: Header=BB0_21 Depth=1
	#DEBUG_VALUE: main:n <- 5
	#DEBUG_VALUE: main:res1 <- 0.000000e+00
	#DEBUG_VALUE: main:res2 <- 0.000000e+00
	#DEBUG_VALUE: main:res3 <- 0.000000e+00
	#DEBUG_VALUE: main:res4 <- 0.000000e+00
	#DEBUG_VALUE: main:res5 <- 0.000000e+00
	#DEBUG_VALUE: main:res6 <- 0.000000e+00
	#DEBUG_VALUE: main:res7 <- 0.000000e+00
	#DEBUG_VALUE: main:res8 <- 0.000000e+00
	#DEBUG_VALUE: main:res9 <- 0.000000e+00
	#DEBUG_VALUE: main:res10 <- 0.000000e+00
	#DEBUG_VALUE: main:res11 <- 0.000000e+00
	#DEBUG_VALUE: main:res12 <- 0.000000e+00
	#DEBUG_VALUE: main:in <- 100000000
	#DEBUG_VALUE: main:n_times <- 0
	#DEBUG_VALUE: main:n_warmup <- 0
	#DEBUG_VALUE: main:up <- [DW_OP_plus_uconst 48] [$rsp+0]
	#DEBUG_VALUE: main:v3 <- [DW_OP_plus_uconst 128] [$rsp+0]
	#DEBUG_VALUE: main:v1 <- [DW_OP_plus_uconst 120] [$rsp+0]
	#DEBUG_VALUE: main:v2 <- [DW_OP_plus_uconst 112] [$rsp+0]
	#DEBUG_VALUE: main:psi <- [DW_OP_plus_uconst 40] [$rsp+0]
	#DEBUG_VALUE: main:psi2 <- [DW_OP_plus_uconst 32] [$rsp+0]
	#DEBUG_VALUE: main:chi <- [DW_OP_plus_uconst 152] [$rsp+0]
	#DEBUG_VALUE: main:chi2 <- [DW_OP_plus_uconst 144] [$rsp+0]
	#DEBUG_VALUE: main:chi3 <- [DW_OP_plus_uconst 184] [$rsp+0]
	#DEBUG_VALUE: main:chi4 <- [DW_OP_plus_uconst 176] [$rsp+0]
	#DEBUG_VALUE: main:chi5 <- [DW_OP_plus_uconst 72] [$rsp+0]
	#DEBUG_VALUE: main:chi6 <- [DW_OP_plus_uconst 64] [$rsp+0]
	#DEBUG_VALUE: main:i <- $r9
	vmovapd	%xmm4, %xmm0
	vmovapd	%xmm5, %xmm1
	movq	%r9, %rbx
	#DEBUG_VALUE: main:i <- $r9
.Ltmp272:
	#DEBUG_VALUE: main:i <- $rbx
	.loc	0 0 3 is_stmt 0                 # avx_complex_vec_align_load.c:0:3
	movq	%rdi, 56(%rsp)                  # 8-byte Spill
	movq	%rdx, %r15
	.loc	0 250 3                         # avx_complex_vec_align_load.c:250:3
	callq	__muldc3
.Ltmp273:
	#DEBUG_VALUE: main:i <- $rbx
	.loc	0 0 3                           # avx_complex_vec_align_load.c:0:3
	movq	%r15, %rdx
	movq	56(%rsp), %rdi                  # 8-byte Reload
	movq	%rbx, %r9
	movq	64(%rsp), %r10                  # 8-byte Reload
.Ltmp274:
	#DEBUG_VALUE: main:chi6 <- $r10
	movq	72(%rsp), %r8                   # 8-byte Reload
.Ltmp275:
	#DEBUG_VALUE: main:chi5 <- $r8
	movq	32(%rsp), %rsi                  # 8-byte Reload
.Ltmp276:
	#DEBUG_VALUE: main:psi2 <- $rsi
	movq	40(%rsp), %r11                  # 8-byte Reload
.Ltmp277:
	#DEBUG_VALUE: main:psi <- $r11
	movq	48(%rsp), %rcx                  # 8-byte Reload
.Ltmp278:
	#DEBUG_VALUE: main:up <- $rcx
	jmp	.LBB0_28
.Ltmp279:
.LBB0_29:                               #   in Loop: Header=BB0_21 Depth=1
	#DEBUG_VALUE: main:n <- 5
	#DEBUG_VALUE: main:res1 <- 0.000000e+00
	#DEBUG_VALUE: main:res2 <- 0.000000e+00
	#DEBUG_VALUE: main:res3 <- 0.000000e+00
	#DEBUG_VALUE: main:res4 <- 0.000000e+00
	#DEBUG_VALUE: main:res5 <- 0.000000e+00
	#DEBUG_VALUE: main:res6 <- 0.000000e+00
	#DEBUG_VALUE: main:res7 <- 0.000000e+00
	#DEBUG_VALUE: main:res8 <- 0.000000e+00
	#DEBUG_VALUE: main:res9 <- 0.000000e+00
	#DEBUG_VALUE: main:res10 <- 0.000000e+00
	#DEBUG_VALUE: main:res11 <- 0.000000e+00
	#DEBUG_VALUE: main:res12 <- 0.000000e+00
	#DEBUG_VALUE: main:in <- 100000000
	#DEBUG_VALUE: main:n_times <- 0
	#DEBUG_VALUE: main:n_warmup <- 0
	#DEBUG_VALUE: main:up <- [DW_OP_plus_uconst 48] [$rsp+0]
	#DEBUG_VALUE: main:v3 <- [DW_OP_plus_uconst 128] [$rsp+0]
	#DEBUG_VALUE: main:v1 <- [DW_OP_plus_uconst 120] [$rsp+0]
	#DEBUG_VALUE: main:v2 <- [DW_OP_plus_uconst 112] [$rsp+0]
	#DEBUG_VALUE: main:psi <- [DW_OP_plus_uconst 40] [$rsp+0]
	#DEBUG_VALUE: main:psi2 <- [DW_OP_plus_uconst 32] [$rsp+0]
	#DEBUG_VALUE: main:chi <- [DW_OP_plus_uconst 152] [$rsp+0]
	#DEBUG_VALUE: main:chi2 <- [DW_OP_plus_uconst 144] [$rsp+0]
	#DEBUG_VALUE: main:chi3 <- [DW_OP_plus_uconst 184] [$rsp+0]
	#DEBUG_VALUE: main:chi4 <- [DW_OP_plus_uconst 176] [$rsp+0]
	#DEBUG_VALUE: main:chi5 <- [DW_OP_plus_uconst 72] [$rsp+0]
	#DEBUG_VALUE: main:chi6 <- [DW_OP_plus_uconst 64] [$rsp+0]
	.loc	0 250 3                         # avx_complex_vec_align_load.c:250:3
	vucomisd	%xmm1, %xmm1
	jnp	.LBB0_31
.Ltmp280:
# %bb.30:                               #   in Loop: Header=BB0_21 Depth=1
	#DEBUG_VALUE: main:n <- 5
	#DEBUG_VALUE: main:res1 <- 0.000000e+00
	#DEBUG_VALUE: main:res2 <- 0.000000e+00
	#DEBUG_VALUE: main:res3 <- 0.000000e+00
	#DEBUG_VALUE: main:res4 <- 0.000000e+00
	#DEBUG_VALUE: main:res5 <- 0.000000e+00
	#DEBUG_VALUE: main:res6 <- 0.000000e+00
	#DEBUG_VALUE: main:res7 <- 0.000000e+00
	#DEBUG_VALUE: main:res8 <- 0.000000e+00
	#DEBUG_VALUE: main:res9 <- 0.000000e+00
	#DEBUG_VALUE: main:res10 <- 0.000000e+00
	#DEBUG_VALUE: main:res11 <- 0.000000e+00
	#DEBUG_VALUE: main:res12 <- 0.000000e+00
	#DEBUG_VALUE: main:in <- 100000000
	#DEBUG_VALUE: main:n_times <- 0
	#DEBUG_VALUE: main:n_warmup <- 0
	#DEBUG_VALUE: main:up <- [DW_OP_plus_uconst 48] [$rsp+0]
	#DEBUG_VALUE: main:v3 <- [DW_OP_plus_uconst 128] [$rsp+0]
	#DEBUG_VALUE: main:v1 <- [DW_OP_plus_uconst 120] [$rsp+0]
	#DEBUG_VALUE: main:v2 <- [DW_OP_plus_uconst 112] [$rsp+0]
	#DEBUG_VALUE: main:psi <- [DW_OP_plus_uconst 40] [$rsp+0]
	#DEBUG_VALUE: main:psi2 <- [DW_OP_plus_uconst 32] [$rsp+0]
	#DEBUG_VALUE: main:chi <- [DW_OP_plus_uconst 152] [$rsp+0]
	#DEBUG_VALUE: main:chi2 <- [DW_OP_plus_uconst 144] [$rsp+0]
	#DEBUG_VALUE: main:chi3 <- [DW_OP_plus_uconst 184] [$rsp+0]
	#DEBUG_VALUE: main:chi4 <- [DW_OP_plus_uconst 176] [$rsp+0]
	#DEBUG_VALUE: main:chi5 <- [DW_OP_plus_uconst 72] [$rsp+0]
	#DEBUG_VALUE: main:chi6 <- [DW_OP_plus_uconst 64] [$rsp+0]
	vmovapd	%xmm4, %xmm0
	vmovapd	%xmm5, %xmm1
	movq	%r9, %rbx
	movq	%rdi, 56(%rsp)                  # 8-byte Spill
	movq	%rdx, 24(%rsp)                  # 8-byte Spill
	movq	%rax, 88(%rsp)                  # 8-byte Spill
	callq	__muldc3
.Ltmp281:
	.loc	0 0 3                           # avx_complex_vec_align_load.c:0:3
	movq	88(%rsp), %rax                  # 8-byte Reload
	movq	24(%rsp), %rdx                  # 8-byte Reload
	movq	56(%rsp), %rdi                  # 8-byte Reload
	movq	%rbx, %r9
	movq	64(%rsp), %r10                  # 8-byte Reload
.Ltmp282:
	#DEBUG_VALUE: main:chi6 <- $r10
	movq	72(%rsp), %r8                   # 8-byte Reload
.Ltmp283:
	#DEBUG_VALUE: main:chi5 <- $r8
	movq	32(%rsp), %rsi                  # 8-byte Reload
.Ltmp284:
	#DEBUG_VALUE: main:psi2 <- $rsi
	movq	40(%rsp), %r11                  # 8-byte Reload
.Ltmp285:
	#DEBUG_VALUE: main:psi <- $r11
	movq	48(%rsp), %rcx                  # 8-byte Reload
.Ltmp286:
	#DEBUG_VALUE: main:up <- $rcx
	jmp	.LBB0_31
.Ltmp287:
.LBB0_32:                               #   in Loop: Header=BB0_21 Depth=1
	#DEBUG_VALUE: main:n <- 5
	#DEBUG_VALUE: main:res1 <- 0.000000e+00
	#DEBUG_VALUE: main:res2 <- 0.000000e+00
	#DEBUG_VALUE: main:res3 <- 0.000000e+00
	#DEBUG_VALUE: main:res4 <- 0.000000e+00
	#DEBUG_VALUE: main:res5 <- 0.000000e+00
	#DEBUG_VALUE: main:res6 <- 0.000000e+00
	#DEBUG_VALUE: main:res7 <- 0.000000e+00
	#DEBUG_VALUE: main:res8 <- 0.000000e+00
	#DEBUG_VALUE: main:res9 <- 0.000000e+00
	#DEBUG_VALUE: main:res10 <- 0.000000e+00
	#DEBUG_VALUE: main:res11 <- 0.000000e+00
	#DEBUG_VALUE: main:res12 <- 0.000000e+00
	#DEBUG_VALUE: main:in <- 100000000
	#DEBUG_VALUE: main:n_times <- 0
	#DEBUG_VALUE: main:n_warmup <- 0
	#DEBUG_VALUE: main:up <- [DW_OP_plus_uconst 48] [$rsp+0]
	#DEBUG_VALUE: main:v3 <- [DW_OP_plus_uconst 128] [$rsp+0]
	#DEBUG_VALUE: main:v1 <- [DW_OP_plus_uconst 120] [$rsp+0]
	#DEBUG_VALUE: main:v2 <- [DW_OP_plus_uconst 112] [$rsp+0]
	#DEBUG_VALUE: main:psi <- [DW_OP_plus_uconst 40] [$rsp+0]
	#DEBUG_VALUE: main:psi2 <- [DW_OP_plus_uconst 32] [$rsp+0]
	#DEBUG_VALUE: main:chi <- [DW_OP_plus_uconst 152] [$rsp+0]
	#DEBUG_VALUE: main:chi2 <- [DW_OP_plus_uconst 144] [$rsp+0]
	#DEBUG_VALUE: main:chi3 <- [DW_OP_plus_uconst 184] [$rsp+0]
	#DEBUG_VALUE: main:chi4 <- [DW_OP_plus_uconst 176] [$rsp+0]
	#DEBUG_VALUE: main:chi5 <- [DW_OP_plus_uconst 72] [$rsp+0]
	#DEBUG_VALUE: main:chi6 <- [DW_OP_plus_uconst 64] [$rsp+0]
	.loc	0 250 3                         # avx_complex_vec_align_load.c:250:3
	vucomisd	%xmm1, %xmm1
	jnp	.LBB0_34
.Ltmp288:
# %bb.33:                               #   in Loop: Header=BB0_21 Depth=1
	#DEBUG_VALUE: main:n <- 5
	#DEBUG_VALUE: main:res1 <- 0.000000e+00
	#DEBUG_VALUE: main:res2 <- 0.000000e+00
	#DEBUG_VALUE: main:res3 <- 0.000000e+00
	#DEBUG_VALUE: main:res4 <- 0.000000e+00
	#DEBUG_VALUE: main:res5 <- 0.000000e+00
	#DEBUG_VALUE: main:res6 <- 0.000000e+00
	#DEBUG_VALUE: main:res7 <- 0.000000e+00
	#DEBUG_VALUE: main:res8 <- 0.000000e+00
	#DEBUG_VALUE: main:res9 <- 0.000000e+00
	#DEBUG_VALUE: main:res10 <- 0.000000e+00
	#DEBUG_VALUE: main:res11 <- 0.000000e+00
	#DEBUG_VALUE: main:res12 <- 0.000000e+00
	#DEBUG_VALUE: main:in <- 100000000
	#DEBUG_VALUE: main:n_times <- 0
	#DEBUG_VALUE: main:n_warmup <- 0
	#DEBUG_VALUE: main:up <- [DW_OP_plus_uconst 48] [$rsp+0]
	#DEBUG_VALUE: main:v3 <- [DW_OP_plus_uconst 128] [$rsp+0]
	#DEBUG_VALUE: main:v1 <- [DW_OP_plus_uconst 120] [$rsp+0]
	#DEBUG_VALUE: main:v2 <- [DW_OP_plus_uconst 112] [$rsp+0]
	#DEBUG_VALUE: main:psi <- [DW_OP_plus_uconst 40] [$rsp+0]
	#DEBUG_VALUE: main:psi2 <- [DW_OP_plus_uconst 32] [$rsp+0]
	#DEBUG_VALUE: main:chi <- [DW_OP_plus_uconst 152] [$rsp+0]
	#DEBUG_VALUE: main:chi2 <- [DW_OP_plus_uconst 144] [$rsp+0]
	#DEBUG_VALUE: main:chi3 <- [DW_OP_plus_uconst 184] [$rsp+0]
	#DEBUG_VALUE: main:chi4 <- [DW_OP_plus_uconst 176] [$rsp+0]
	#DEBUG_VALUE: main:chi5 <- [DW_OP_plus_uconst 72] [$rsp+0]
	#DEBUG_VALUE: main:chi6 <- [DW_OP_plus_uconst 64] [$rsp+0]
	vmovapd	%xmm4, %xmm0
	vmovapd	%xmm5, %xmm1
	movq	%r9, 80(%rsp)                   # 8-byte Spill
	movq	%rdi, 56(%rsp)                  # 8-byte Spill
	movq	%rdx, 24(%rsp)                  # 8-byte Spill
	movq	%rax, 88(%rsp)                  # 8-byte Spill
	callq	__muldc3
.Ltmp289:
	.loc	0 0 3                           # avx_complex_vec_align_load.c:0:3
	movq	88(%rsp), %rax                  # 8-byte Reload
	movq	24(%rsp), %rdx                  # 8-byte Reload
	movq	56(%rsp), %rdi                  # 8-byte Reload
	movq	80(%rsp), %r9                   # 8-byte Reload
	movq	64(%rsp), %r10                  # 8-byte Reload
.Ltmp290:
	#DEBUG_VALUE: main:chi6 <- $r10
	movq	72(%rsp), %r8                   # 8-byte Reload
.Ltmp291:
	#DEBUG_VALUE: main:chi5 <- $r8
	movq	32(%rsp), %rsi                  # 8-byte Reload
.Ltmp292:
	#DEBUG_VALUE: main:psi2 <- $rsi
	movq	40(%rsp), %r11                  # 8-byte Reload
.Ltmp293:
	#DEBUG_VALUE: main:psi <- $r11
	movq	48(%rsp), %rcx                  # 8-byte Reload
.Ltmp294:
	#DEBUG_VALUE: main:up <- $rcx
	jmp	.LBB0_34
.Ltmp295:
.LBB0_35:                               #   in Loop: Header=BB0_21 Depth=1
	#DEBUG_VALUE: main:n <- 5
	#DEBUG_VALUE: main:res1 <- 0.000000e+00
	#DEBUG_VALUE: main:res2 <- 0.000000e+00
	#DEBUG_VALUE: main:res3 <- 0.000000e+00
	#DEBUG_VALUE: main:res4 <- 0.000000e+00
	#DEBUG_VALUE: main:res5 <- 0.000000e+00
	#DEBUG_VALUE: main:res6 <- 0.000000e+00
	#DEBUG_VALUE: main:res7 <- 0.000000e+00
	#DEBUG_VALUE: main:res8 <- 0.000000e+00
	#DEBUG_VALUE: main:res9 <- 0.000000e+00
	#DEBUG_VALUE: main:res10 <- 0.000000e+00
	#DEBUG_VALUE: main:res11 <- 0.000000e+00
	#DEBUG_VALUE: main:res12 <- 0.000000e+00
	#DEBUG_VALUE: main:in <- 100000000
	#DEBUG_VALUE: main:n_times <- 0
	#DEBUG_VALUE: main:n_warmup <- 0
	#DEBUG_VALUE: main:up <- [DW_OP_plus_uconst 48] [$rsp+0]
	#DEBUG_VALUE: main:v3 <- [DW_OP_plus_uconst 128] [$rsp+0]
	#DEBUG_VALUE: main:v1 <- [DW_OP_plus_uconst 120] [$rsp+0]
	#DEBUG_VALUE: main:v2 <- [DW_OP_plus_uconst 112] [$rsp+0]
	#DEBUG_VALUE: main:psi <- [DW_OP_plus_uconst 40] [$rsp+0]
	#DEBUG_VALUE: main:psi2 <- [DW_OP_plus_uconst 32] [$rsp+0]
	#DEBUG_VALUE: main:chi <- [DW_OP_plus_uconst 152] [$rsp+0]
	#DEBUG_VALUE: main:chi2 <- [DW_OP_plus_uconst 144] [$rsp+0]
	#DEBUG_VALUE: main:chi3 <- [DW_OP_plus_uconst 184] [$rsp+0]
	#DEBUG_VALUE: main:chi4 <- [DW_OP_plus_uconst 176] [$rsp+0]
	#DEBUG_VALUE: main:chi5 <- [DW_OP_plus_uconst 72] [$rsp+0]
	#DEBUG_VALUE: main:chi6 <- [DW_OP_plus_uconst 64] [$rsp+0]
	.loc	0 250 3                         # avx_complex_vec_align_load.c:250:3
	vucomisd	%xmm1, %xmm1
	jnp	.LBB0_37
.Ltmp296:
# %bb.36:                               #   in Loop: Header=BB0_21 Depth=1
	#DEBUG_VALUE: main:n <- 5
	#DEBUG_VALUE: main:res1 <- 0.000000e+00
	#DEBUG_VALUE: main:res2 <- 0.000000e+00
	#DEBUG_VALUE: main:res3 <- 0.000000e+00
	#DEBUG_VALUE: main:res4 <- 0.000000e+00
	#DEBUG_VALUE: main:res5 <- 0.000000e+00
	#DEBUG_VALUE: main:res6 <- 0.000000e+00
	#DEBUG_VALUE: main:res7 <- 0.000000e+00
	#DEBUG_VALUE: main:res8 <- 0.000000e+00
	#DEBUG_VALUE: main:res9 <- 0.000000e+00
	#DEBUG_VALUE: main:res10 <- 0.000000e+00
	#DEBUG_VALUE: main:res11 <- 0.000000e+00
	#DEBUG_VALUE: main:res12 <- 0.000000e+00
	#DEBUG_VALUE: main:in <- 100000000
	#DEBUG_VALUE: main:n_times <- 0
	#DEBUG_VALUE: main:n_warmup <- 0
	#DEBUG_VALUE: main:up <- [DW_OP_plus_uconst 48] [$rsp+0]
	#DEBUG_VALUE: main:v3 <- [DW_OP_plus_uconst 128] [$rsp+0]
	#DEBUG_VALUE: main:v1 <- [DW_OP_plus_uconst 120] [$rsp+0]
	#DEBUG_VALUE: main:v2 <- [DW_OP_plus_uconst 112] [$rsp+0]
	#DEBUG_VALUE: main:psi <- [DW_OP_plus_uconst 40] [$rsp+0]
	#DEBUG_VALUE: main:psi2 <- [DW_OP_plus_uconst 32] [$rsp+0]
	#DEBUG_VALUE: main:chi <- [DW_OP_plus_uconst 152] [$rsp+0]
	#DEBUG_VALUE: main:chi2 <- [DW_OP_plus_uconst 144] [$rsp+0]
	#DEBUG_VALUE: main:chi3 <- [DW_OP_plus_uconst 184] [$rsp+0]
	#DEBUG_VALUE: main:chi4 <- [DW_OP_plus_uconst 176] [$rsp+0]
	#DEBUG_VALUE: main:chi5 <- [DW_OP_plus_uconst 72] [$rsp+0]
	#DEBUG_VALUE: main:chi6 <- [DW_OP_plus_uconst 64] [$rsp+0]
	vmovapd	%xmm4, %xmm0
	vmovapd	%xmm5, %xmm1
	movq	%r9, %rbx
	movq	%rdi, 56(%rsp)                  # 8-byte Spill
	movq	%rdx, %r15
	movq	%rax, 88(%rsp)                  # 8-byte Spill
	callq	__muldc3
.Ltmp297:
	.loc	0 0 3                           # avx_complex_vec_align_load.c:0:3
	movq	88(%rsp), %rax                  # 8-byte Reload
	movq	%r15, %rdx
	movq	56(%rsp), %rdi                  # 8-byte Reload
	movq	%rbx, %r9
	movq	64(%rsp), %r10                  # 8-byte Reload
.Ltmp298:
	#DEBUG_VALUE: main:chi6 <- $r10
	movq	72(%rsp), %r8                   # 8-byte Reload
.Ltmp299:
	#DEBUG_VALUE: main:chi5 <- $r8
	movq	32(%rsp), %rsi                  # 8-byte Reload
.Ltmp300:
	#DEBUG_VALUE: main:psi2 <- $rsi
	movq	40(%rsp), %r11                  # 8-byte Reload
.Ltmp301:
	#DEBUG_VALUE: main:psi <- $r11
	movq	48(%rsp), %rcx                  # 8-byte Reload
.Ltmp302:
	#DEBUG_VALUE: main:up <- $rcx
	jmp	.LBB0_37
.Ltmp303:
.LBB0_38:                               #   in Loop: Header=BB0_21 Depth=1
	#DEBUG_VALUE: main:n <- 5
	#DEBUG_VALUE: main:res1 <- 0.000000e+00
	#DEBUG_VALUE: main:res2 <- 0.000000e+00
	#DEBUG_VALUE: main:res3 <- 0.000000e+00
	#DEBUG_VALUE: main:res4 <- 0.000000e+00
	#DEBUG_VALUE: main:res5 <- 0.000000e+00
	#DEBUG_VALUE: main:res6 <- 0.000000e+00
	#DEBUG_VALUE: main:res7 <- 0.000000e+00
	#DEBUG_VALUE: main:res8 <- 0.000000e+00
	#DEBUG_VALUE: main:res9 <- 0.000000e+00
	#DEBUG_VALUE: main:res10 <- 0.000000e+00
	#DEBUG_VALUE: main:res11 <- 0.000000e+00
	#DEBUG_VALUE: main:res12 <- 0.000000e+00
	#DEBUG_VALUE: main:in <- 100000000
	#DEBUG_VALUE: main:n_times <- 0
	#DEBUG_VALUE: main:n_warmup <- 0
	#DEBUG_VALUE: main:up <- [DW_OP_plus_uconst 48] [$rsp+0]
	#DEBUG_VALUE: main:v3 <- [DW_OP_plus_uconst 128] [$rsp+0]
	#DEBUG_VALUE: main:v1 <- [DW_OP_plus_uconst 120] [$rsp+0]
	#DEBUG_VALUE: main:v2 <- [DW_OP_plus_uconst 112] [$rsp+0]
	#DEBUG_VALUE: main:psi <- [DW_OP_plus_uconst 40] [$rsp+0]
	#DEBUG_VALUE: main:psi2 <- [DW_OP_plus_uconst 32] [$rsp+0]
	#DEBUG_VALUE: main:chi <- [DW_OP_plus_uconst 152] [$rsp+0]
	#DEBUG_VALUE: main:chi2 <- [DW_OP_plus_uconst 144] [$rsp+0]
	#DEBUG_VALUE: main:chi3 <- [DW_OP_plus_uconst 184] [$rsp+0]
	#DEBUG_VALUE: main:chi4 <- [DW_OP_plus_uconst 176] [$rsp+0]
	#DEBUG_VALUE: main:chi5 <- [DW_OP_plus_uconst 72] [$rsp+0]
	#DEBUG_VALUE: main:chi6 <- [DW_OP_plus_uconst 64] [$rsp+0]
	.loc	0 250 3                         # avx_complex_vec_align_load.c:250:3
	vucomisd	%xmm1, %xmm1
	jnp	.LBB0_40
.Ltmp304:
# %bb.39:                               #   in Loop: Header=BB0_21 Depth=1
	#DEBUG_VALUE: main:n <- 5
	#DEBUG_VALUE: main:res1 <- 0.000000e+00
	#DEBUG_VALUE: main:res2 <- 0.000000e+00
	#DEBUG_VALUE: main:res3 <- 0.000000e+00
	#DEBUG_VALUE: main:res4 <- 0.000000e+00
	#DEBUG_VALUE: main:res5 <- 0.000000e+00
	#DEBUG_VALUE: main:res6 <- 0.000000e+00
	#DEBUG_VALUE: main:res7 <- 0.000000e+00
	#DEBUG_VALUE: main:res8 <- 0.000000e+00
	#DEBUG_VALUE: main:res9 <- 0.000000e+00
	#DEBUG_VALUE: main:res10 <- 0.000000e+00
	#DEBUG_VALUE: main:res11 <- 0.000000e+00
	#DEBUG_VALUE: main:res12 <- 0.000000e+00
	#DEBUG_VALUE: main:in <- 100000000
	#DEBUG_VALUE: main:n_times <- 0
	#DEBUG_VALUE: main:n_warmup <- 0
	#DEBUG_VALUE: main:up <- [DW_OP_plus_uconst 48] [$rsp+0]
	#DEBUG_VALUE: main:v3 <- [DW_OP_plus_uconst 128] [$rsp+0]
	#DEBUG_VALUE: main:v1 <- [DW_OP_plus_uconst 120] [$rsp+0]
	#DEBUG_VALUE: main:v2 <- [DW_OP_plus_uconst 112] [$rsp+0]
	#DEBUG_VALUE: main:psi <- [DW_OP_plus_uconst 40] [$rsp+0]
	#DEBUG_VALUE: main:psi2 <- [DW_OP_plus_uconst 32] [$rsp+0]
	#DEBUG_VALUE: main:chi <- [DW_OP_plus_uconst 152] [$rsp+0]
	#DEBUG_VALUE: main:chi2 <- [DW_OP_plus_uconst 144] [$rsp+0]
	#DEBUG_VALUE: main:chi3 <- [DW_OP_plus_uconst 184] [$rsp+0]
	#DEBUG_VALUE: main:chi4 <- [DW_OP_plus_uconst 176] [$rsp+0]
	#DEBUG_VALUE: main:chi5 <- [DW_OP_plus_uconst 72] [$rsp+0]
	#DEBUG_VALUE: main:chi6 <- [DW_OP_plus_uconst 64] [$rsp+0]
	vmovapd	%xmm4, %xmm0
	vmovapd	%xmm5, %xmm1
	movq	%r9, %rbx
	movq	%rdi, 56(%rsp)                  # 8-byte Spill
	movq	%rdx, %r15
	movq	%rax, 88(%rsp)                  # 8-byte Spill
	callq	__muldc3
.Ltmp305:
	.loc	0 0 3                           # avx_complex_vec_align_load.c:0:3
	movq	88(%rsp), %rax                  # 8-byte Reload
	movq	%r15, %rdx
	movq	56(%rsp), %rdi                  # 8-byte Reload
	movq	%rbx, %r9
	movq	64(%rsp), %r10                  # 8-byte Reload
.Ltmp306:
	#DEBUG_VALUE: main:chi6 <- $r10
	movq	72(%rsp), %r8                   # 8-byte Reload
.Ltmp307:
	#DEBUG_VALUE: main:chi5 <- $r8
	movq	32(%rsp), %rsi                  # 8-byte Reload
.Ltmp308:
	#DEBUG_VALUE: main:psi2 <- $rsi
	movq	40(%rsp), %r11                  # 8-byte Reload
.Ltmp309:
	#DEBUG_VALUE: main:psi <- $r11
	movq	48(%rsp), %rcx                  # 8-byte Reload
.Ltmp310:
	#DEBUG_VALUE: main:up <- $rcx
	jmp	.LBB0_40
.Ltmp311:
.LBB0_41:                               #   in Loop: Header=BB0_21 Depth=1
	#DEBUG_VALUE: main:n <- 5
	#DEBUG_VALUE: main:res1 <- 0.000000e+00
	#DEBUG_VALUE: main:res2 <- 0.000000e+00
	#DEBUG_VALUE: main:res3 <- 0.000000e+00
	#DEBUG_VALUE: main:res4 <- 0.000000e+00
	#DEBUG_VALUE: main:res5 <- 0.000000e+00
	#DEBUG_VALUE: main:res6 <- 0.000000e+00
	#DEBUG_VALUE: main:res7 <- 0.000000e+00
	#DEBUG_VALUE: main:res8 <- 0.000000e+00
	#DEBUG_VALUE: main:res9 <- 0.000000e+00
	#DEBUG_VALUE: main:res10 <- 0.000000e+00
	#DEBUG_VALUE: main:res11 <- 0.000000e+00
	#DEBUG_VALUE: main:res12 <- 0.000000e+00
	#DEBUG_VALUE: main:in <- 100000000
	#DEBUG_VALUE: main:n_times <- 0
	#DEBUG_VALUE: main:n_warmup <- 0
	#DEBUG_VALUE: main:up <- [DW_OP_plus_uconst 48] [$rsp+0]
	#DEBUG_VALUE: main:v3 <- [DW_OP_plus_uconst 128] [$rsp+0]
	#DEBUG_VALUE: main:v1 <- [DW_OP_plus_uconst 120] [$rsp+0]
	#DEBUG_VALUE: main:v2 <- [DW_OP_plus_uconst 112] [$rsp+0]
	#DEBUG_VALUE: main:psi <- [DW_OP_plus_uconst 40] [$rsp+0]
	#DEBUG_VALUE: main:psi2 <- [DW_OP_plus_uconst 32] [$rsp+0]
	#DEBUG_VALUE: main:chi <- [DW_OP_plus_uconst 152] [$rsp+0]
	#DEBUG_VALUE: main:chi2 <- [DW_OP_plus_uconst 144] [$rsp+0]
	#DEBUG_VALUE: main:chi3 <- [DW_OP_plus_uconst 184] [$rsp+0]
	#DEBUG_VALUE: main:chi4 <- [DW_OP_plus_uconst 176] [$rsp+0]
	#DEBUG_VALUE: main:chi5 <- [DW_OP_plus_uconst 72] [$rsp+0]
	#DEBUG_VALUE: main:chi6 <- [DW_OP_plus_uconst 64] [$rsp+0]
	.loc	0 250 3                         # avx_complex_vec_align_load.c:250:3
	vucomisd	%xmm1, %xmm1
	jnp	.LBB0_43
.Ltmp312:
# %bb.42:                               #   in Loop: Header=BB0_21 Depth=1
	#DEBUG_VALUE: main:n <- 5
	#DEBUG_VALUE: main:res1 <- 0.000000e+00
	#DEBUG_VALUE: main:res2 <- 0.000000e+00
	#DEBUG_VALUE: main:res3 <- 0.000000e+00
	#DEBUG_VALUE: main:res4 <- 0.000000e+00
	#DEBUG_VALUE: main:res5 <- 0.000000e+00
	#DEBUG_VALUE: main:res6 <- 0.000000e+00
	#DEBUG_VALUE: main:res7 <- 0.000000e+00
	#DEBUG_VALUE: main:res8 <- 0.000000e+00
	#DEBUG_VALUE: main:res9 <- 0.000000e+00
	#DEBUG_VALUE: main:res10 <- 0.000000e+00
	#DEBUG_VALUE: main:res11 <- 0.000000e+00
	#DEBUG_VALUE: main:res12 <- 0.000000e+00
	#DEBUG_VALUE: main:in <- 100000000
	#DEBUG_VALUE: main:n_times <- 0
	#DEBUG_VALUE: main:n_warmup <- 0
	#DEBUG_VALUE: main:up <- [DW_OP_plus_uconst 48] [$rsp+0]
	#DEBUG_VALUE: main:v3 <- [DW_OP_plus_uconst 128] [$rsp+0]
	#DEBUG_VALUE: main:v1 <- [DW_OP_plus_uconst 120] [$rsp+0]
	#DEBUG_VALUE: main:v2 <- [DW_OP_plus_uconst 112] [$rsp+0]
	#DEBUG_VALUE: main:psi <- [DW_OP_plus_uconst 40] [$rsp+0]
	#DEBUG_VALUE: main:psi2 <- [DW_OP_plus_uconst 32] [$rsp+0]
	#DEBUG_VALUE: main:chi <- [DW_OP_plus_uconst 152] [$rsp+0]
	#DEBUG_VALUE: main:chi2 <- [DW_OP_plus_uconst 144] [$rsp+0]
	#DEBUG_VALUE: main:chi3 <- [DW_OP_plus_uconst 184] [$rsp+0]
	#DEBUG_VALUE: main:chi4 <- [DW_OP_plus_uconst 176] [$rsp+0]
	#DEBUG_VALUE: main:chi5 <- [DW_OP_plus_uconst 72] [$rsp+0]
	#DEBUG_VALUE: main:chi6 <- [DW_OP_plus_uconst 64] [$rsp+0]
	vmovapd	%xmm4, %xmm0
	vmovapd	%xmm5, %xmm1
	movq	%r9, %r15
	movq	%rdi, 56(%rsp)                  # 8-byte Spill
	movq	%rdx, 24(%rsp)                  # 8-byte Spill
	movq	%rax, 88(%rsp)                  # 8-byte Spill
	callq	__muldc3
.Ltmp313:
	.loc	0 0 3                           # avx_complex_vec_align_load.c:0:3
	movq	88(%rsp), %rax                  # 8-byte Reload
	movq	24(%rsp), %rdx                  # 8-byte Reload
	movq	56(%rsp), %rdi                  # 8-byte Reload
	movq	%r15, %r9
	movq	64(%rsp), %r10                  # 8-byte Reload
.Ltmp314:
	#DEBUG_VALUE: main:chi6 <- $r10
	movq	72(%rsp), %r8                   # 8-byte Reload
.Ltmp315:
	#DEBUG_VALUE: main:chi5 <- $r8
	movq	32(%rsp), %rsi                  # 8-byte Reload
.Ltmp316:
	#DEBUG_VALUE: main:psi2 <- $rsi
	movq	40(%rsp), %r11                  # 8-byte Reload
.Ltmp317:
	#DEBUG_VALUE: main:psi <- $r11
	movq	48(%rsp), %rcx                  # 8-byte Reload
.Ltmp318:
	#DEBUG_VALUE: main:up <- $rcx
	jmp	.LBB0_43
.Ltmp319:
.LBB0_44:                               #   in Loop: Header=BB0_21 Depth=1
	#DEBUG_VALUE: main:n <- 5
	#DEBUG_VALUE: main:res1 <- 0.000000e+00
	#DEBUG_VALUE: main:res2 <- 0.000000e+00
	#DEBUG_VALUE: main:res3 <- 0.000000e+00
	#DEBUG_VALUE: main:res4 <- 0.000000e+00
	#DEBUG_VALUE: main:res5 <- 0.000000e+00
	#DEBUG_VALUE: main:res6 <- 0.000000e+00
	#DEBUG_VALUE: main:res7 <- 0.000000e+00
	#DEBUG_VALUE: main:res8 <- 0.000000e+00
	#DEBUG_VALUE: main:res9 <- 0.000000e+00
	#DEBUG_VALUE: main:res10 <- 0.000000e+00
	#DEBUG_VALUE: main:res11 <- 0.000000e+00
	#DEBUG_VALUE: main:res12 <- 0.000000e+00
	#DEBUG_VALUE: main:in <- 100000000
	#DEBUG_VALUE: main:n_times <- 0
	#DEBUG_VALUE: main:n_warmup <- 0
	#DEBUG_VALUE: main:up <- [DW_OP_plus_uconst 48] [$rsp+0]
	#DEBUG_VALUE: main:v3 <- [DW_OP_plus_uconst 128] [$rsp+0]
	#DEBUG_VALUE: main:v1 <- [DW_OP_plus_uconst 120] [$rsp+0]
	#DEBUG_VALUE: main:v2 <- [DW_OP_plus_uconst 112] [$rsp+0]
	#DEBUG_VALUE: main:psi <- [DW_OP_plus_uconst 40] [$rsp+0]
	#DEBUG_VALUE: main:psi2 <- [DW_OP_plus_uconst 32] [$rsp+0]
	#DEBUG_VALUE: main:chi <- [DW_OP_plus_uconst 152] [$rsp+0]
	#DEBUG_VALUE: main:chi2 <- [DW_OP_plus_uconst 144] [$rsp+0]
	#DEBUG_VALUE: main:chi3 <- [DW_OP_plus_uconst 184] [$rsp+0]
	#DEBUG_VALUE: main:chi4 <- [DW_OP_plus_uconst 176] [$rsp+0]
	#DEBUG_VALUE: main:chi5 <- [DW_OP_plus_uconst 72] [$rsp+0]
	#DEBUG_VALUE: main:chi6 <- [DW_OP_plus_uconst 64] [$rsp+0]
	.loc	0 250 3                         # avx_complex_vec_align_load.c:250:3
	vucomisd	%xmm1, %xmm1
	jnp	.LBB0_46
.Ltmp320:
# %bb.45:                               #   in Loop: Header=BB0_21 Depth=1
	#DEBUG_VALUE: main:n <- 5
	#DEBUG_VALUE: main:res1 <- 0.000000e+00
	#DEBUG_VALUE: main:res2 <- 0.000000e+00
	#DEBUG_VALUE: main:res3 <- 0.000000e+00
	#DEBUG_VALUE: main:res4 <- 0.000000e+00
	#DEBUG_VALUE: main:res5 <- 0.000000e+00
	#DEBUG_VALUE: main:res6 <- 0.000000e+00
	#DEBUG_VALUE: main:res7 <- 0.000000e+00
	#DEBUG_VALUE: main:res8 <- 0.000000e+00
	#DEBUG_VALUE: main:res9 <- 0.000000e+00
	#DEBUG_VALUE: main:res10 <- 0.000000e+00
	#DEBUG_VALUE: main:res11 <- 0.000000e+00
	#DEBUG_VALUE: main:res12 <- 0.000000e+00
	#DEBUG_VALUE: main:in <- 100000000
	#DEBUG_VALUE: main:n_times <- 0
	#DEBUG_VALUE: main:n_warmup <- 0
	#DEBUG_VALUE: main:up <- [DW_OP_plus_uconst 48] [$rsp+0]
	#DEBUG_VALUE: main:v3 <- [DW_OP_plus_uconst 128] [$rsp+0]
	#DEBUG_VALUE: main:v1 <- [DW_OP_plus_uconst 120] [$rsp+0]
	#DEBUG_VALUE: main:v2 <- [DW_OP_plus_uconst 112] [$rsp+0]
	#DEBUG_VALUE: main:psi <- [DW_OP_plus_uconst 40] [$rsp+0]
	#DEBUG_VALUE: main:psi2 <- [DW_OP_plus_uconst 32] [$rsp+0]
	#DEBUG_VALUE: main:chi <- [DW_OP_plus_uconst 152] [$rsp+0]
	#DEBUG_VALUE: main:chi2 <- [DW_OP_plus_uconst 144] [$rsp+0]
	#DEBUG_VALUE: main:chi3 <- [DW_OP_plus_uconst 184] [$rsp+0]
	#DEBUG_VALUE: main:chi4 <- [DW_OP_plus_uconst 176] [$rsp+0]
	#DEBUG_VALUE: main:chi5 <- [DW_OP_plus_uconst 72] [$rsp+0]
	#DEBUG_VALUE: main:chi6 <- [DW_OP_plus_uconst 64] [$rsp+0]
	vmovapd	%xmm4, %xmm0
	vmovapd	%xmm5, %xmm1
	movq	%r9, %rbx
	movq	%rdi, 56(%rsp)                  # 8-byte Spill
	movq	%rdx, %r15
	movq	%rax, 88(%rsp)                  # 8-byte Spill
	callq	__muldc3
.Ltmp321:
	.loc	0 0 3                           # avx_complex_vec_align_load.c:0:3
	movq	88(%rsp), %rax                  # 8-byte Reload
	movq	%r15, %rdx
	movq	56(%rsp), %rdi                  # 8-byte Reload
	movq	%rbx, %r9
	movq	64(%rsp), %r10                  # 8-byte Reload
.Ltmp322:
	#DEBUG_VALUE: main:chi6 <- $r10
	movq	72(%rsp), %r8                   # 8-byte Reload
.Ltmp323:
	#DEBUG_VALUE: main:chi5 <- $r8
	movq	32(%rsp), %rsi                  # 8-byte Reload
.Ltmp324:
	#DEBUG_VALUE: main:psi2 <- $rsi
	movq	40(%rsp), %r11                  # 8-byte Reload
.Ltmp325:
	#DEBUG_VALUE: main:psi <- $r11
	movq	48(%rsp), %rcx                  # 8-byte Reload
.Ltmp326:
	#DEBUG_VALUE: main:up <- $rcx
	jmp	.LBB0_46
.Ltmp327:
.LBB0_47:                               #   in Loop: Header=BB0_21 Depth=1
	#DEBUG_VALUE: main:n <- 5
	#DEBUG_VALUE: main:res1 <- 0.000000e+00
	#DEBUG_VALUE: main:res2 <- 0.000000e+00
	#DEBUG_VALUE: main:res3 <- 0.000000e+00
	#DEBUG_VALUE: main:res4 <- 0.000000e+00
	#DEBUG_VALUE: main:res5 <- 0.000000e+00
	#DEBUG_VALUE: main:res6 <- 0.000000e+00
	#DEBUG_VALUE: main:res7 <- 0.000000e+00
	#DEBUG_VALUE: main:res8 <- 0.000000e+00
	#DEBUG_VALUE: main:res9 <- 0.000000e+00
	#DEBUG_VALUE: main:res10 <- 0.000000e+00
	#DEBUG_VALUE: main:res11 <- 0.000000e+00
	#DEBUG_VALUE: main:res12 <- 0.000000e+00
	#DEBUG_VALUE: main:in <- 100000000
	#DEBUG_VALUE: main:n_times <- 0
	#DEBUG_VALUE: main:n_warmup <- 0
	#DEBUG_VALUE: main:up <- [DW_OP_plus_uconst 48] [$rsp+0]
	#DEBUG_VALUE: main:v3 <- [DW_OP_plus_uconst 128] [$rsp+0]
	#DEBUG_VALUE: main:v1 <- [DW_OP_plus_uconst 120] [$rsp+0]
	#DEBUG_VALUE: main:v2 <- [DW_OP_plus_uconst 112] [$rsp+0]
	#DEBUG_VALUE: main:psi <- [DW_OP_plus_uconst 40] [$rsp+0]
	#DEBUG_VALUE: main:psi2 <- [DW_OP_plus_uconst 32] [$rsp+0]
	#DEBUG_VALUE: main:chi <- [DW_OP_plus_uconst 152] [$rsp+0]
	#DEBUG_VALUE: main:chi2 <- [DW_OP_plus_uconst 144] [$rsp+0]
	#DEBUG_VALUE: main:chi3 <- [DW_OP_plus_uconst 184] [$rsp+0]
	#DEBUG_VALUE: main:chi4 <- [DW_OP_plus_uconst 176] [$rsp+0]
	#DEBUG_VALUE: main:chi5 <- [DW_OP_plus_uconst 72] [$rsp+0]
	#DEBUG_VALUE: main:chi6 <- [DW_OP_plus_uconst 64] [$rsp+0]
	.loc	0 250 3                         # avx_complex_vec_align_load.c:250:3
	vucomisd	%xmm1, %xmm1
	jnp	.LBB0_49
.Ltmp328:
# %bb.48:                               #   in Loop: Header=BB0_21 Depth=1
	#DEBUG_VALUE: main:n <- 5
	#DEBUG_VALUE: main:res1 <- 0.000000e+00
	#DEBUG_VALUE: main:res2 <- 0.000000e+00
	#DEBUG_VALUE: main:res3 <- 0.000000e+00
	#DEBUG_VALUE: main:res4 <- 0.000000e+00
	#DEBUG_VALUE: main:res5 <- 0.000000e+00
	#DEBUG_VALUE: main:res6 <- 0.000000e+00
	#DEBUG_VALUE: main:res7 <- 0.000000e+00
	#DEBUG_VALUE: main:res8 <- 0.000000e+00
	#DEBUG_VALUE: main:res9 <- 0.000000e+00
	#DEBUG_VALUE: main:res10 <- 0.000000e+00
	#DEBUG_VALUE: main:res11 <- 0.000000e+00
	#DEBUG_VALUE: main:res12 <- 0.000000e+00
	#DEBUG_VALUE: main:in <- 100000000
	#DEBUG_VALUE: main:n_times <- 0
	#DEBUG_VALUE: main:n_warmup <- 0
	#DEBUG_VALUE: main:up <- [DW_OP_plus_uconst 48] [$rsp+0]
	#DEBUG_VALUE: main:v3 <- [DW_OP_plus_uconst 128] [$rsp+0]
	#DEBUG_VALUE: main:v1 <- [DW_OP_plus_uconst 120] [$rsp+0]
	#DEBUG_VALUE: main:v2 <- [DW_OP_plus_uconst 112] [$rsp+0]
	#DEBUG_VALUE: main:psi <- [DW_OP_plus_uconst 40] [$rsp+0]
	#DEBUG_VALUE: main:psi2 <- [DW_OP_plus_uconst 32] [$rsp+0]
	#DEBUG_VALUE: main:chi <- [DW_OP_plus_uconst 152] [$rsp+0]
	#DEBUG_VALUE: main:chi2 <- [DW_OP_plus_uconst 144] [$rsp+0]
	#DEBUG_VALUE: main:chi3 <- [DW_OP_plus_uconst 184] [$rsp+0]
	#DEBUG_VALUE: main:chi4 <- [DW_OP_plus_uconst 176] [$rsp+0]
	#DEBUG_VALUE: main:chi5 <- [DW_OP_plus_uconst 72] [$rsp+0]
	#DEBUG_VALUE: main:chi6 <- [DW_OP_plus_uconst 64] [$rsp+0]
	vmovapd	%xmm4, %xmm0
	vmovapd	%xmm5, %xmm1
	movq	%r9, %rbx
	movq	%rdi, 56(%rsp)                  # 8-byte Spill
	movq	%rdx, %r15
	movq	%rax, 88(%rsp)                  # 8-byte Spill
	callq	__muldc3
.Ltmp329:
	.loc	0 0 3                           # avx_complex_vec_align_load.c:0:3
	movq	88(%rsp), %rax                  # 8-byte Reload
	movq	%r15, %rdx
	movq	56(%rsp), %rdi                  # 8-byte Reload
	movq	%rbx, %r9
	movq	64(%rsp), %r10                  # 8-byte Reload
.Ltmp330:
	#DEBUG_VALUE: main:chi6 <- $r10
	movq	72(%rsp), %r8                   # 8-byte Reload
.Ltmp331:
	#DEBUG_VALUE: main:chi5 <- $r8
	movq	32(%rsp), %rsi                  # 8-byte Reload
.Ltmp332:
	#DEBUG_VALUE: main:psi2 <- $rsi
	movq	40(%rsp), %r11                  # 8-byte Reload
.Ltmp333:
	#DEBUG_VALUE: main:psi <- $r11
	movq	48(%rsp), %rcx                  # 8-byte Reload
.Ltmp334:
	#DEBUG_VALUE: main:up <- $rcx
	jmp	.LBB0_49
.Ltmp335:
.LBB0_50:                               #   in Loop: Header=BB0_21 Depth=1
	#DEBUG_VALUE: main:n <- 5
	#DEBUG_VALUE: main:res1 <- 0.000000e+00
	#DEBUG_VALUE: main:res2 <- 0.000000e+00
	#DEBUG_VALUE: main:res3 <- 0.000000e+00
	#DEBUG_VALUE: main:res4 <- 0.000000e+00
	#DEBUG_VALUE: main:res5 <- 0.000000e+00
	#DEBUG_VALUE: main:res6 <- 0.000000e+00
	#DEBUG_VALUE: main:res7 <- 0.000000e+00
	#DEBUG_VALUE: main:res8 <- 0.000000e+00
	#DEBUG_VALUE: main:res9 <- 0.000000e+00
	#DEBUG_VALUE: main:res10 <- 0.000000e+00
	#DEBUG_VALUE: main:res11 <- 0.000000e+00
	#DEBUG_VALUE: main:res12 <- 0.000000e+00
	#DEBUG_VALUE: main:in <- 100000000
	#DEBUG_VALUE: main:n_times <- 0
	#DEBUG_VALUE: main:n_warmup <- 0
	#DEBUG_VALUE: main:up <- [DW_OP_plus_uconst 48] [$rsp+0]
	#DEBUG_VALUE: main:v3 <- [DW_OP_plus_uconst 128] [$rsp+0]
	#DEBUG_VALUE: main:v1 <- [DW_OP_plus_uconst 120] [$rsp+0]
	#DEBUG_VALUE: main:v2 <- [DW_OP_plus_uconst 112] [$rsp+0]
	#DEBUG_VALUE: main:psi <- [DW_OP_plus_uconst 40] [$rsp+0]
	#DEBUG_VALUE: main:psi2 <- [DW_OP_plus_uconst 32] [$rsp+0]
	#DEBUG_VALUE: main:chi <- [DW_OP_plus_uconst 152] [$rsp+0]
	#DEBUG_VALUE: main:chi2 <- [DW_OP_plus_uconst 144] [$rsp+0]
	#DEBUG_VALUE: main:chi3 <- [DW_OP_plus_uconst 184] [$rsp+0]
	#DEBUG_VALUE: main:chi4 <- [DW_OP_plus_uconst 176] [$rsp+0]
	#DEBUG_VALUE: main:chi5 <- [DW_OP_plus_uconst 72] [$rsp+0]
	#DEBUG_VALUE: main:chi6 <- [DW_OP_plus_uconst 64] [$rsp+0]
	.loc	0 250 3                         # avx_complex_vec_align_load.c:250:3
	vucomisd	%xmm1, %xmm1
	jnp	.LBB0_52
.Ltmp336:
# %bb.51:                               #   in Loop: Header=BB0_21 Depth=1
	#DEBUG_VALUE: main:n <- 5
	#DEBUG_VALUE: main:res1 <- 0.000000e+00
	#DEBUG_VALUE: main:res2 <- 0.000000e+00
	#DEBUG_VALUE: main:res3 <- 0.000000e+00
	#DEBUG_VALUE: main:res4 <- 0.000000e+00
	#DEBUG_VALUE: main:res5 <- 0.000000e+00
	#DEBUG_VALUE: main:res6 <- 0.000000e+00
	#DEBUG_VALUE: main:res7 <- 0.000000e+00
	#DEBUG_VALUE: main:res8 <- 0.000000e+00
	#DEBUG_VALUE: main:res9 <- 0.000000e+00
	#DEBUG_VALUE: main:res10 <- 0.000000e+00
	#DEBUG_VALUE: main:res11 <- 0.000000e+00
	#DEBUG_VALUE: main:res12 <- 0.000000e+00
	#DEBUG_VALUE: main:in <- 100000000
	#DEBUG_VALUE: main:n_times <- 0
	#DEBUG_VALUE: main:n_warmup <- 0
	#DEBUG_VALUE: main:up <- [DW_OP_plus_uconst 48] [$rsp+0]
	#DEBUG_VALUE: main:v3 <- [DW_OP_plus_uconst 128] [$rsp+0]
	#DEBUG_VALUE: main:v1 <- [DW_OP_plus_uconst 120] [$rsp+0]
	#DEBUG_VALUE: main:v2 <- [DW_OP_plus_uconst 112] [$rsp+0]
	#DEBUG_VALUE: main:psi <- [DW_OP_plus_uconst 40] [$rsp+0]
	#DEBUG_VALUE: main:psi2 <- [DW_OP_plus_uconst 32] [$rsp+0]
	#DEBUG_VALUE: main:chi <- [DW_OP_plus_uconst 152] [$rsp+0]
	#DEBUG_VALUE: main:chi2 <- [DW_OP_plus_uconst 144] [$rsp+0]
	#DEBUG_VALUE: main:chi3 <- [DW_OP_plus_uconst 184] [$rsp+0]
	#DEBUG_VALUE: main:chi4 <- [DW_OP_plus_uconst 176] [$rsp+0]
	#DEBUG_VALUE: main:chi5 <- [DW_OP_plus_uconst 72] [$rsp+0]
	#DEBUG_VALUE: main:chi6 <- [DW_OP_plus_uconst 64] [$rsp+0]
	vmovapd	%xmm4, %xmm0
	vmovapd	%xmm5, %xmm1
	movq	%r9, %r15
	movq	%rdi, 56(%rsp)                  # 8-byte Spill
	movq	%rdx, 24(%rsp)                  # 8-byte Spill
	movq	%rax, 88(%rsp)                  # 8-byte Spill
	callq	__muldc3
.Ltmp337:
	.loc	0 0 3                           # avx_complex_vec_align_load.c:0:3
	movq	88(%rsp), %rax                  # 8-byte Reload
	movq	24(%rsp), %rdx                  # 8-byte Reload
	movq	56(%rsp), %rdi                  # 8-byte Reload
	movq	%r15, %r9
	movq	64(%rsp), %r10                  # 8-byte Reload
.Ltmp338:
	#DEBUG_VALUE: main:chi6 <- $r10
	movq	72(%rsp), %r8                   # 8-byte Reload
.Ltmp339:
	#DEBUG_VALUE: main:chi5 <- $r8
	movq	32(%rsp), %rsi                  # 8-byte Reload
.Ltmp340:
	#DEBUG_VALUE: main:psi2 <- $rsi
	movq	40(%rsp), %r11                  # 8-byte Reload
.Ltmp341:
	#DEBUG_VALUE: main:psi <- $r11
	movq	48(%rsp), %rcx                  # 8-byte Reload
.Ltmp342:
	#DEBUG_VALUE: main:up <- $rcx
	jmp	.LBB0_52
.Ltmp343:
.LBB0_53:                               #   in Loop: Header=BB0_21 Depth=1
	#DEBUG_VALUE: main:n <- 5
	#DEBUG_VALUE: main:res1 <- 0.000000e+00
	#DEBUG_VALUE: main:res2 <- 0.000000e+00
	#DEBUG_VALUE: main:res3 <- 0.000000e+00
	#DEBUG_VALUE: main:res4 <- 0.000000e+00
	#DEBUG_VALUE: main:res5 <- 0.000000e+00
	#DEBUG_VALUE: main:res6 <- 0.000000e+00
	#DEBUG_VALUE: main:res7 <- 0.000000e+00
	#DEBUG_VALUE: main:res8 <- 0.000000e+00
	#DEBUG_VALUE: main:res9 <- 0.000000e+00
	#DEBUG_VALUE: main:res10 <- 0.000000e+00
	#DEBUG_VALUE: main:res11 <- 0.000000e+00
	#DEBUG_VALUE: main:res12 <- 0.000000e+00
	#DEBUG_VALUE: main:in <- 100000000
	#DEBUG_VALUE: main:n_times <- 0
	#DEBUG_VALUE: main:n_warmup <- 0
	#DEBUG_VALUE: main:up <- [DW_OP_plus_uconst 48] [$rsp+0]
	#DEBUG_VALUE: main:v3 <- [DW_OP_plus_uconst 128] [$rsp+0]
	#DEBUG_VALUE: main:v1 <- [DW_OP_plus_uconst 120] [$rsp+0]
	#DEBUG_VALUE: main:v2 <- [DW_OP_plus_uconst 112] [$rsp+0]
	#DEBUG_VALUE: main:psi <- [DW_OP_plus_uconst 40] [$rsp+0]
	#DEBUG_VALUE: main:psi2 <- [DW_OP_plus_uconst 32] [$rsp+0]
	#DEBUG_VALUE: main:chi <- [DW_OP_plus_uconst 152] [$rsp+0]
	#DEBUG_VALUE: main:chi2 <- [DW_OP_plus_uconst 144] [$rsp+0]
	#DEBUG_VALUE: main:chi3 <- [DW_OP_plus_uconst 184] [$rsp+0]
	#DEBUG_VALUE: main:chi4 <- [DW_OP_plus_uconst 176] [$rsp+0]
	#DEBUG_VALUE: main:chi5 <- [DW_OP_plus_uconst 72] [$rsp+0]
	#DEBUG_VALUE: main:chi6 <- [DW_OP_plus_uconst 64] [$rsp+0]
	.loc	0 251 3 is_stmt 1               # avx_complex_vec_align_load.c:251:3
	vucomisd	%xmm1, %xmm1
	jnp	.LBB0_55
.Ltmp344:
# %bb.54:                               #   in Loop: Header=BB0_21 Depth=1
	#DEBUG_VALUE: main:n <- 5
	#DEBUG_VALUE: main:res1 <- 0.000000e+00
	#DEBUG_VALUE: main:res2 <- 0.000000e+00
	#DEBUG_VALUE: main:res3 <- 0.000000e+00
	#DEBUG_VALUE: main:res4 <- 0.000000e+00
	#DEBUG_VALUE: main:res5 <- 0.000000e+00
	#DEBUG_VALUE: main:res6 <- 0.000000e+00
	#DEBUG_VALUE: main:res7 <- 0.000000e+00
	#DEBUG_VALUE: main:res8 <- 0.000000e+00
	#DEBUG_VALUE: main:res9 <- 0.000000e+00
	#DEBUG_VALUE: main:res10 <- 0.000000e+00
	#DEBUG_VALUE: main:res11 <- 0.000000e+00
	#DEBUG_VALUE: main:res12 <- 0.000000e+00
	#DEBUG_VALUE: main:in <- 100000000
	#DEBUG_VALUE: main:n_times <- 0
	#DEBUG_VALUE: main:n_warmup <- 0
	#DEBUG_VALUE: main:up <- [DW_OP_plus_uconst 48] [$rsp+0]
	#DEBUG_VALUE: main:v3 <- [DW_OP_plus_uconst 128] [$rsp+0]
	#DEBUG_VALUE: main:v1 <- [DW_OP_plus_uconst 120] [$rsp+0]
	#DEBUG_VALUE: main:v2 <- [DW_OP_plus_uconst 112] [$rsp+0]
	#DEBUG_VALUE: main:psi <- [DW_OP_plus_uconst 40] [$rsp+0]
	#DEBUG_VALUE: main:psi2 <- [DW_OP_plus_uconst 32] [$rsp+0]
	#DEBUG_VALUE: main:chi <- [DW_OP_plus_uconst 152] [$rsp+0]
	#DEBUG_VALUE: main:chi2 <- [DW_OP_plus_uconst 144] [$rsp+0]
	#DEBUG_VALUE: main:chi3 <- [DW_OP_plus_uconst 184] [$rsp+0]
	#DEBUG_VALUE: main:chi4 <- [DW_OP_plus_uconst 176] [$rsp+0]
	#DEBUG_VALUE: main:chi5 <- [DW_OP_plus_uconst 72] [$rsp+0]
	#DEBUG_VALUE: main:chi6 <- [DW_OP_plus_uconst 64] [$rsp+0]
	vmovapd	%xmm4, %xmm0
	vmovapd	%xmm5, %xmm1
	movq	%r9, %rbx
	movq	%rdi, 56(%rsp)                  # 8-byte Spill
	movq	%rdx, %r15
	movq	%rax, 88(%rsp)                  # 8-byte Spill
	callq	__muldc3
.Ltmp345:
	.loc	0 0 3 is_stmt 0                 # avx_complex_vec_align_load.c:0:3
	movq	88(%rsp), %rax                  # 8-byte Reload
	movq	%r15, %rdx
	movq	56(%rsp), %rdi                  # 8-byte Reload
	movq	%rbx, %r9
	movq	64(%rsp), %r10                  # 8-byte Reload
.Ltmp346:
	#DEBUG_VALUE: main:chi6 <- $r10
	movq	72(%rsp), %r8                   # 8-byte Reload
.Ltmp347:
	#DEBUG_VALUE: main:chi5 <- $r8
	movq	32(%rsp), %rsi                  # 8-byte Reload
.Ltmp348:
	#DEBUG_VALUE: main:psi2 <- $rsi
	movq	40(%rsp), %r11                  # 8-byte Reload
.Ltmp349:
	#DEBUG_VALUE: main:psi <- $r11
	movq	48(%rsp), %rcx                  # 8-byte Reload
.Ltmp350:
	#DEBUG_VALUE: main:up <- $rcx
	jmp	.LBB0_55
.Ltmp351:
.LBB0_56:                               #   in Loop: Header=BB0_21 Depth=1
	#DEBUG_VALUE: main:n <- 5
	#DEBUG_VALUE: main:res1 <- 0.000000e+00
	#DEBUG_VALUE: main:res2 <- 0.000000e+00
	#DEBUG_VALUE: main:res3 <- 0.000000e+00
	#DEBUG_VALUE: main:res4 <- 0.000000e+00
	#DEBUG_VALUE: main:res5 <- 0.000000e+00
	#DEBUG_VALUE: main:res6 <- 0.000000e+00
	#DEBUG_VALUE: main:res7 <- 0.000000e+00
	#DEBUG_VALUE: main:res8 <- 0.000000e+00
	#DEBUG_VALUE: main:res9 <- 0.000000e+00
	#DEBUG_VALUE: main:res10 <- 0.000000e+00
	#DEBUG_VALUE: main:res11 <- 0.000000e+00
	#DEBUG_VALUE: main:res12 <- 0.000000e+00
	#DEBUG_VALUE: main:in <- 100000000
	#DEBUG_VALUE: main:n_times <- 0
	#DEBUG_VALUE: main:n_warmup <- 0
	#DEBUG_VALUE: main:up <- [DW_OP_plus_uconst 48] [$rsp+0]
	#DEBUG_VALUE: main:v3 <- [DW_OP_plus_uconst 128] [$rsp+0]
	#DEBUG_VALUE: main:v1 <- [DW_OP_plus_uconst 120] [$rsp+0]
	#DEBUG_VALUE: main:v2 <- [DW_OP_plus_uconst 112] [$rsp+0]
	#DEBUG_VALUE: main:psi <- [DW_OP_plus_uconst 40] [$rsp+0]
	#DEBUG_VALUE: main:psi2 <- [DW_OP_plus_uconst 32] [$rsp+0]
	#DEBUG_VALUE: main:chi <- [DW_OP_plus_uconst 152] [$rsp+0]
	#DEBUG_VALUE: main:chi2 <- [DW_OP_plus_uconst 144] [$rsp+0]
	#DEBUG_VALUE: main:chi3 <- [DW_OP_plus_uconst 184] [$rsp+0]
	#DEBUG_VALUE: main:chi4 <- [DW_OP_plus_uconst 176] [$rsp+0]
	#DEBUG_VALUE: main:chi5 <- [DW_OP_plus_uconst 72] [$rsp+0]
	#DEBUG_VALUE: main:chi6 <- [DW_OP_plus_uconst 64] [$rsp+0]
	.loc	0 251 3                         # avx_complex_vec_align_load.c:251:3
	vucomisd	%xmm1, %xmm1
	jnp	.LBB0_58
.Ltmp352:
# %bb.57:                               #   in Loop: Header=BB0_21 Depth=1
	#DEBUG_VALUE: main:n <- 5
	#DEBUG_VALUE: main:res1 <- 0.000000e+00
	#DEBUG_VALUE: main:res2 <- 0.000000e+00
	#DEBUG_VALUE: main:res3 <- 0.000000e+00
	#DEBUG_VALUE: main:res4 <- 0.000000e+00
	#DEBUG_VALUE: main:res5 <- 0.000000e+00
	#DEBUG_VALUE: main:res6 <- 0.000000e+00
	#DEBUG_VALUE: main:res7 <- 0.000000e+00
	#DEBUG_VALUE: main:res8 <- 0.000000e+00
	#DEBUG_VALUE: main:res9 <- 0.000000e+00
	#DEBUG_VALUE: main:res10 <- 0.000000e+00
	#DEBUG_VALUE: main:res11 <- 0.000000e+00
	#DEBUG_VALUE: main:res12 <- 0.000000e+00
	#DEBUG_VALUE: main:in <- 100000000
	#DEBUG_VALUE: main:n_times <- 0
	#DEBUG_VALUE: main:n_warmup <- 0
	#DEBUG_VALUE: main:up <- [DW_OP_plus_uconst 48] [$rsp+0]
	#DEBUG_VALUE: main:v3 <- [DW_OP_plus_uconst 128] [$rsp+0]
	#DEBUG_VALUE: main:v1 <- [DW_OP_plus_uconst 120] [$rsp+0]
	#DEBUG_VALUE: main:v2 <- [DW_OP_plus_uconst 112] [$rsp+0]
	#DEBUG_VALUE: main:psi <- [DW_OP_plus_uconst 40] [$rsp+0]
	#DEBUG_VALUE: main:psi2 <- [DW_OP_plus_uconst 32] [$rsp+0]
	#DEBUG_VALUE: main:chi <- [DW_OP_plus_uconst 152] [$rsp+0]
	#DEBUG_VALUE: main:chi2 <- [DW_OP_plus_uconst 144] [$rsp+0]
	#DEBUG_VALUE: main:chi3 <- [DW_OP_plus_uconst 184] [$rsp+0]
	#DEBUG_VALUE: main:chi4 <- [DW_OP_plus_uconst 176] [$rsp+0]
	#DEBUG_VALUE: main:chi5 <- [DW_OP_plus_uconst 72] [$rsp+0]
	#DEBUG_VALUE: main:chi6 <- [DW_OP_plus_uconst 64] [$rsp+0]
	vmovapd	%xmm4, %xmm0
	vmovapd	%xmm5, %xmm1
	movq	%r9, %rbx
	movq	%rdi, 56(%rsp)                  # 8-byte Spill
	movq	%rdx, 24(%rsp)                  # 8-byte Spill
	movq	%rax, 88(%rsp)                  # 8-byte Spill
	callq	__muldc3
.Ltmp353:
	.loc	0 0 3                           # avx_complex_vec_align_load.c:0:3
	movq	88(%rsp), %rax                  # 8-byte Reload
	movq	24(%rsp), %rdx                  # 8-byte Reload
	movq	56(%rsp), %rdi                  # 8-byte Reload
	movq	%rbx, %r9
	movq	64(%rsp), %r10                  # 8-byte Reload
.Ltmp354:
	#DEBUG_VALUE: main:chi6 <- $r10
	movq	72(%rsp), %r8                   # 8-byte Reload
.Ltmp355:
	#DEBUG_VALUE: main:chi5 <- $r8
	movq	32(%rsp), %rsi                  # 8-byte Reload
.Ltmp356:
	#DEBUG_VALUE: main:psi2 <- $rsi
	movq	40(%rsp), %r11                  # 8-byte Reload
.Ltmp357:
	#DEBUG_VALUE: main:psi <- $r11
	movq	48(%rsp), %rcx                  # 8-byte Reload
.Ltmp358:
	#DEBUG_VALUE: main:up <- $rcx
	jmp	.LBB0_58
.Ltmp359:
.LBB0_59:                               #   in Loop: Header=BB0_21 Depth=1
	#DEBUG_VALUE: main:n <- 5
	#DEBUG_VALUE: main:res1 <- 0.000000e+00
	#DEBUG_VALUE: main:res2 <- 0.000000e+00
	#DEBUG_VALUE: main:res3 <- 0.000000e+00
	#DEBUG_VALUE: main:res4 <- 0.000000e+00
	#DEBUG_VALUE: main:res5 <- 0.000000e+00
	#DEBUG_VALUE: main:res6 <- 0.000000e+00
	#DEBUG_VALUE: main:res7 <- 0.000000e+00
	#DEBUG_VALUE: main:res8 <- 0.000000e+00
	#DEBUG_VALUE: main:res9 <- 0.000000e+00
	#DEBUG_VALUE: main:res10 <- 0.000000e+00
	#DEBUG_VALUE: main:res11 <- 0.000000e+00
	#DEBUG_VALUE: main:res12 <- 0.000000e+00
	#DEBUG_VALUE: main:in <- 100000000
	#DEBUG_VALUE: main:n_times <- 0
	#DEBUG_VALUE: main:n_warmup <- 0
	#DEBUG_VALUE: main:up <- [DW_OP_plus_uconst 48] [$rsp+0]
	#DEBUG_VALUE: main:v3 <- [DW_OP_plus_uconst 128] [$rsp+0]
	#DEBUG_VALUE: main:v1 <- [DW_OP_plus_uconst 120] [$rsp+0]
	#DEBUG_VALUE: main:v2 <- [DW_OP_plus_uconst 112] [$rsp+0]
	#DEBUG_VALUE: main:psi <- [DW_OP_plus_uconst 40] [$rsp+0]
	#DEBUG_VALUE: main:psi2 <- [DW_OP_plus_uconst 32] [$rsp+0]
	#DEBUG_VALUE: main:chi <- [DW_OP_plus_uconst 152] [$rsp+0]
	#DEBUG_VALUE: main:chi2 <- [DW_OP_plus_uconst 144] [$rsp+0]
	#DEBUG_VALUE: main:chi3 <- [DW_OP_plus_uconst 184] [$rsp+0]
	#DEBUG_VALUE: main:chi4 <- [DW_OP_plus_uconst 176] [$rsp+0]
	#DEBUG_VALUE: main:chi5 <- [DW_OP_plus_uconst 72] [$rsp+0]
	#DEBUG_VALUE: main:chi6 <- [DW_OP_plus_uconst 64] [$rsp+0]
	.loc	0 251 3                         # avx_complex_vec_align_load.c:251:3
	vucomisd	%xmm1, %xmm1
	jnp	.LBB0_61
.Ltmp360:
# %bb.60:                               #   in Loop: Header=BB0_21 Depth=1
	#DEBUG_VALUE: main:n <- 5
	#DEBUG_VALUE: main:res1 <- 0.000000e+00
	#DEBUG_VALUE: main:res2 <- 0.000000e+00
	#DEBUG_VALUE: main:res3 <- 0.000000e+00
	#DEBUG_VALUE: main:res4 <- 0.000000e+00
	#DEBUG_VALUE: main:res5 <- 0.000000e+00
	#DEBUG_VALUE: main:res6 <- 0.000000e+00
	#DEBUG_VALUE: main:res7 <- 0.000000e+00
	#DEBUG_VALUE: main:res8 <- 0.000000e+00
	#DEBUG_VALUE: main:res9 <- 0.000000e+00
	#DEBUG_VALUE: main:res10 <- 0.000000e+00
	#DEBUG_VALUE: main:res11 <- 0.000000e+00
	#DEBUG_VALUE: main:res12 <- 0.000000e+00
	#DEBUG_VALUE: main:in <- 100000000
	#DEBUG_VALUE: main:n_times <- 0
	#DEBUG_VALUE: main:n_warmup <- 0
	#DEBUG_VALUE: main:up <- [DW_OP_plus_uconst 48] [$rsp+0]
	#DEBUG_VALUE: main:v3 <- [DW_OP_plus_uconst 128] [$rsp+0]
	#DEBUG_VALUE: main:v1 <- [DW_OP_plus_uconst 120] [$rsp+0]
	#DEBUG_VALUE: main:v2 <- [DW_OP_plus_uconst 112] [$rsp+0]
	#DEBUG_VALUE: main:psi <- [DW_OP_plus_uconst 40] [$rsp+0]
	#DEBUG_VALUE: main:psi2 <- [DW_OP_plus_uconst 32] [$rsp+0]
	#DEBUG_VALUE: main:chi <- [DW_OP_plus_uconst 152] [$rsp+0]
	#DEBUG_VALUE: main:chi2 <- [DW_OP_plus_uconst 144] [$rsp+0]
	#DEBUG_VALUE: main:chi3 <- [DW_OP_plus_uconst 184] [$rsp+0]
	#DEBUG_VALUE: main:chi4 <- [DW_OP_plus_uconst 176] [$rsp+0]
	#DEBUG_VALUE: main:chi5 <- [DW_OP_plus_uconst 72] [$rsp+0]
	#DEBUG_VALUE: main:chi6 <- [DW_OP_plus_uconst 64] [$rsp+0]
	vmovapd	%xmm4, %xmm0
	vmovapd	%xmm5, %xmm1
	movq	%r9, 80(%rsp)                   # 8-byte Spill
	movq	%rdi, 56(%rsp)                  # 8-byte Spill
	movq	%rdx, 24(%rsp)                  # 8-byte Spill
	movq	%rax, 88(%rsp)                  # 8-byte Spill
	callq	__muldc3
.Ltmp361:
	.loc	0 0 3                           # avx_complex_vec_align_load.c:0:3
	movq	88(%rsp), %rax                  # 8-byte Reload
	movq	24(%rsp), %rdx                  # 8-byte Reload
	movq	56(%rsp), %rdi                  # 8-byte Reload
	movq	80(%rsp), %r9                   # 8-byte Reload
	movq	64(%rsp), %r10                  # 8-byte Reload
.Ltmp362:
	#DEBUG_VALUE: main:chi6 <- $r10
	movq	72(%rsp), %r8                   # 8-byte Reload
.Ltmp363:
	#DEBUG_VALUE: main:chi5 <- $r8
	movq	32(%rsp), %rsi                  # 8-byte Reload
.Ltmp364:
	#DEBUG_VALUE: main:psi2 <- $rsi
	movq	40(%rsp), %r11                  # 8-byte Reload
.Ltmp365:
	#DEBUG_VALUE: main:psi <- $r11
	movq	48(%rsp), %rcx                  # 8-byte Reload
.Ltmp366:
	#DEBUG_VALUE: main:up <- $rcx
	jmp	.LBB0_61
.Ltmp367:
.LBB0_62:                               #   in Loop: Header=BB0_21 Depth=1
	#DEBUG_VALUE: main:n <- 5
	#DEBUG_VALUE: main:res1 <- 0.000000e+00
	#DEBUG_VALUE: main:res2 <- 0.000000e+00
	#DEBUG_VALUE: main:res3 <- 0.000000e+00
	#DEBUG_VALUE: main:res4 <- 0.000000e+00
	#DEBUG_VALUE: main:res5 <- 0.000000e+00
	#DEBUG_VALUE: main:res6 <- 0.000000e+00
	#DEBUG_VALUE: main:res7 <- 0.000000e+00
	#DEBUG_VALUE: main:res8 <- 0.000000e+00
	#DEBUG_VALUE: main:res9 <- 0.000000e+00
	#DEBUG_VALUE: main:res10 <- 0.000000e+00
	#DEBUG_VALUE: main:res11 <- 0.000000e+00
	#DEBUG_VALUE: main:res12 <- 0.000000e+00
	#DEBUG_VALUE: main:in <- 100000000
	#DEBUG_VALUE: main:n_times <- 0
	#DEBUG_VALUE: main:n_warmup <- 0
	#DEBUG_VALUE: main:up <- [DW_OP_plus_uconst 48] [$rsp+0]
	#DEBUG_VALUE: main:v3 <- [DW_OP_plus_uconst 128] [$rsp+0]
	#DEBUG_VALUE: main:v1 <- [DW_OP_plus_uconst 120] [$rsp+0]
	#DEBUG_VALUE: main:v2 <- [DW_OP_plus_uconst 112] [$rsp+0]
	#DEBUG_VALUE: main:psi <- [DW_OP_plus_uconst 40] [$rsp+0]
	#DEBUG_VALUE: main:psi2 <- [DW_OP_plus_uconst 32] [$rsp+0]
	#DEBUG_VALUE: main:chi <- [DW_OP_plus_uconst 152] [$rsp+0]
	#DEBUG_VALUE: main:chi2 <- [DW_OP_plus_uconst 144] [$rsp+0]
	#DEBUG_VALUE: main:chi3 <- [DW_OP_plus_uconst 184] [$rsp+0]
	#DEBUG_VALUE: main:chi4 <- [DW_OP_plus_uconst 176] [$rsp+0]
	#DEBUG_VALUE: main:chi5 <- [DW_OP_plus_uconst 72] [$rsp+0]
	#DEBUG_VALUE: main:chi6 <- [DW_OP_plus_uconst 64] [$rsp+0]
	.loc	0 251 3                         # avx_complex_vec_align_load.c:251:3
	vucomisd	%xmm1, %xmm1
	jnp	.LBB0_64
.Ltmp368:
# %bb.63:                               #   in Loop: Header=BB0_21 Depth=1
	#DEBUG_VALUE: main:n <- 5
	#DEBUG_VALUE: main:res1 <- 0.000000e+00
	#DEBUG_VALUE: main:res2 <- 0.000000e+00
	#DEBUG_VALUE: main:res3 <- 0.000000e+00
	#DEBUG_VALUE: main:res4 <- 0.000000e+00
	#DEBUG_VALUE: main:res5 <- 0.000000e+00
	#DEBUG_VALUE: main:res6 <- 0.000000e+00
	#DEBUG_VALUE: main:res7 <- 0.000000e+00
	#DEBUG_VALUE: main:res8 <- 0.000000e+00
	#DEBUG_VALUE: main:res9 <- 0.000000e+00
	#DEBUG_VALUE: main:res10 <- 0.000000e+00
	#DEBUG_VALUE: main:res11 <- 0.000000e+00
	#DEBUG_VALUE: main:res12 <- 0.000000e+00
	#DEBUG_VALUE: main:in <- 100000000
	#DEBUG_VALUE: main:n_times <- 0
	#DEBUG_VALUE: main:n_warmup <- 0
	#DEBUG_VALUE: main:up <- [DW_OP_plus_uconst 48] [$rsp+0]
	#DEBUG_VALUE: main:v3 <- [DW_OP_plus_uconst 128] [$rsp+0]
	#DEBUG_VALUE: main:v1 <- [DW_OP_plus_uconst 120] [$rsp+0]
	#DEBUG_VALUE: main:v2 <- [DW_OP_plus_uconst 112] [$rsp+0]
	#DEBUG_VALUE: main:psi <- [DW_OP_plus_uconst 40] [$rsp+0]
	#DEBUG_VALUE: main:psi2 <- [DW_OP_plus_uconst 32] [$rsp+0]
	#DEBUG_VALUE: main:chi <- [DW_OP_plus_uconst 152] [$rsp+0]
	#DEBUG_VALUE: main:chi2 <- [DW_OP_plus_uconst 144] [$rsp+0]
	#DEBUG_VALUE: main:chi3 <- [DW_OP_plus_uconst 184] [$rsp+0]
	#DEBUG_VALUE: main:chi4 <- [DW_OP_plus_uconst 176] [$rsp+0]
	#DEBUG_VALUE: main:chi5 <- [DW_OP_plus_uconst 72] [$rsp+0]
	#DEBUG_VALUE: main:chi6 <- [DW_OP_plus_uconst 64] [$rsp+0]
	vmovapd	%xmm4, %xmm0
	vmovapd	%xmm5, %xmm1
	movq	%r9, %rbx
	movq	%rdi, 56(%rsp)                  # 8-byte Spill
	movq	%rdx, %r15
	movq	%rax, 88(%rsp)                  # 8-byte Spill
	callq	__muldc3
.Ltmp369:
	.loc	0 0 3                           # avx_complex_vec_align_load.c:0:3
	movq	88(%rsp), %rax                  # 8-byte Reload
	movq	%r15, %rdx
	movq	56(%rsp), %rdi                  # 8-byte Reload
	movq	%rbx, %r9
	movq	64(%rsp), %r10                  # 8-byte Reload
.Ltmp370:
	#DEBUG_VALUE: main:chi6 <- $r10
	movq	72(%rsp), %r8                   # 8-byte Reload
.Ltmp371:
	#DEBUG_VALUE: main:chi5 <- $r8
	movq	32(%rsp), %rsi                  # 8-byte Reload
.Ltmp372:
	#DEBUG_VALUE: main:psi2 <- $rsi
	movq	40(%rsp), %r11                  # 8-byte Reload
.Ltmp373:
	#DEBUG_VALUE: main:psi <- $r11
	movq	48(%rsp), %rcx                  # 8-byte Reload
.Ltmp374:
	#DEBUG_VALUE: main:up <- $rcx
	jmp	.LBB0_64
.Ltmp375:
.LBB0_65:                               #   in Loop: Header=BB0_21 Depth=1
	#DEBUG_VALUE: main:n <- 5
	#DEBUG_VALUE: main:res1 <- 0.000000e+00
	#DEBUG_VALUE: main:res2 <- 0.000000e+00
	#DEBUG_VALUE: main:res3 <- 0.000000e+00
	#DEBUG_VALUE: main:res4 <- 0.000000e+00
	#DEBUG_VALUE: main:res5 <- 0.000000e+00
	#DEBUG_VALUE: main:res6 <- 0.000000e+00
	#DEBUG_VALUE: main:res7 <- 0.000000e+00
	#DEBUG_VALUE: main:res8 <- 0.000000e+00
	#DEBUG_VALUE: main:res9 <- 0.000000e+00
	#DEBUG_VALUE: main:res10 <- 0.000000e+00
	#DEBUG_VALUE: main:res11 <- 0.000000e+00
	#DEBUG_VALUE: main:res12 <- 0.000000e+00
	#DEBUG_VALUE: main:in <- 100000000
	#DEBUG_VALUE: main:n_times <- 0
	#DEBUG_VALUE: main:n_warmup <- 0
	#DEBUG_VALUE: main:up <- [DW_OP_plus_uconst 48] [$rsp+0]
	#DEBUG_VALUE: main:v3 <- [DW_OP_plus_uconst 128] [$rsp+0]
	#DEBUG_VALUE: main:v1 <- [DW_OP_plus_uconst 120] [$rsp+0]
	#DEBUG_VALUE: main:v2 <- [DW_OP_plus_uconst 112] [$rsp+0]
	#DEBUG_VALUE: main:psi <- [DW_OP_plus_uconst 40] [$rsp+0]
	#DEBUG_VALUE: main:psi2 <- [DW_OP_plus_uconst 32] [$rsp+0]
	#DEBUG_VALUE: main:chi <- [DW_OP_plus_uconst 152] [$rsp+0]
	#DEBUG_VALUE: main:chi2 <- [DW_OP_plus_uconst 144] [$rsp+0]
	#DEBUG_VALUE: main:chi3 <- [DW_OP_plus_uconst 184] [$rsp+0]
	#DEBUG_VALUE: main:chi4 <- [DW_OP_plus_uconst 176] [$rsp+0]
	#DEBUG_VALUE: main:chi5 <- [DW_OP_plus_uconst 72] [$rsp+0]
	#DEBUG_VALUE: main:chi6 <- [DW_OP_plus_uconst 64] [$rsp+0]
	.loc	0 251 3                         # avx_complex_vec_align_load.c:251:3
	vucomisd	%xmm1, %xmm1
	jnp	.LBB0_67
.Ltmp376:
# %bb.66:                               #   in Loop: Header=BB0_21 Depth=1
	#DEBUG_VALUE: main:n <- 5
	#DEBUG_VALUE: main:res1 <- 0.000000e+00
	#DEBUG_VALUE: main:res2 <- 0.000000e+00
	#DEBUG_VALUE: main:res3 <- 0.000000e+00
	#DEBUG_VALUE: main:res4 <- 0.000000e+00
	#DEBUG_VALUE: main:res5 <- 0.000000e+00
	#DEBUG_VALUE: main:res6 <- 0.000000e+00
	#DEBUG_VALUE: main:res7 <- 0.000000e+00
	#DEBUG_VALUE: main:res8 <- 0.000000e+00
	#DEBUG_VALUE: main:res9 <- 0.000000e+00
	#DEBUG_VALUE: main:res10 <- 0.000000e+00
	#DEBUG_VALUE: main:res11 <- 0.000000e+00
	#DEBUG_VALUE: main:res12 <- 0.000000e+00
	#DEBUG_VALUE: main:in <- 100000000
	#DEBUG_VALUE: main:n_times <- 0
	#DEBUG_VALUE: main:n_warmup <- 0
	#DEBUG_VALUE: main:up <- [DW_OP_plus_uconst 48] [$rsp+0]
	#DEBUG_VALUE: main:v3 <- [DW_OP_plus_uconst 128] [$rsp+0]
	#DEBUG_VALUE: main:v1 <- [DW_OP_plus_uconst 120] [$rsp+0]
	#DEBUG_VALUE: main:v2 <- [DW_OP_plus_uconst 112] [$rsp+0]
	#DEBUG_VALUE: main:psi <- [DW_OP_plus_uconst 40] [$rsp+0]
	#DEBUG_VALUE: main:psi2 <- [DW_OP_plus_uconst 32] [$rsp+0]
	#DEBUG_VALUE: main:chi <- [DW_OP_plus_uconst 152] [$rsp+0]
	#DEBUG_VALUE: main:chi2 <- [DW_OP_plus_uconst 144] [$rsp+0]
	#DEBUG_VALUE: main:chi3 <- [DW_OP_plus_uconst 184] [$rsp+0]
	#DEBUG_VALUE: main:chi4 <- [DW_OP_plus_uconst 176] [$rsp+0]
	#DEBUG_VALUE: main:chi5 <- [DW_OP_plus_uconst 72] [$rsp+0]
	#DEBUG_VALUE: main:chi6 <- [DW_OP_plus_uconst 64] [$rsp+0]
	vmovapd	%xmm4, %xmm0
	vmovapd	%xmm5, %xmm1
	movq	%r9, %rbx
	movq	%rdi, 56(%rsp)                  # 8-byte Spill
	movq	%rdx, %r15
	movq	%rax, 88(%rsp)                  # 8-byte Spill
	callq	__muldc3
.Ltmp377:
	.loc	0 0 3                           # avx_complex_vec_align_load.c:0:3
	movq	88(%rsp), %rax                  # 8-byte Reload
	movq	%r15, %rdx
	movq	56(%rsp), %rdi                  # 8-byte Reload
	movq	%rbx, %r9
	movq	64(%rsp), %r10                  # 8-byte Reload
.Ltmp378:
	#DEBUG_VALUE: main:chi6 <- $r10
	movq	72(%rsp), %r8                   # 8-byte Reload
.Ltmp379:
	#DEBUG_VALUE: main:chi5 <- $r8
	movq	32(%rsp), %rsi                  # 8-byte Reload
.Ltmp380:
	#DEBUG_VALUE: main:psi2 <- $rsi
	movq	40(%rsp), %r11                  # 8-byte Reload
.Ltmp381:
	#DEBUG_VALUE: main:psi <- $r11
	movq	48(%rsp), %rcx                  # 8-byte Reload
.Ltmp382:
	#DEBUG_VALUE: main:up <- $rcx
	jmp	.LBB0_67
.Ltmp383:
.LBB0_68:                               #   in Loop: Header=BB0_21 Depth=1
	#DEBUG_VALUE: main:n <- 5
	#DEBUG_VALUE: main:res1 <- 0.000000e+00
	#DEBUG_VALUE: main:res2 <- 0.000000e+00
	#DEBUG_VALUE: main:res3 <- 0.000000e+00
	#DEBUG_VALUE: main:res4 <- 0.000000e+00
	#DEBUG_VALUE: main:res5 <- 0.000000e+00
	#DEBUG_VALUE: main:res6 <- 0.000000e+00
	#DEBUG_VALUE: main:res7 <- 0.000000e+00
	#DEBUG_VALUE: main:res8 <- 0.000000e+00
	#DEBUG_VALUE: main:res9 <- 0.000000e+00
	#DEBUG_VALUE: main:res10 <- 0.000000e+00
	#DEBUG_VALUE: main:res11 <- 0.000000e+00
	#DEBUG_VALUE: main:res12 <- 0.000000e+00
	#DEBUG_VALUE: main:in <- 100000000
	#DEBUG_VALUE: main:n_times <- 0
	#DEBUG_VALUE: main:n_warmup <- 0
	#DEBUG_VALUE: main:up <- [DW_OP_plus_uconst 48] [$rsp+0]
	#DEBUG_VALUE: main:v3 <- [DW_OP_plus_uconst 128] [$rsp+0]
	#DEBUG_VALUE: main:v1 <- [DW_OP_plus_uconst 120] [$rsp+0]
	#DEBUG_VALUE: main:v2 <- [DW_OP_plus_uconst 112] [$rsp+0]
	#DEBUG_VALUE: main:psi <- [DW_OP_plus_uconst 40] [$rsp+0]
	#DEBUG_VALUE: main:psi2 <- [DW_OP_plus_uconst 32] [$rsp+0]
	#DEBUG_VALUE: main:chi <- [DW_OP_plus_uconst 152] [$rsp+0]
	#DEBUG_VALUE: main:chi2 <- [DW_OP_plus_uconst 144] [$rsp+0]
	#DEBUG_VALUE: main:chi3 <- [DW_OP_plus_uconst 184] [$rsp+0]
	#DEBUG_VALUE: main:chi4 <- [DW_OP_plus_uconst 176] [$rsp+0]
	#DEBUG_VALUE: main:chi5 <- [DW_OP_plus_uconst 72] [$rsp+0]
	#DEBUG_VALUE: main:chi6 <- [DW_OP_plus_uconst 64] [$rsp+0]
	.loc	0 251 3                         # avx_complex_vec_align_load.c:251:3
	vucomisd	%xmm1, %xmm1
	jnp	.LBB0_70
.Ltmp384:
# %bb.69:                               #   in Loop: Header=BB0_21 Depth=1
	#DEBUG_VALUE: main:n <- 5
	#DEBUG_VALUE: main:res1 <- 0.000000e+00
	#DEBUG_VALUE: main:res2 <- 0.000000e+00
	#DEBUG_VALUE: main:res3 <- 0.000000e+00
	#DEBUG_VALUE: main:res4 <- 0.000000e+00
	#DEBUG_VALUE: main:res5 <- 0.000000e+00
	#DEBUG_VALUE: main:res6 <- 0.000000e+00
	#DEBUG_VALUE: main:res7 <- 0.000000e+00
	#DEBUG_VALUE: main:res8 <- 0.000000e+00
	#DEBUG_VALUE: main:res9 <- 0.000000e+00
	#DEBUG_VALUE: main:res10 <- 0.000000e+00
	#DEBUG_VALUE: main:res11 <- 0.000000e+00
	#DEBUG_VALUE: main:res12 <- 0.000000e+00
	#DEBUG_VALUE: main:in <- 100000000
	#DEBUG_VALUE: main:n_times <- 0
	#DEBUG_VALUE: main:n_warmup <- 0
	#DEBUG_VALUE: main:up <- [DW_OP_plus_uconst 48] [$rsp+0]
	#DEBUG_VALUE: main:v3 <- [DW_OP_plus_uconst 128] [$rsp+0]
	#DEBUG_VALUE: main:v1 <- [DW_OP_plus_uconst 120] [$rsp+0]
	#DEBUG_VALUE: main:v2 <- [DW_OP_plus_uconst 112] [$rsp+0]
	#DEBUG_VALUE: main:psi <- [DW_OP_plus_uconst 40] [$rsp+0]
	#DEBUG_VALUE: main:psi2 <- [DW_OP_plus_uconst 32] [$rsp+0]
	#DEBUG_VALUE: main:chi <- [DW_OP_plus_uconst 152] [$rsp+0]
	#DEBUG_VALUE: main:chi2 <- [DW_OP_plus_uconst 144] [$rsp+0]
	#DEBUG_VALUE: main:chi3 <- [DW_OP_plus_uconst 184] [$rsp+0]
	#DEBUG_VALUE: main:chi4 <- [DW_OP_plus_uconst 176] [$rsp+0]
	#DEBUG_VALUE: main:chi5 <- [DW_OP_plus_uconst 72] [$rsp+0]
	#DEBUG_VALUE: main:chi6 <- [DW_OP_plus_uconst 64] [$rsp+0]
	vmovapd	%xmm4, %xmm0
	vmovapd	%xmm5, %xmm1
	movq	%r9, %r15
	movq	%rdi, 56(%rsp)                  # 8-byte Spill
	movq	%rdx, 24(%rsp)                  # 8-byte Spill
	movq	%rax, 88(%rsp)                  # 8-byte Spill
	callq	__muldc3
.Ltmp385:
	.loc	0 0 3                           # avx_complex_vec_align_load.c:0:3
	movq	88(%rsp), %rax                  # 8-byte Reload
	movq	24(%rsp), %rdx                  # 8-byte Reload
	movq	56(%rsp), %rdi                  # 8-byte Reload
	movq	%r15, %r9
	movq	64(%rsp), %r10                  # 8-byte Reload
.Ltmp386:
	#DEBUG_VALUE: main:chi6 <- $r10
	movq	72(%rsp), %r8                   # 8-byte Reload
.Ltmp387:
	#DEBUG_VALUE: main:chi5 <- $r8
	movq	32(%rsp), %rsi                  # 8-byte Reload
.Ltmp388:
	#DEBUG_VALUE: main:psi2 <- $rsi
	movq	40(%rsp), %r11                  # 8-byte Reload
.Ltmp389:
	#DEBUG_VALUE: main:psi <- $r11
	movq	48(%rsp), %rcx                  # 8-byte Reload
.Ltmp390:
	#DEBUG_VALUE: main:up <- $rcx
	jmp	.LBB0_70
.Ltmp391:
.LBB0_71:                               #   in Loop: Header=BB0_21 Depth=1
	#DEBUG_VALUE: main:n <- 5
	#DEBUG_VALUE: main:res1 <- 0.000000e+00
	#DEBUG_VALUE: main:res2 <- 0.000000e+00
	#DEBUG_VALUE: main:res3 <- 0.000000e+00
	#DEBUG_VALUE: main:res4 <- 0.000000e+00
	#DEBUG_VALUE: main:res5 <- 0.000000e+00
	#DEBUG_VALUE: main:res6 <- 0.000000e+00
	#DEBUG_VALUE: main:res7 <- 0.000000e+00
	#DEBUG_VALUE: main:res8 <- 0.000000e+00
	#DEBUG_VALUE: main:res9 <- 0.000000e+00
	#DEBUG_VALUE: main:res10 <- 0.000000e+00
	#DEBUG_VALUE: main:res11 <- 0.000000e+00
	#DEBUG_VALUE: main:res12 <- 0.000000e+00
	#DEBUG_VALUE: main:in <- 100000000
	#DEBUG_VALUE: main:n_times <- 0
	#DEBUG_VALUE: main:n_warmup <- 0
	#DEBUG_VALUE: main:up <- [DW_OP_plus_uconst 48] [$rsp+0]
	#DEBUG_VALUE: main:v3 <- [DW_OP_plus_uconst 128] [$rsp+0]
	#DEBUG_VALUE: main:v1 <- [DW_OP_plus_uconst 120] [$rsp+0]
	#DEBUG_VALUE: main:v2 <- [DW_OP_plus_uconst 112] [$rsp+0]
	#DEBUG_VALUE: main:psi <- [DW_OP_plus_uconst 40] [$rsp+0]
	#DEBUG_VALUE: main:psi2 <- [DW_OP_plus_uconst 32] [$rsp+0]
	#DEBUG_VALUE: main:chi <- [DW_OP_plus_uconst 152] [$rsp+0]
	#DEBUG_VALUE: main:chi2 <- [DW_OP_plus_uconst 144] [$rsp+0]
	#DEBUG_VALUE: main:chi3 <- [DW_OP_plus_uconst 184] [$rsp+0]
	#DEBUG_VALUE: main:chi4 <- [DW_OP_plus_uconst 176] [$rsp+0]
	#DEBUG_VALUE: main:chi5 <- [DW_OP_plus_uconst 72] [$rsp+0]
	#DEBUG_VALUE: main:chi6 <- [DW_OP_plus_uconst 64] [$rsp+0]
	.loc	0 251 3                         # avx_complex_vec_align_load.c:251:3
	vucomisd	%xmm1, %xmm1
	jnp	.LBB0_73
.Ltmp392:
# %bb.72:                               #   in Loop: Header=BB0_21 Depth=1
	#DEBUG_VALUE: main:n <- 5
	#DEBUG_VALUE: main:res1 <- 0.000000e+00
	#DEBUG_VALUE: main:res2 <- 0.000000e+00
	#DEBUG_VALUE: main:res3 <- 0.000000e+00
	#DEBUG_VALUE: main:res4 <- 0.000000e+00
	#DEBUG_VALUE: main:res5 <- 0.000000e+00
	#DEBUG_VALUE: main:res6 <- 0.000000e+00
	#DEBUG_VALUE: main:res7 <- 0.000000e+00
	#DEBUG_VALUE: main:res8 <- 0.000000e+00
	#DEBUG_VALUE: main:res9 <- 0.000000e+00
	#DEBUG_VALUE: main:res10 <- 0.000000e+00
	#DEBUG_VALUE: main:res11 <- 0.000000e+00
	#DEBUG_VALUE: main:res12 <- 0.000000e+00
	#DEBUG_VALUE: main:in <- 100000000
	#DEBUG_VALUE: main:n_times <- 0
	#DEBUG_VALUE: main:n_warmup <- 0
	#DEBUG_VALUE: main:up <- [DW_OP_plus_uconst 48] [$rsp+0]
	#DEBUG_VALUE: main:v3 <- [DW_OP_plus_uconst 128] [$rsp+0]
	#DEBUG_VALUE: main:v1 <- [DW_OP_plus_uconst 120] [$rsp+0]
	#DEBUG_VALUE: main:v2 <- [DW_OP_plus_uconst 112] [$rsp+0]
	#DEBUG_VALUE: main:psi <- [DW_OP_plus_uconst 40] [$rsp+0]
	#DEBUG_VALUE: main:psi2 <- [DW_OP_plus_uconst 32] [$rsp+0]
	#DEBUG_VALUE: main:chi <- [DW_OP_plus_uconst 152] [$rsp+0]
	#DEBUG_VALUE: main:chi2 <- [DW_OP_plus_uconst 144] [$rsp+0]
	#DEBUG_VALUE: main:chi3 <- [DW_OP_plus_uconst 184] [$rsp+0]
	#DEBUG_VALUE: main:chi4 <- [DW_OP_plus_uconst 176] [$rsp+0]
	#DEBUG_VALUE: main:chi5 <- [DW_OP_plus_uconst 72] [$rsp+0]
	#DEBUG_VALUE: main:chi6 <- [DW_OP_plus_uconst 64] [$rsp+0]
	vmovapd	%xmm4, %xmm0
	vmovapd	%xmm5, %xmm1
	movq	%r9, %rbx
	movq	%rdi, 56(%rsp)                  # 8-byte Spill
	movq	%rdx, %r15
	movq	%rax, 88(%rsp)                  # 8-byte Spill
	callq	__muldc3
.Ltmp393:
	.loc	0 0 3                           # avx_complex_vec_align_load.c:0:3
	movq	88(%rsp), %rax                  # 8-byte Reload
	movq	%r15, %rdx
	movq	56(%rsp), %rdi                  # 8-byte Reload
	movq	%rbx, %r9
	movq	64(%rsp), %r10                  # 8-byte Reload
.Ltmp394:
	#DEBUG_VALUE: main:chi6 <- $r10
	movq	72(%rsp), %r8                   # 8-byte Reload
.Ltmp395:
	#DEBUG_VALUE: main:chi5 <- $r8
	movq	32(%rsp), %rsi                  # 8-byte Reload
.Ltmp396:
	#DEBUG_VALUE: main:psi2 <- $rsi
	movq	40(%rsp), %r11                  # 8-byte Reload
.Ltmp397:
	#DEBUG_VALUE: main:psi <- $r11
	movq	48(%rsp), %rcx                  # 8-byte Reload
.Ltmp398:
	#DEBUG_VALUE: main:up <- $rcx
	jmp	.LBB0_73
.Ltmp399:
.LBB0_74:                               #   in Loop: Header=BB0_21 Depth=1
	#DEBUG_VALUE: main:n <- 5
	#DEBUG_VALUE: main:res1 <- 0.000000e+00
	#DEBUG_VALUE: main:res2 <- 0.000000e+00
	#DEBUG_VALUE: main:res3 <- 0.000000e+00
	#DEBUG_VALUE: main:res4 <- 0.000000e+00
	#DEBUG_VALUE: main:res5 <- 0.000000e+00
	#DEBUG_VALUE: main:res6 <- 0.000000e+00
	#DEBUG_VALUE: main:res7 <- 0.000000e+00
	#DEBUG_VALUE: main:res8 <- 0.000000e+00
	#DEBUG_VALUE: main:res9 <- 0.000000e+00
	#DEBUG_VALUE: main:res10 <- 0.000000e+00
	#DEBUG_VALUE: main:res11 <- 0.000000e+00
	#DEBUG_VALUE: main:res12 <- 0.000000e+00
	#DEBUG_VALUE: main:in <- 100000000
	#DEBUG_VALUE: main:n_times <- 0
	#DEBUG_VALUE: main:n_warmup <- 0
	#DEBUG_VALUE: main:up <- [DW_OP_plus_uconst 48] [$rsp+0]
	#DEBUG_VALUE: main:v3 <- [DW_OP_plus_uconst 128] [$rsp+0]
	#DEBUG_VALUE: main:v1 <- [DW_OP_plus_uconst 120] [$rsp+0]
	#DEBUG_VALUE: main:v2 <- [DW_OP_plus_uconst 112] [$rsp+0]
	#DEBUG_VALUE: main:psi <- [DW_OP_plus_uconst 40] [$rsp+0]
	#DEBUG_VALUE: main:psi2 <- [DW_OP_plus_uconst 32] [$rsp+0]
	#DEBUG_VALUE: main:chi <- [DW_OP_plus_uconst 152] [$rsp+0]
	#DEBUG_VALUE: main:chi2 <- [DW_OP_plus_uconst 144] [$rsp+0]
	#DEBUG_VALUE: main:chi3 <- [DW_OP_plus_uconst 184] [$rsp+0]
	#DEBUG_VALUE: main:chi4 <- [DW_OP_plus_uconst 176] [$rsp+0]
	#DEBUG_VALUE: main:chi5 <- [DW_OP_plus_uconst 72] [$rsp+0]
	#DEBUG_VALUE: main:chi6 <- [DW_OP_plus_uconst 64] [$rsp+0]
	.loc	0 251 3                         # avx_complex_vec_align_load.c:251:3
	vucomisd	%xmm1, %xmm1
	jnp	.LBB0_76
.Ltmp400:
# %bb.75:                               #   in Loop: Header=BB0_21 Depth=1
	#DEBUG_VALUE: main:n <- 5
	#DEBUG_VALUE: main:res1 <- 0.000000e+00
	#DEBUG_VALUE: main:res2 <- 0.000000e+00
	#DEBUG_VALUE: main:res3 <- 0.000000e+00
	#DEBUG_VALUE: main:res4 <- 0.000000e+00
	#DEBUG_VALUE: main:res5 <- 0.000000e+00
	#DEBUG_VALUE: main:res6 <- 0.000000e+00
	#DEBUG_VALUE: main:res7 <- 0.000000e+00
	#DEBUG_VALUE: main:res8 <- 0.000000e+00
	#DEBUG_VALUE: main:res9 <- 0.000000e+00
	#DEBUG_VALUE: main:res10 <- 0.000000e+00
	#DEBUG_VALUE: main:res11 <- 0.000000e+00
	#DEBUG_VALUE: main:res12 <- 0.000000e+00
	#DEBUG_VALUE: main:in <- 100000000
	#DEBUG_VALUE: main:n_times <- 0
	#DEBUG_VALUE: main:n_warmup <- 0
	#DEBUG_VALUE: main:up <- [DW_OP_plus_uconst 48] [$rsp+0]
	#DEBUG_VALUE: main:v3 <- [DW_OP_plus_uconst 128] [$rsp+0]
	#DEBUG_VALUE: main:v1 <- [DW_OP_plus_uconst 120] [$rsp+0]
	#DEBUG_VALUE: main:v2 <- [DW_OP_plus_uconst 112] [$rsp+0]
	#DEBUG_VALUE: main:psi <- [DW_OP_plus_uconst 40] [$rsp+0]
	#DEBUG_VALUE: main:psi2 <- [DW_OP_plus_uconst 32] [$rsp+0]
	#DEBUG_VALUE: main:chi <- [DW_OP_plus_uconst 152] [$rsp+0]
	#DEBUG_VALUE: main:chi2 <- [DW_OP_plus_uconst 144] [$rsp+0]
	#DEBUG_VALUE: main:chi3 <- [DW_OP_plus_uconst 184] [$rsp+0]
	#DEBUG_VALUE: main:chi4 <- [DW_OP_plus_uconst 176] [$rsp+0]
	#DEBUG_VALUE: main:chi5 <- [DW_OP_plus_uconst 72] [$rsp+0]
	#DEBUG_VALUE: main:chi6 <- [DW_OP_plus_uconst 64] [$rsp+0]
	vmovapd	%xmm4, %xmm0
	vmovapd	%xmm5, %xmm1
	movq	%r9, %rbx
	movq	%rdi, 56(%rsp)                  # 8-byte Spill
	movq	%rdx, %r15
	movq	%rax, 88(%rsp)                  # 8-byte Spill
	callq	__muldc3
.Ltmp401:
	.loc	0 0 3                           # avx_complex_vec_align_load.c:0:3
	movq	88(%rsp), %rax                  # 8-byte Reload
	movq	%r15, %rdx
	movq	56(%rsp), %rdi                  # 8-byte Reload
	movq	%rbx, %r9
	movq	64(%rsp), %r10                  # 8-byte Reload
.Ltmp402:
	#DEBUG_VALUE: main:chi6 <- $r10
	movq	72(%rsp), %r8                   # 8-byte Reload
.Ltmp403:
	#DEBUG_VALUE: main:chi5 <- $r8
	movq	32(%rsp), %rsi                  # 8-byte Reload
.Ltmp404:
	#DEBUG_VALUE: main:psi2 <- $rsi
	movq	40(%rsp), %r11                  # 8-byte Reload
.Ltmp405:
	#DEBUG_VALUE: main:psi <- $r11
	movq	48(%rsp), %rcx                  # 8-byte Reload
.Ltmp406:
	#DEBUG_VALUE: main:up <- $rcx
	jmp	.LBB0_76
.Ltmp407:
.LBB0_77:                               #   in Loop: Header=BB0_21 Depth=1
	#DEBUG_VALUE: main:n <- 5
	#DEBUG_VALUE: main:res1 <- 0.000000e+00
	#DEBUG_VALUE: main:res2 <- 0.000000e+00
	#DEBUG_VALUE: main:res3 <- 0.000000e+00
	#DEBUG_VALUE: main:res4 <- 0.000000e+00
	#DEBUG_VALUE: main:res5 <- 0.000000e+00
	#DEBUG_VALUE: main:res6 <- 0.000000e+00
	#DEBUG_VALUE: main:res7 <- 0.000000e+00
	#DEBUG_VALUE: main:res8 <- 0.000000e+00
	#DEBUG_VALUE: main:res9 <- 0.000000e+00
	#DEBUG_VALUE: main:res10 <- 0.000000e+00
	#DEBUG_VALUE: main:res11 <- 0.000000e+00
	#DEBUG_VALUE: main:res12 <- 0.000000e+00
	#DEBUG_VALUE: main:in <- 100000000
	#DEBUG_VALUE: main:n_times <- 0
	#DEBUG_VALUE: main:n_warmup <- 0
	#DEBUG_VALUE: main:up <- [DW_OP_plus_uconst 48] [$rsp+0]
	#DEBUG_VALUE: main:v3 <- [DW_OP_plus_uconst 128] [$rsp+0]
	#DEBUG_VALUE: main:v1 <- [DW_OP_plus_uconst 120] [$rsp+0]
	#DEBUG_VALUE: main:v2 <- [DW_OP_plus_uconst 112] [$rsp+0]
	#DEBUG_VALUE: main:psi <- [DW_OP_plus_uconst 40] [$rsp+0]
	#DEBUG_VALUE: main:psi2 <- [DW_OP_plus_uconst 32] [$rsp+0]
	#DEBUG_VALUE: main:chi <- [DW_OP_plus_uconst 152] [$rsp+0]
	#DEBUG_VALUE: main:chi2 <- [DW_OP_plus_uconst 144] [$rsp+0]
	#DEBUG_VALUE: main:chi3 <- [DW_OP_plus_uconst 184] [$rsp+0]
	#DEBUG_VALUE: main:chi4 <- [DW_OP_plus_uconst 176] [$rsp+0]
	#DEBUG_VALUE: main:chi5 <- [DW_OP_plus_uconst 72] [$rsp+0]
	#DEBUG_VALUE: main:chi6 <- [DW_OP_plus_uconst 64] [$rsp+0]
	.loc	0 251 3                         # avx_complex_vec_align_load.c:251:3
	vucomisd	%xmm1, %xmm1
	jnp	.LBB0_79
.Ltmp408:
# %bb.78:                               #   in Loop: Header=BB0_21 Depth=1
	#DEBUG_VALUE: main:n <- 5
	#DEBUG_VALUE: main:res1 <- 0.000000e+00
	#DEBUG_VALUE: main:res2 <- 0.000000e+00
	#DEBUG_VALUE: main:res3 <- 0.000000e+00
	#DEBUG_VALUE: main:res4 <- 0.000000e+00
	#DEBUG_VALUE: main:res5 <- 0.000000e+00
	#DEBUG_VALUE: main:res6 <- 0.000000e+00
	#DEBUG_VALUE: main:res7 <- 0.000000e+00
	#DEBUG_VALUE: main:res8 <- 0.000000e+00
	#DEBUG_VALUE: main:res9 <- 0.000000e+00
	#DEBUG_VALUE: main:res10 <- 0.000000e+00
	#DEBUG_VALUE: main:res11 <- 0.000000e+00
	#DEBUG_VALUE: main:res12 <- 0.000000e+00
	#DEBUG_VALUE: main:in <- 100000000
	#DEBUG_VALUE: main:n_times <- 0
	#DEBUG_VALUE: main:n_warmup <- 0
	#DEBUG_VALUE: main:up <- [DW_OP_plus_uconst 48] [$rsp+0]
	#DEBUG_VALUE: main:v3 <- [DW_OP_plus_uconst 128] [$rsp+0]
	#DEBUG_VALUE: main:v1 <- [DW_OP_plus_uconst 120] [$rsp+0]
	#DEBUG_VALUE: main:v2 <- [DW_OP_plus_uconst 112] [$rsp+0]
	#DEBUG_VALUE: main:psi <- [DW_OP_plus_uconst 40] [$rsp+0]
	#DEBUG_VALUE: main:psi2 <- [DW_OP_plus_uconst 32] [$rsp+0]
	#DEBUG_VALUE: main:chi <- [DW_OP_plus_uconst 152] [$rsp+0]
	#DEBUG_VALUE: main:chi2 <- [DW_OP_plus_uconst 144] [$rsp+0]
	#DEBUG_VALUE: main:chi3 <- [DW_OP_plus_uconst 184] [$rsp+0]
	#DEBUG_VALUE: main:chi4 <- [DW_OP_plus_uconst 176] [$rsp+0]
	#DEBUG_VALUE: main:chi5 <- [DW_OP_plus_uconst 72] [$rsp+0]
	#DEBUG_VALUE: main:chi6 <- [DW_OP_plus_uconst 64] [$rsp+0]
	vmovapd	%xmm4, %xmm0
	vmovapd	%xmm5, %xmm1
	movq	%r9, %r15
	movq	%rdi, 56(%rsp)                  # 8-byte Spill
	movq	%rdx, 24(%rsp)                  # 8-byte Spill
	callq	__muldc3
.Ltmp409:
	.loc	0 0 3                           # avx_complex_vec_align_load.c:0:3
	movq	24(%rsp), %rdx                  # 8-byte Reload
	movq	56(%rsp), %rdi                  # 8-byte Reload
	movq	%r15, %r9
	movq	64(%rsp), %r10                  # 8-byte Reload
.Ltmp410:
	#DEBUG_VALUE: main:chi6 <- $r10
	movq	72(%rsp), %r8                   # 8-byte Reload
.Ltmp411:
	#DEBUG_VALUE: main:chi5 <- $r8
	movq	32(%rsp), %rsi                  # 8-byte Reload
.Ltmp412:
	#DEBUG_VALUE: main:psi2 <- $rsi
	movq	40(%rsp), %r11                  # 8-byte Reload
.Ltmp413:
	#DEBUG_VALUE: main:psi <- $r11
	movq	48(%rsp), %rcx                  # 8-byte Reload
.Ltmp414:
	#DEBUG_VALUE: main:up <- $rcx
	jmp	.LBB0_79
.Ltmp415:
.LBB0_80:
	#DEBUG_VALUE: main:n <- 5
	#DEBUG_VALUE: main:res1 <- 0.000000e+00
	#DEBUG_VALUE: main:res2 <- 0.000000e+00
	#DEBUG_VALUE: main:res3 <- 0.000000e+00
	#DEBUG_VALUE: main:res4 <- 0.000000e+00
	#DEBUG_VALUE: main:res5 <- 0.000000e+00
	#DEBUG_VALUE: main:res6 <- 0.000000e+00
	#DEBUG_VALUE: main:res7 <- 0.000000e+00
	#DEBUG_VALUE: main:res8 <- 0.000000e+00
	#DEBUG_VALUE: main:res9 <- 0.000000e+00
	#DEBUG_VALUE: main:res10 <- 0.000000e+00
	#DEBUG_VALUE: main:res11 <- 0.000000e+00
	#DEBUG_VALUE: main:res12 <- 0.000000e+00
	#DEBUG_VALUE: main:in <- 100000000
	#DEBUG_VALUE: main:n_times <- 0
	#DEBUG_VALUE: main:n_warmup <- 0
	#DEBUG_VALUE: main:up <- [DW_OP_plus_uconst 48] [$rsp+0]
	#DEBUG_VALUE: main:v3 <- [DW_OP_plus_uconst 128] [$rsp+0]
	#DEBUG_VALUE: main:v1 <- [DW_OP_plus_uconst 120] [$rsp+0]
	#DEBUG_VALUE: main:v2 <- [DW_OP_plus_uconst 112] [$rsp+0]
	#DEBUG_VALUE: main:psi <- [DW_OP_plus_uconst 40] [$rsp+0]
	#DEBUG_VALUE: main:psi2 <- [DW_OP_plus_uconst 32] [$rsp+0]
	#DEBUG_VALUE: main:chi <- [DW_OP_plus_uconst 152] [$rsp+0]
	#DEBUG_VALUE: main:chi2 <- [DW_OP_plus_uconst 144] [$rsp+0]
	#DEBUG_VALUE: main:chi3 <- [DW_OP_plus_uconst 184] [$rsp+0]
	#DEBUG_VALUE: main:chi4 <- [DW_OP_plus_uconst 176] [$rsp+0]
	#DEBUG_VALUE: main:chi5 <- [DW_OP_plus_uconst 72] [$rsp+0]
	#DEBUG_VALUE: main:chi6 <- [DW_OP_plus_uconst 64] [$rsp+0]
	#DEBUG_VALUE: main:i <- $r9
	leaq	192(%rsp), %rdi
	.loc	0 256 3 is_stmt 1               # avx_complex_vec_align_load.c:256:3
	xorl	%esi, %esi
	callq	gettimeofday
.Ltmp416:
	.loc	0 258 9                         # avx_complex_vec_align_load.c:258:9
	callq	omp_get_wtime
.Ltmp417:
	.loc	0 0 9 is_stmt 0                 # avx_complex_vec_align_load.c:0:9
	vmovsd	%xmm0, 56(%rsp)                 # 8-byte Spill
.Ltmp418:
	#DEBUG_VALUE: main:wt1 <- [DW_OP_plus_uconst 56] [$rsp+0]
	.loc	0 260 6 is_stmt 1               # avx_complex_vec_align_load.c:260:6
	callq	clock
.Ltmp419:
	.loc	0 0 6 is_stmt 0                 # avx_complex_vec_align_load.c:0:6
	xorl	%r9d, %r9d
	movq	64(%rsp), %r10                  # 8-byte Reload
.Ltmp420:
	#DEBUG_VALUE: main:chi6 <- $r10
	movq	72(%rsp), %r8                   # 8-byte Reload
.Ltmp421:
	#DEBUG_VALUE: main:chi5 <- $r8
	movq	32(%rsp), %rsi                  # 8-byte Reload
.Ltmp422:
	#DEBUG_VALUE: main:psi2 <- $rsi
	movq	40(%rsp), %r11                  # 8-byte Reload
.Ltmp423:
	#DEBUG_VALUE: main:psi <- $r11
	movq	48(%rsp), %rcx                  # 8-byte Reload
.Ltmp424:
	#DEBUG_VALUE: main:up <- $rcx
	movq	%rax, 88(%rsp)                  # 8-byte Spill
.Ltmp425:
	#DEBUG_VALUE: main:t1 <- [DW_OP_plus_uconst 88] [$rsp+0]
	#DEBUG_VALUE: main:i <- 0
	movq	120(%rsp), %rdi                 # 8-byte Reload
.Ltmp426:
	#DEBUG_VALUE: main:v1 <- $rdi
	.loc	0 261 2 is_stmt 1               # avx_complex_vec_align_load.c:261:2
	addq	$8, %rdi
.Ltmp427:
	#DEBUG_VALUE: main:v1 <- [DW_OP_plus_uconst 120] [$rsp+0]
	movq	%r11, %rdx
	addq	$8, %rdx
	movq	112(%rsp), %rbx                 # 8-byte Reload
.Ltmp428:
	#DEBUG_VALUE: main:v2 <- $rbx
	addq	$8, %rbx
.Ltmp429:
	#DEBUG_VALUE: main:v2 <- [DW_OP_plus_uconst 112] [$rsp+0]
	movq	%rsi, %r14
	addq	$8, %r14
	movq	128(%rsp), %r15                 # 8-byte Reload
.Ltmp430:
	#DEBUG_VALUE: main:v3 <- $r15
	addq	$8, %r15
.Ltmp431:
	#DEBUG_VALUE: main:v3 <- [DW_OP_plus_uconst 128] [$rsp+0]
	movq	%rcx, %r12
	addq	$8, %r12
.Ltmp432:
	.p2align	4, 0x90
.LBB0_81:                               # =>This Loop Header: Depth=1
                                        #     Child Loop BB0_82 Depth 2
                                        #     Child Loop BB0_84 Depth 2
	#DEBUG_VALUE: main:n <- 5
	#DEBUG_VALUE: main:res1 <- 0.000000e+00
	#DEBUG_VALUE: main:res2 <- 0.000000e+00
	#DEBUG_VALUE: main:res3 <- 0.000000e+00
	#DEBUG_VALUE: main:res4 <- 0.000000e+00
	#DEBUG_VALUE: main:res5 <- 0.000000e+00
	#DEBUG_VALUE: main:res6 <- 0.000000e+00
	#DEBUG_VALUE: main:res7 <- 0.000000e+00
	#DEBUG_VALUE: main:res8 <- 0.000000e+00
	#DEBUG_VALUE: main:res9 <- 0.000000e+00
	#DEBUG_VALUE: main:res10 <- 0.000000e+00
	#DEBUG_VALUE: main:res11 <- 0.000000e+00
	#DEBUG_VALUE: main:res12 <- 0.000000e+00
	#DEBUG_VALUE: main:in <- 100000000
	#DEBUG_VALUE: main:n_times <- 0
	#DEBUG_VALUE: main:n_warmup <- 0
	#DEBUG_VALUE: main:up <- [DW_OP_plus_uconst 48] [$rsp+0]
	#DEBUG_VALUE: main:v3 <- [DW_OP_plus_uconst 128] [$rsp+0]
	#DEBUG_VALUE: main:v1 <- [DW_OP_plus_uconst 120] [$rsp+0]
	#DEBUG_VALUE: main:v2 <- [DW_OP_plus_uconst 112] [$rsp+0]
	#DEBUG_VALUE: main:psi <- [DW_OP_plus_uconst 40] [$rsp+0]
	#DEBUG_VALUE: main:psi2 <- [DW_OP_plus_uconst 32] [$rsp+0]
	#DEBUG_VALUE: main:chi <- [DW_OP_plus_uconst 152] [$rsp+0]
	#DEBUG_VALUE: main:chi2 <- [DW_OP_plus_uconst 144] [$rsp+0]
	#DEBUG_VALUE: main:chi3 <- [DW_OP_plus_uconst 184] [$rsp+0]
	#DEBUG_VALUE: main:chi4 <- [DW_OP_plus_uconst 176] [$rsp+0]
	#DEBUG_VALUE: main:chi5 <- [DW_OP_plus_uconst 72] [$rsp+0]
	#DEBUG_VALUE: main:chi6 <- [DW_OP_plus_uconst 64] [$rsp+0]
	#DEBUG_VALUE: main:wt1 <- [DW_OP_plus_uconst 56] [$rsp+0]
	#DEBUG_VALUE: main:t1 <- [DW_OP_plus_uconst 88] [$rsp+0]
	#DEBUG_VALUE: main:i <- $r9
	#DEBUG_VALUE: main:j <- 0
	.loc	0 0 2 is_stmt 0                 # avx_complex_vec_align_load.c:0:2
	xorl	%eax, %eax
.Ltmp433:
	.p2align	4, 0x90
.LBB0_82:                               #   Parent Loop BB0_81 Depth=1
                                        # =>  This Inner Loop Header: Depth=2
	#DEBUG_VALUE: main:n <- 5
	#DEBUG_VALUE: main:res1 <- 0.000000e+00
	#DEBUG_VALUE: main:res2 <- 0.000000e+00
	#DEBUG_VALUE: main:res3 <- 0.000000e+00
	#DEBUG_VALUE: main:res4 <- 0.000000e+00
	#DEBUG_VALUE: main:res5 <- 0.000000e+00
	#DEBUG_VALUE: main:res6 <- 0.000000e+00
	#DEBUG_VALUE: main:res7 <- 0.000000e+00
	#DEBUG_VALUE: main:res8 <- 0.000000e+00
	#DEBUG_VALUE: main:res9 <- 0.000000e+00
	#DEBUG_VALUE: main:res10 <- 0.000000e+00
	#DEBUG_VALUE: main:res11 <- 0.000000e+00
	#DEBUG_VALUE: main:res12 <- 0.000000e+00
	#DEBUG_VALUE: main:in <- 100000000
	#DEBUG_VALUE: main:n_times <- 0
	#DEBUG_VALUE: main:n_warmup <- 0
	#DEBUG_VALUE: main:up <- [DW_OP_plus_uconst 48] [$rsp+0]
	#DEBUG_VALUE: main:v3 <- [DW_OP_plus_uconst 128] [$rsp+0]
	#DEBUG_VALUE: main:v1 <- [DW_OP_plus_uconst 120] [$rsp+0]
	#DEBUG_VALUE: main:v2 <- [DW_OP_plus_uconst 112] [$rsp+0]
	#DEBUG_VALUE: main:psi <- [DW_OP_plus_uconst 40] [$rsp+0]
	#DEBUG_VALUE: main:psi2 <- [DW_OP_plus_uconst 32] [$rsp+0]
	#DEBUG_VALUE: main:chi <- [DW_OP_plus_uconst 152] [$rsp+0]
	#DEBUG_VALUE: main:chi2 <- [DW_OP_plus_uconst 144] [$rsp+0]
	#DEBUG_VALUE: main:chi3 <- [DW_OP_plus_uconst 184] [$rsp+0]
	#DEBUG_VALUE: main:chi4 <- [DW_OP_plus_uconst 176] [$rsp+0]
	#DEBUG_VALUE: main:chi5 <- [DW_OP_plus_uconst 72] [$rsp+0]
	#DEBUG_VALUE: main:chi6 <- [DW_OP_plus_uconst 64] [$rsp+0]
	#DEBUG_VALUE: main:i <- $r9
	#DEBUG_VALUE: main:wt1 <- [DW_OP_plus_uconst 56] [$rsp+0]
	#DEBUG_VALUE: main:t1 <- [DW_OP_plus_uconst 88] [$rsp+0]
	#DEBUG_VALUE: main:j <- [DW_OP_LLVM_arg 0, DW_OP_consts 8, DW_OP_LLVM_arg 1, DW_OP_plus_uconst 120, DW_OP_deref, DW_OP_plus, DW_OP_minus, DW_OP_consts 48, DW_OP_div, DW_OP_stack_value] $rdi, $rsp
	.loc	0 265 23 is_stmt 1              # avx_complex_vec_align_load.c:265:23
	vmovups	-8(%rdi,%rax), %xmm0
	.loc	0 265 21 is_stmt 0              # avx_complex_vec_align_load.c:265:21
	vmovups	%xmm0, -8(%rdx,%rax)
	.loc	0 266 24 is_stmt 1              # avx_complex_vec_align_load.c:266:24
	vmovupd	-8(%rbx,%rax), %xmm0
	.loc	0 266 22 is_stmt 0              # avx_complex_vec_align_load.c:266:22
	vmovupd	%xmm0, -8(%r14,%rax)
.Ltmp434:
	#DEBUG_VALUE: main:j <- [DW_OP_LLVM_arg 0, DW_OP_consts 8, DW_OP_LLVM_arg 1, DW_OP_plus_uconst 120, DW_OP_deref, DW_OP_plus, DW_OP_minus, DW_OP_consts 48, DW_OP_div, DW_OP_consts 1, DW_OP_plus, DW_OP_stack_value] $rdi, $rsp
	.loc	0 263 15 is_stmt 1              # avx_complex_vec_align_load.c:263:15
	addq	$16, %rax
	cmpq	$48, %rax
.Ltmp435:
	.loc	0 263 5 is_stmt 0               # avx_complex_vec_align_load.c:263:5
	jne	.LBB0_82
.Ltmp436:
# %bb.83:                               #   in Loop: Header=BB0_81 Depth=1
	#DEBUG_VALUE: main:n <- 5
	#DEBUG_VALUE: main:res1 <- 0.000000e+00
	#DEBUG_VALUE: main:res2 <- 0.000000e+00
	#DEBUG_VALUE: main:res3 <- 0.000000e+00
	#DEBUG_VALUE: main:res4 <- 0.000000e+00
	#DEBUG_VALUE: main:res5 <- 0.000000e+00
	#DEBUG_VALUE: main:res6 <- 0.000000e+00
	#DEBUG_VALUE: main:res7 <- 0.000000e+00
	#DEBUG_VALUE: main:res8 <- 0.000000e+00
	#DEBUG_VALUE: main:res9 <- 0.000000e+00
	#DEBUG_VALUE: main:res10 <- 0.000000e+00
	#DEBUG_VALUE: main:res11 <- 0.000000e+00
	#DEBUG_VALUE: main:res12 <- 0.000000e+00
	#DEBUG_VALUE: main:in <- 100000000
	#DEBUG_VALUE: main:n_times <- 0
	#DEBUG_VALUE: main:n_warmup <- 0
	#DEBUG_VALUE: main:up <- [DW_OP_plus_uconst 48] [$rsp+0]
	#DEBUG_VALUE: main:v3 <- [DW_OP_plus_uconst 128] [$rsp+0]
	#DEBUG_VALUE: main:v1 <- [DW_OP_plus_uconst 120] [$rsp+0]
	#DEBUG_VALUE: main:v2 <- [DW_OP_plus_uconst 112] [$rsp+0]
	#DEBUG_VALUE: main:psi <- [DW_OP_plus_uconst 40] [$rsp+0]
	#DEBUG_VALUE: main:psi2 <- [DW_OP_plus_uconst 32] [$rsp+0]
	#DEBUG_VALUE: main:chi <- [DW_OP_plus_uconst 152] [$rsp+0]
	#DEBUG_VALUE: main:chi2 <- [DW_OP_plus_uconst 144] [$rsp+0]
	#DEBUG_VALUE: main:chi3 <- [DW_OP_plus_uconst 184] [$rsp+0]
	#DEBUG_VALUE: main:chi4 <- [DW_OP_plus_uconst 176] [$rsp+0]
	#DEBUG_VALUE: main:chi5 <- [DW_OP_plus_uconst 72] [$rsp+0]
	#DEBUG_VALUE: main:chi6 <- [DW_OP_plus_uconst 64] [$rsp+0]
	#DEBUG_VALUE: main:i <- $r9
	#DEBUG_VALUE: main:wt1 <- [DW_OP_plus_uconst 56] [$rsp+0]
	#DEBUG_VALUE: main:t1 <- [DW_OP_plus_uconst 88] [$rsp+0]
	.loc	0 0 5                           # avx_complex_vec_align_load.c:0:5
	xorl	%eax, %eax
.Ltmp437:
	.p2align	4, 0x90
.LBB0_84:                               #   Parent Loop BB0_81 Depth=1
                                        # =>  This Inner Loop Header: Depth=2
	#DEBUG_VALUE: main:n <- 5
	#DEBUG_VALUE: main:res1 <- 0.000000e+00
	#DEBUG_VALUE: main:res2 <- 0.000000e+00
	#DEBUG_VALUE: main:res3 <- 0.000000e+00
	#DEBUG_VALUE: main:res4 <- 0.000000e+00
	#DEBUG_VALUE: main:res5 <- 0.000000e+00
	#DEBUG_VALUE: main:res6 <- 0.000000e+00
	#DEBUG_VALUE: main:res7 <- 0.000000e+00
	#DEBUG_VALUE: main:res8 <- 0.000000e+00
	#DEBUG_VALUE: main:res9 <- 0.000000e+00
	#DEBUG_VALUE: main:res10 <- 0.000000e+00
	#DEBUG_VALUE: main:res11 <- 0.000000e+00
	#DEBUG_VALUE: main:res12 <- 0.000000e+00
	#DEBUG_VALUE: main:in <- 100000000
	#DEBUG_VALUE: main:n_times <- 0
	#DEBUG_VALUE: main:n_warmup <- 0
	#DEBUG_VALUE: main:up <- [DW_OP_plus_uconst 48] [$rsp+0]
	#DEBUG_VALUE: main:v3 <- [DW_OP_plus_uconst 128] [$rsp+0]
	#DEBUG_VALUE: main:v1 <- [DW_OP_plus_uconst 120] [$rsp+0]
	#DEBUG_VALUE: main:v2 <- [DW_OP_plus_uconst 112] [$rsp+0]
	#DEBUG_VALUE: main:psi <- [DW_OP_plus_uconst 40] [$rsp+0]
	#DEBUG_VALUE: main:psi2 <- [DW_OP_plus_uconst 32] [$rsp+0]
	#DEBUG_VALUE: main:chi <- [DW_OP_plus_uconst 152] [$rsp+0]
	#DEBUG_VALUE: main:chi2 <- [DW_OP_plus_uconst 144] [$rsp+0]
	#DEBUG_VALUE: main:chi3 <- [DW_OP_plus_uconst 184] [$rsp+0]
	#DEBUG_VALUE: main:chi4 <- [DW_OP_plus_uconst 176] [$rsp+0]
	#DEBUG_VALUE: main:chi5 <- [DW_OP_plus_uconst 72] [$rsp+0]
	#DEBUG_VALUE: main:chi6 <- [DW_OP_plus_uconst 64] [$rsp+0]
	#DEBUG_VALUE: main:i <- $r9
	#DEBUG_VALUE: main:wt1 <- [DW_OP_plus_uconst 56] [$rsp+0]
	#DEBUG_VALUE: main:t1 <- [DW_OP_plus_uconst 88] [$rsp+0]
	#DEBUG_VALUE: main:j <- [DW_OP_LLVM_arg 0, DW_OP_consts 8, DW_OP_LLVM_arg 1, DW_OP_plus_uconst 128, DW_OP_deref, DW_OP_plus, DW_OP_minus, DW_OP_consts 144, DW_OP_div, DW_OP_stack_value] $r15, $rsp
	.loc	0 271 22 is_stmt 1              # avx_complex_vec_align_load.c:271:22
	vmovupd	-8(%r15,%rax), %xmm0
	.loc	0 271 20 is_stmt 0              # avx_complex_vec_align_load.c:271:20
	vmovupd	%xmm0, -8(%r12,%rax)
.Ltmp438:
	#DEBUG_VALUE: main:j <- [DW_OP_LLVM_arg 0, DW_OP_consts 8, DW_OP_LLVM_arg 1, DW_OP_plus_uconst 128, DW_OP_deref, DW_OP_plus, DW_OP_minus, DW_OP_consts 144, DW_OP_div, DW_OP_consts 1, DW_OP_plus, DW_OP_stack_value] $r15, $rsp
	.loc	0 269 15 is_stmt 1              # avx_complex_vec_align_load.c:269:15
	addq	$16, %rax
	cmpq	$144, %rax
.Ltmp439:
	.loc	0 269 5 is_stmt 0               # avx_complex_vec_align_load.c:269:5
	jne	.LBB0_84
.Ltmp440:
# %bb.85:                               #   in Loop: Header=BB0_81 Depth=1
	#DEBUG_VALUE: main:n <- 5
	#DEBUG_VALUE: main:res1 <- 0.000000e+00
	#DEBUG_VALUE: main:res2 <- 0.000000e+00
	#DEBUG_VALUE: main:res3 <- 0.000000e+00
	#DEBUG_VALUE: main:res4 <- 0.000000e+00
	#DEBUG_VALUE: main:res5 <- 0.000000e+00
	#DEBUG_VALUE: main:res6 <- 0.000000e+00
	#DEBUG_VALUE: main:res7 <- 0.000000e+00
	#DEBUG_VALUE: main:res8 <- 0.000000e+00
	#DEBUG_VALUE: main:res9 <- 0.000000e+00
	#DEBUG_VALUE: main:res10 <- 0.000000e+00
	#DEBUG_VALUE: main:res11 <- 0.000000e+00
	#DEBUG_VALUE: main:res12 <- 0.000000e+00
	#DEBUG_VALUE: main:in <- 100000000
	#DEBUG_VALUE: main:n_times <- 0
	#DEBUG_VALUE: main:n_warmup <- 0
	#DEBUG_VALUE: main:up <- [DW_OP_plus_uconst 48] [$rsp+0]
	#DEBUG_VALUE: main:v3 <- [DW_OP_plus_uconst 128] [$rsp+0]
	#DEBUG_VALUE: main:v1 <- [DW_OP_plus_uconst 120] [$rsp+0]
	#DEBUG_VALUE: main:v2 <- [DW_OP_plus_uconst 112] [$rsp+0]
	#DEBUG_VALUE: main:psi <- [DW_OP_plus_uconst 40] [$rsp+0]
	#DEBUG_VALUE: main:psi2 <- [DW_OP_plus_uconst 32] [$rsp+0]
	#DEBUG_VALUE: main:chi <- [DW_OP_plus_uconst 152] [$rsp+0]
	#DEBUG_VALUE: main:chi2 <- [DW_OP_plus_uconst 144] [$rsp+0]
	#DEBUG_VALUE: main:chi3 <- [DW_OP_plus_uconst 184] [$rsp+0]
	#DEBUG_VALUE: main:chi4 <- [DW_OP_plus_uconst 176] [$rsp+0]
	#DEBUG_VALUE: main:chi5 <- [DW_OP_plus_uconst 72] [$rsp+0]
	#DEBUG_VALUE: main:chi6 <- [DW_OP_plus_uconst 64] [$rsp+0]
	#DEBUG_VALUE: main:i <- $r9
	#DEBUG_VALUE: main:wt1 <- [DW_OP_plus_uconst 56] [$rsp+0]
	#DEBUG_VALUE: main:t1 <- [DW_OP_plus_uconst 88] [$rsp+0]
	.loc	0 274 3 is_stmt 1               # avx_complex_vec_align_load.c:274:3
	#APP
	# LLVM-MCA-BEGIN _suNf_theta_T_multiply
	#NO_APP
	.loc	0 275 6                         # avx_complex_vec_align_load.c:275:6
	vmovsd	(%rcx), %xmm4                   # xmm4 = mem[0],zero
	vmovsd	8(%rcx), %xmm5                  # xmm5 = mem[0],zero
	vmovsd	(%r11), %xmm2                   # xmm2 = mem[0],zero
	vmovsd	8(%r11), %xmm3                  # xmm3 = mem[0],zero
	vmulsd	%xmm2, %xmm4, %xmm0
	vmulsd	%xmm3, %xmm5, %xmm1
	vsubsd	%xmm1, %xmm0, %xmm0
	vmulsd	%xmm3, %xmm4, %xmm1
	vmulsd	%xmm2, %xmm5, %xmm6
	vaddsd	%xmm1, %xmm6, %xmm1
	vucomisd	%xmm0, %xmm0
	movq	%rbx, 104(%rsp)                 # 8-byte Spill
	jp	.LBB0_86
.Ltmp441:
.LBB0_88:                               #   in Loop: Header=BB0_81 Depth=1
	#DEBUG_VALUE: main:n <- 5
	#DEBUG_VALUE: main:res1 <- 0.000000e+00
	#DEBUG_VALUE: main:res2 <- 0.000000e+00
	#DEBUG_VALUE: main:res3 <- 0.000000e+00
	#DEBUG_VALUE: main:res4 <- 0.000000e+00
	#DEBUG_VALUE: main:res5 <- 0.000000e+00
	#DEBUG_VALUE: main:res6 <- 0.000000e+00
	#DEBUG_VALUE: main:res7 <- 0.000000e+00
	#DEBUG_VALUE: main:res8 <- 0.000000e+00
	#DEBUG_VALUE: main:res9 <- 0.000000e+00
	#DEBUG_VALUE: main:res10 <- 0.000000e+00
	#DEBUG_VALUE: main:res11 <- 0.000000e+00
	#DEBUG_VALUE: main:res12 <- 0.000000e+00
	#DEBUG_VALUE: main:in <- 100000000
	#DEBUG_VALUE: main:n_times <- 0
	#DEBUG_VALUE: main:n_warmup <- 0
	#DEBUG_VALUE: main:up <- [DW_OP_plus_uconst 48] [$rsp+0]
	#DEBUG_VALUE: main:v3 <- [DW_OP_plus_uconst 128] [$rsp+0]
	#DEBUG_VALUE: main:v1 <- [DW_OP_plus_uconst 120] [$rsp+0]
	#DEBUG_VALUE: main:v2 <- [DW_OP_plus_uconst 112] [$rsp+0]
	#DEBUG_VALUE: main:psi <- [DW_OP_plus_uconst 40] [$rsp+0]
	#DEBUG_VALUE: main:psi2 <- [DW_OP_plus_uconst 32] [$rsp+0]
	#DEBUG_VALUE: main:chi <- [DW_OP_plus_uconst 152] [$rsp+0]
	#DEBUG_VALUE: main:chi2 <- [DW_OP_plus_uconst 144] [$rsp+0]
	#DEBUG_VALUE: main:chi3 <- [DW_OP_plus_uconst 184] [$rsp+0]
	#DEBUG_VALUE: main:chi4 <- [DW_OP_plus_uconst 176] [$rsp+0]
	#DEBUG_VALUE: main:chi5 <- [DW_OP_plus_uconst 72] [$rsp+0]
	#DEBUG_VALUE: main:chi6 <- [DW_OP_plus_uconst 64] [$rsp+0]
	#DEBUG_VALUE: main:wt1 <- [DW_OP_plus_uconst 56] [$rsp+0]
	#DEBUG_VALUE: main:t1 <- [DW_OP_plus_uconst 88] [$rsp+0]
	leaq	(%r9,%r9,2), %rax
	shlq	$4, %rax
	vmovsd	%xmm0, (%r8,%rax)
	vmovsd	%xmm1, 8(%r8,%rax)
	leaq	(%r8,%rax), %r13
	vmovsd	16(%rcx), %xmm4                 # xmm4 = mem[0],zero
	vmovsd	24(%rcx), %xmm5                 # xmm5 = mem[0],zero
	vmovsd	16(%r11), %xmm2                 # xmm2 = mem[0],zero
	vmovsd	24(%r11), %xmm3                 # xmm3 = mem[0],zero
	vmulsd	%xmm2, %xmm4, %xmm0
	vmulsd	%xmm3, %xmm5, %xmm1
	vsubsd	%xmm1, %xmm0, %xmm0
	vmulsd	%xmm3, %xmm4, %xmm1
	vmulsd	%xmm2, %xmm5, %xmm6
	vaddsd	%xmm1, %xmm6, %xmm1
	vucomisd	%xmm0, %xmm0
	jp	.LBB0_89
.Ltmp442:
.LBB0_91:                               #   in Loop: Header=BB0_81 Depth=1
	#DEBUG_VALUE: main:n <- 5
	#DEBUG_VALUE: main:res1 <- 0.000000e+00
	#DEBUG_VALUE: main:res2 <- 0.000000e+00
	#DEBUG_VALUE: main:res3 <- 0.000000e+00
	#DEBUG_VALUE: main:res4 <- 0.000000e+00
	#DEBUG_VALUE: main:res5 <- 0.000000e+00
	#DEBUG_VALUE: main:res6 <- 0.000000e+00
	#DEBUG_VALUE: main:res7 <- 0.000000e+00
	#DEBUG_VALUE: main:res8 <- 0.000000e+00
	#DEBUG_VALUE: main:res9 <- 0.000000e+00
	#DEBUG_VALUE: main:res10 <- 0.000000e+00
	#DEBUG_VALUE: main:res11 <- 0.000000e+00
	#DEBUG_VALUE: main:res12 <- 0.000000e+00
	#DEBUG_VALUE: main:in <- 100000000
	#DEBUG_VALUE: main:n_times <- 0
	#DEBUG_VALUE: main:n_warmup <- 0
	#DEBUG_VALUE: main:up <- [DW_OP_plus_uconst 48] [$rsp+0]
	#DEBUG_VALUE: main:v3 <- [DW_OP_plus_uconst 128] [$rsp+0]
	#DEBUG_VALUE: main:v1 <- [DW_OP_plus_uconst 120] [$rsp+0]
	#DEBUG_VALUE: main:v2 <- [DW_OP_plus_uconst 112] [$rsp+0]
	#DEBUG_VALUE: main:psi <- [DW_OP_plus_uconst 40] [$rsp+0]
	#DEBUG_VALUE: main:psi2 <- [DW_OP_plus_uconst 32] [$rsp+0]
	#DEBUG_VALUE: main:chi <- [DW_OP_plus_uconst 152] [$rsp+0]
	#DEBUG_VALUE: main:chi2 <- [DW_OP_plus_uconst 144] [$rsp+0]
	#DEBUG_VALUE: main:chi3 <- [DW_OP_plus_uconst 184] [$rsp+0]
	#DEBUG_VALUE: main:chi4 <- [DW_OP_plus_uconst 176] [$rsp+0]
	#DEBUG_VALUE: main:chi5 <- [DW_OP_plus_uconst 72] [$rsp+0]
	#DEBUG_VALUE: main:chi6 <- [DW_OP_plus_uconst 64] [$rsp+0]
	#DEBUG_VALUE: main:wt1 <- [DW_OP_plus_uconst 56] [$rsp+0]
	#DEBUG_VALUE: main:t1 <- [DW_OP_plus_uconst 88] [$rsp+0]
	leaq	(%r8,%rax), %rbx
	addq	$8, %rbx
	vaddsd	(%r13), %xmm0, %xmm0
	vaddsd	(%rbx), %xmm1, %xmm1
	vmovsd	%xmm0, (%r13)
	vmovsd	%xmm1, (%rbx)
	vmovsd	32(%rcx), %xmm4                 # xmm4 = mem[0],zero
	vmovsd	40(%rcx), %xmm5                 # xmm5 = mem[0],zero
	vmovsd	32(%r11), %xmm2                 # xmm2 = mem[0],zero
	vmovsd	40(%r11), %xmm3                 # xmm3 = mem[0],zero
	vmulsd	%xmm2, %xmm4, %xmm0
	vmulsd	%xmm3, %xmm5, %xmm1
	vsubsd	%xmm1, %xmm0, %xmm0
	vmulsd	%xmm3, %xmm4, %xmm1
	vmulsd	%xmm2, %xmm5, %xmm6
	vaddsd	%xmm1, %xmm6, %xmm1
	vucomisd	%xmm0, %xmm0
	jp	.LBB0_92
.Ltmp443:
.LBB0_94:                               #   in Loop: Header=BB0_81 Depth=1
	#DEBUG_VALUE: main:n <- 5
	#DEBUG_VALUE: main:res1 <- 0.000000e+00
	#DEBUG_VALUE: main:res2 <- 0.000000e+00
	#DEBUG_VALUE: main:res3 <- 0.000000e+00
	#DEBUG_VALUE: main:res4 <- 0.000000e+00
	#DEBUG_VALUE: main:res5 <- 0.000000e+00
	#DEBUG_VALUE: main:res6 <- 0.000000e+00
	#DEBUG_VALUE: main:res7 <- 0.000000e+00
	#DEBUG_VALUE: main:res8 <- 0.000000e+00
	#DEBUG_VALUE: main:res9 <- 0.000000e+00
	#DEBUG_VALUE: main:res10 <- 0.000000e+00
	#DEBUG_VALUE: main:res11 <- 0.000000e+00
	#DEBUG_VALUE: main:res12 <- 0.000000e+00
	#DEBUG_VALUE: main:in <- 100000000
	#DEBUG_VALUE: main:n_times <- 0
	#DEBUG_VALUE: main:n_warmup <- 0
	#DEBUG_VALUE: main:up <- [DW_OP_plus_uconst 48] [$rsp+0]
	#DEBUG_VALUE: main:v3 <- [DW_OP_plus_uconst 128] [$rsp+0]
	#DEBUG_VALUE: main:v1 <- [DW_OP_plus_uconst 120] [$rsp+0]
	#DEBUG_VALUE: main:v2 <- [DW_OP_plus_uconst 112] [$rsp+0]
	#DEBUG_VALUE: main:psi <- [DW_OP_plus_uconst 40] [$rsp+0]
	#DEBUG_VALUE: main:psi2 <- [DW_OP_plus_uconst 32] [$rsp+0]
	#DEBUG_VALUE: main:chi <- [DW_OP_plus_uconst 152] [$rsp+0]
	#DEBUG_VALUE: main:chi2 <- [DW_OP_plus_uconst 144] [$rsp+0]
	#DEBUG_VALUE: main:chi3 <- [DW_OP_plus_uconst 184] [$rsp+0]
	#DEBUG_VALUE: main:chi4 <- [DW_OP_plus_uconst 176] [$rsp+0]
	#DEBUG_VALUE: main:chi5 <- [DW_OP_plus_uconst 72] [$rsp+0]
	#DEBUG_VALUE: main:chi6 <- [DW_OP_plus_uconst 64] [$rsp+0]
	#DEBUG_VALUE: main:wt1 <- [DW_OP_plus_uconst 56] [$rsp+0]
	#DEBUG_VALUE: main:t1 <- [DW_OP_plus_uconst 88] [$rsp+0]
	vaddsd	(%r13), %xmm0, %xmm0
	vaddsd	(%rbx), %xmm1, %xmm1
	vmovsd	%xmm0, (%r13)
	vmovsd	%xmm1, (%rbx)
	vmovsd	48(%rcx), %xmm4                 # xmm4 = mem[0],zero
	vmovsd	56(%rcx), %xmm5                 # xmm5 = mem[0],zero
	vmovsd	(%r11), %xmm2                   # xmm2 = mem[0],zero
	vmovsd	8(%r11), %xmm3                  # xmm3 = mem[0],zero
	vmulsd	%xmm2, %xmm4, %xmm0
	vmulsd	%xmm3, %xmm5, %xmm1
	vsubsd	%xmm1, %xmm0, %xmm0
	vmulsd	%xmm3, %xmm4, %xmm1
	vmulsd	%xmm2, %xmm5, %xmm6
	vaddsd	%xmm1, %xmm6, %xmm1
	vucomisd	%xmm0, %xmm0
	jp	.LBB0_95
.Ltmp444:
.LBB0_97:                               #   in Loop: Header=BB0_81 Depth=1
	#DEBUG_VALUE: main:n <- 5
	#DEBUG_VALUE: main:res1 <- 0.000000e+00
	#DEBUG_VALUE: main:res2 <- 0.000000e+00
	#DEBUG_VALUE: main:res3 <- 0.000000e+00
	#DEBUG_VALUE: main:res4 <- 0.000000e+00
	#DEBUG_VALUE: main:res5 <- 0.000000e+00
	#DEBUG_VALUE: main:res6 <- 0.000000e+00
	#DEBUG_VALUE: main:res7 <- 0.000000e+00
	#DEBUG_VALUE: main:res8 <- 0.000000e+00
	#DEBUG_VALUE: main:res9 <- 0.000000e+00
	#DEBUG_VALUE: main:res10 <- 0.000000e+00
	#DEBUG_VALUE: main:res11 <- 0.000000e+00
	#DEBUG_VALUE: main:res12 <- 0.000000e+00
	#DEBUG_VALUE: main:in <- 100000000
	#DEBUG_VALUE: main:n_times <- 0
	#DEBUG_VALUE: main:n_warmup <- 0
	#DEBUG_VALUE: main:up <- [DW_OP_plus_uconst 48] [$rsp+0]
	#DEBUG_VALUE: main:v3 <- [DW_OP_plus_uconst 128] [$rsp+0]
	#DEBUG_VALUE: main:v1 <- [DW_OP_plus_uconst 120] [$rsp+0]
	#DEBUG_VALUE: main:v2 <- [DW_OP_plus_uconst 112] [$rsp+0]
	#DEBUG_VALUE: main:psi <- [DW_OP_plus_uconst 40] [$rsp+0]
	#DEBUG_VALUE: main:psi2 <- [DW_OP_plus_uconst 32] [$rsp+0]
	#DEBUG_VALUE: main:chi <- [DW_OP_plus_uconst 152] [$rsp+0]
	#DEBUG_VALUE: main:chi2 <- [DW_OP_plus_uconst 144] [$rsp+0]
	#DEBUG_VALUE: main:chi3 <- [DW_OP_plus_uconst 184] [$rsp+0]
	#DEBUG_VALUE: main:chi4 <- [DW_OP_plus_uconst 176] [$rsp+0]
	#DEBUG_VALUE: main:chi5 <- [DW_OP_plus_uconst 72] [$rsp+0]
	#DEBUG_VALUE: main:chi6 <- [DW_OP_plus_uconst 64] [$rsp+0]
	#DEBUG_VALUE: main:wt1 <- [DW_OP_plus_uconst 56] [$rsp+0]
	#DEBUG_VALUE: main:t1 <- [DW_OP_plus_uconst 88] [$rsp+0]
	vmovsd	%xmm0, 16(%r8,%rax)
	vmovsd	%xmm1, 24(%r8,%rax)
	vmovsd	64(%rcx), %xmm4                 # xmm4 = mem[0],zero
	vmovsd	72(%rcx), %xmm5                 # xmm5 = mem[0],zero
	vmovsd	16(%r11), %xmm2                 # xmm2 = mem[0],zero
	vmovsd	24(%r11), %xmm3                 # xmm3 = mem[0],zero
	vmulsd	%xmm2, %xmm4, %xmm0
	vmulsd	%xmm3, %xmm5, %xmm1
	vsubsd	%xmm1, %xmm0, %xmm0
	vmulsd	%xmm3, %xmm4, %xmm1
	vmulsd	%xmm2, %xmm5, %xmm6
	vaddsd	%xmm1, %xmm6, %xmm1
	vucomisd	%xmm0, %xmm0
	jp	.LBB0_98
.Ltmp445:
.LBB0_100:                              #   in Loop: Header=BB0_81 Depth=1
	#DEBUG_VALUE: main:n <- 5
	#DEBUG_VALUE: main:res1 <- 0.000000e+00
	#DEBUG_VALUE: main:res2 <- 0.000000e+00
	#DEBUG_VALUE: main:res3 <- 0.000000e+00
	#DEBUG_VALUE: main:res4 <- 0.000000e+00
	#DEBUG_VALUE: main:res5 <- 0.000000e+00
	#DEBUG_VALUE: main:res6 <- 0.000000e+00
	#DEBUG_VALUE: main:res7 <- 0.000000e+00
	#DEBUG_VALUE: main:res8 <- 0.000000e+00
	#DEBUG_VALUE: main:res9 <- 0.000000e+00
	#DEBUG_VALUE: main:res10 <- 0.000000e+00
	#DEBUG_VALUE: main:res11 <- 0.000000e+00
	#DEBUG_VALUE: main:res12 <- 0.000000e+00
	#DEBUG_VALUE: main:in <- 100000000
	#DEBUG_VALUE: main:n_times <- 0
	#DEBUG_VALUE: main:n_warmup <- 0
	#DEBUG_VALUE: main:up <- [DW_OP_plus_uconst 48] [$rsp+0]
	#DEBUG_VALUE: main:v3 <- [DW_OP_plus_uconst 128] [$rsp+0]
	#DEBUG_VALUE: main:v1 <- [DW_OP_plus_uconst 120] [$rsp+0]
	#DEBUG_VALUE: main:v2 <- [DW_OP_plus_uconst 112] [$rsp+0]
	#DEBUG_VALUE: main:psi <- [DW_OP_plus_uconst 40] [$rsp+0]
	#DEBUG_VALUE: main:psi2 <- [DW_OP_plus_uconst 32] [$rsp+0]
	#DEBUG_VALUE: main:chi <- [DW_OP_plus_uconst 152] [$rsp+0]
	#DEBUG_VALUE: main:chi2 <- [DW_OP_plus_uconst 144] [$rsp+0]
	#DEBUG_VALUE: main:chi3 <- [DW_OP_plus_uconst 184] [$rsp+0]
	#DEBUG_VALUE: main:chi4 <- [DW_OP_plus_uconst 176] [$rsp+0]
	#DEBUG_VALUE: main:chi5 <- [DW_OP_plus_uconst 72] [$rsp+0]
	#DEBUG_VALUE: main:chi6 <- [DW_OP_plus_uconst 64] [$rsp+0]
	#DEBUG_VALUE: main:wt1 <- [DW_OP_plus_uconst 56] [$rsp+0]
	#DEBUG_VALUE: main:t1 <- [DW_OP_plus_uconst 88] [$rsp+0]
	leaq	(%r8,%rax), %rbx
	addq	$16, %rbx
	vaddsd	(%rbx), %xmm0, %xmm0
	vaddsd	8(%rbx), %xmm1, %xmm1
	vmovsd	%xmm0, (%rbx)
	vmovsd	%xmm1, 8(%rbx)
	vmovsd	80(%rcx), %xmm4                 # xmm4 = mem[0],zero
	vmovsd	88(%rcx), %xmm5                 # xmm5 = mem[0],zero
	vmovsd	32(%r11), %xmm2                 # xmm2 = mem[0],zero
	vmovsd	40(%r11), %xmm3                 # xmm3 = mem[0],zero
	vmulsd	%xmm2, %xmm4, %xmm0
	vmulsd	%xmm3, %xmm5, %xmm1
	vsubsd	%xmm1, %xmm0, %xmm0
	vmulsd	%xmm3, %xmm4, %xmm1
	vmulsd	%xmm2, %xmm5, %xmm6
	vaddsd	%xmm1, %xmm6, %xmm1
	vucomisd	%xmm0, %xmm0
	jp	.LBB0_101
.Ltmp446:
.LBB0_103:                              #   in Loop: Header=BB0_81 Depth=1
	#DEBUG_VALUE: main:n <- 5
	#DEBUG_VALUE: main:res1 <- 0.000000e+00
	#DEBUG_VALUE: main:res2 <- 0.000000e+00
	#DEBUG_VALUE: main:res3 <- 0.000000e+00
	#DEBUG_VALUE: main:res4 <- 0.000000e+00
	#DEBUG_VALUE: main:res5 <- 0.000000e+00
	#DEBUG_VALUE: main:res6 <- 0.000000e+00
	#DEBUG_VALUE: main:res7 <- 0.000000e+00
	#DEBUG_VALUE: main:res8 <- 0.000000e+00
	#DEBUG_VALUE: main:res9 <- 0.000000e+00
	#DEBUG_VALUE: main:res10 <- 0.000000e+00
	#DEBUG_VALUE: main:res11 <- 0.000000e+00
	#DEBUG_VALUE: main:res12 <- 0.000000e+00
	#DEBUG_VALUE: main:in <- 100000000
	#DEBUG_VALUE: main:n_times <- 0
	#DEBUG_VALUE: main:n_warmup <- 0
	#DEBUG_VALUE: main:up <- [DW_OP_plus_uconst 48] [$rsp+0]
	#DEBUG_VALUE: main:v3 <- [DW_OP_plus_uconst 128] [$rsp+0]
	#DEBUG_VALUE: main:v1 <- [DW_OP_plus_uconst 120] [$rsp+0]
	#DEBUG_VALUE: main:v2 <- [DW_OP_plus_uconst 112] [$rsp+0]
	#DEBUG_VALUE: main:psi <- [DW_OP_plus_uconst 40] [$rsp+0]
	#DEBUG_VALUE: main:psi2 <- [DW_OP_plus_uconst 32] [$rsp+0]
	#DEBUG_VALUE: main:chi <- [DW_OP_plus_uconst 152] [$rsp+0]
	#DEBUG_VALUE: main:chi2 <- [DW_OP_plus_uconst 144] [$rsp+0]
	#DEBUG_VALUE: main:chi3 <- [DW_OP_plus_uconst 184] [$rsp+0]
	#DEBUG_VALUE: main:chi4 <- [DW_OP_plus_uconst 176] [$rsp+0]
	#DEBUG_VALUE: main:chi5 <- [DW_OP_plus_uconst 72] [$rsp+0]
	#DEBUG_VALUE: main:chi6 <- [DW_OP_plus_uconst 64] [$rsp+0]
	#DEBUG_VALUE: main:wt1 <- [DW_OP_plus_uconst 56] [$rsp+0]
	#DEBUG_VALUE: main:t1 <- [DW_OP_plus_uconst 88] [$rsp+0]
	vaddsd	(%rbx), %xmm0, %xmm0
	vaddsd	8(%rbx), %xmm1, %xmm1
	vmovsd	%xmm0, (%rbx)
	vmovsd	%xmm1, 8(%rbx)
	vmovsd	96(%rcx), %xmm4                 # xmm4 = mem[0],zero
	vmovsd	104(%rcx), %xmm5                # xmm5 = mem[0],zero
	vmovsd	(%r11), %xmm2                   # xmm2 = mem[0],zero
	vmovsd	8(%r11), %xmm3                  # xmm3 = mem[0],zero
	vmulsd	%xmm2, %xmm4, %xmm0
	vmulsd	%xmm3, %xmm5, %xmm1
	vsubsd	%xmm1, %xmm0, %xmm0
	vmulsd	%xmm3, %xmm4, %xmm1
	vmulsd	%xmm2, %xmm5, %xmm6
	vaddsd	%xmm1, %xmm6, %xmm1
	vucomisd	%xmm0, %xmm0
	jp	.LBB0_104
.Ltmp447:
.LBB0_106:                              #   in Loop: Header=BB0_81 Depth=1
	#DEBUG_VALUE: main:n <- 5
	#DEBUG_VALUE: main:res1 <- 0.000000e+00
	#DEBUG_VALUE: main:res2 <- 0.000000e+00
	#DEBUG_VALUE: main:res3 <- 0.000000e+00
	#DEBUG_VALUE: main:res4 <- 0.000000e+00
	#DEBUG_VALUE: main:res5 <- 0.000000e+00
	#DEBUG_VALUE: main:res6 <- 0.000000e+00
	#DEBUG_VALUE: main:res7 <- 0.000000e+00
	#DEBUG_VALUE: main:res8 <- 0.000000e+00
	#DEBUG_VALUE: main:res9 <- 0.000000e+00
	#DEBUG_VALUE: main:res10 <- 0.000000e+00
	#DEBUG_VALUE: main:res11 <- 0.000000e+00
	#DEBUG_VALUE: main:res12 <- 0.000000e+00
	#DEBUG_VALUE: main:in <- 100000000
	#DEBUG_VALUE: main:n_times <- 0
	#DEBUG_VALUE: main:n_warmup <- 0
	#DEBUG_VALUE: main:up <- [DW_OP_plus_uconst 48] [$rsp+0]
	#DEBUG_VALUE: main:v3 <- [DW_OP_plus_uconst 128] [$rsp+0]
	#DEBUG_VALUE: main:v1 <- [DW_OP_plus_uconst 120] [$rsp+0]
	#DEBUG_VALUE: main:v2 <- [DW_OP_plus_uconst 112] [$rsp+0]
	#DEBUG_VALUE: main:psi <- [DW_OP_plus_uconst 40] [$rsp+0]
	#DEBUG_VALUE: main:psi2 <- [DW_OP_plus_uconst 32] [$rsp+0]
	#DEBUG_VALUE: main:chi <- [DW_OP_plus_uconst 152] [$rsp+0]
	#DEBUG_VALUE: main:chi2 <- [DW_OP_plus_uconst 144] [$rsp+0]
	#DEBUG_VALUE: main:chi3 <- [DW_OP_plus_uconst 184] [$rsp+0]
	#DEBUG_VALUE: main:chi4 <- [DW_OP_plus_uconst 176] [$rsp+0]
	#DEBUG_VALUE: main:chi5 <- [DW_OP_plus_uconst 72] [$rsp+0]
	#DEBUG_VALUE: main:chi6 <- [DW_OP_plus_uconst 64] [$rsp+0]
	#DEBUG_VALUE: main:wt1 <- [DW_OP_plus_uconst 56] [$rsp+0]
	#DEBUG_VALUE: main:t1 <- [DW_OP_plus_uconst 88] [$rsp+0]
	vmovsd	%xmm0, 32(%r8,%rax)
	vmovsd	%xmm1, 40(%r8,%rax)
	vmovsd	112(%rcx), %xmm4                # xmm4 = mem[0],zero
	vmovsd	120(%rcx), %xmm5                # xmm5 = mem[0],zero
	vmovsd	16(%r11), %xmm2                 # xmm2 = mem[0],zero
	vmovsd	24(%r11), %xmm3                 # xmm3 = mem[0],zero
	vmulsd	%xmm2, %xmm4, %xmm0
	vmulsd	%xmm3, %xmm5, %xmm1
	vsubsd	%xmm1, %xmm0, %xmm0
	vmulsd	%xmm3, %xmm4, %xmm1
	vmulsd	%xmm2, %xmm5, %xmm6
	vaddsd	%xmm1, %xmm6, %xmm1
	vucomisd	%xmm0, %xmm0
	jp	.LBB0_107
.Ltmp448:
.LBB0_109:                              #   in Loop: Header=BB0_81 Depth=1
	#DEBUG_VALUE: main:n <- 5
	#DEBUG_VALUE: main:res1 <- 0.000000e+00
	#DEBUG_VALUE: main:res2 <- 0.000000e+00
	#DEBUG_VALUE: main:res3 <- 0.000000e+00
	#DEBUG_VALUE: main:res4 <- 0.000000e+00
	#DEBUG_VALUE: main:res5 <- 0.000000e+00
	#DEBUG_VALUE: main:res6 <- 0.000000e+00
	#DEBUG_VALUE: main:res7 <- 0.000000e+00
	#DEBUG_VALUE: main:res8 <- 0.000000e+00
	#DEBUG_VALUE: main:res9 <- 0.000000e+00
	#DEBUG_VALUE: main:res10 <- 0.000000e+00
	#DEBUG_VALUE: main:res11 <- 0.000000e+00
	#DEBUG_VALUE: main:res12 <- 0.000000e+00
	#DEBUG_VALUE: main:in <- 100000000
	#DEBUG_VALUE: main:n_times <- 0
	#DEBUG_VALUE: main:n_warmup <- 0
	#DEBUG_VALUE: main:up <- [DW_OP_plus_uconst 48] [$rsp+0]
	#DEBUG_VALUE: main:v3 <- [DW_OP_plus_uconst 128] [$rsp+0]
	#DEBUG_VALUE: main:v1 <- [DW_OP_plus_uconst 120] [$rsp+0]
	#DEBUG_VALUE: main:v2 <- [DW_OP_plus_uconst 112] [$rsp+0]
	#DEBUG_VALUE: main:psi <- [DW_OP_plus_uconst 40] [$rsp+0]
	#DEBUG_VALUE: main:psi2 <- [DW_OP_plus_uconst 32] [$rsp+0]
	#DEBUG_VALUE: main:chi <- [DW_OP_plus_uconst 152] [$rsp+0]
	#DEBUG_VALUE: main:chi2 <- [DW_OP_plus_uconst 144] [$rsp+0]
	#DEBUG_VALUE: main:chi3 <- [DW_OP_plus_uconst 184] [$rsp+0]
	#DEBUG_VALUE: main:chi4 <- [DW_OP_plus_uconst 176] [$rsp+0]
	#DEBUG_VALUE: main:chi5 <- [DW_OP_plus_uconst 72] [$rsp+0]
	#DEBUG_VALUE: main:chi6 <- [DW_OP_plus_uconst 64] [$rsp+0]
	#DEBUG_VALUE: main:wt1 <- [DW_OP_plus_uconst 56] [$rsp+0]
	#DEBUG_VALUE: main:t1 <- [DW_OP_plus_uconst 88] [$rsp+0]
	leaq	(%r8,%rax), %rbx
	addq	$32, %rbx
	vaddsd	(%rbx), %xmm0, %xmm0
	vaddsd	8(%rbx), %xmm1, %xmm1
	vmovsd	%xmm0, (%rbx)
	vmovsd	%xmm1, 8(%rbx)
	vmovsd	128(%rcx), %xmm4                # xmm4 = mem[0],zero
	vmovsd	136(%rcx), %xmm5                # xmm5 = mem[0],zero
	vmovsd	32(%r11), %xmm2                 # xmm2 = mem[0],zero
	vmovsd	40(%r11), %xmm3                 # xmm3 = mem[0],zero
	vmulsd	%xmm2, %xmm4, %xmm0
	vmulsd	%xmm3, %xmm5, %xmm1
	vsubsd	%xmm1, %xmm0, %xmm0
	vmulsd	%xmm3, %xmm4, %xmm1
	vmulsd	%xmm2, %xmm5, %xmm6
	vaddsd	%xmm1, %xmm6, %xmm1
	vucomisd	%xmm0, %xmm0
	jp	.LBB0_110
.Ltmp449:
.LBB0_112:                              #   in Loop: Header=BB0_81 Depth=1
	#DEBUG_VALUE: main:n <- 5
	#DEBUG_VALUE: main:res1 <- 0.000000e+00
	#DEBUG_VALUE: main:res2 <- 0.000000e+00
	#DEBUG_VALUE: main:res3 <- 0.000000e+00
	#DEBUG_VALUE: main:res4 <- 0.000000e+00
	#DEBUG_VALUE: main:res5 <- 0.000000e+00
	#DEBUG_VALUE: main:res6 <- 0.000000e+00
	#DEBUG_VALUE: main:res7 <- 0.000000e+00
	#DEBUG_VALUE: main:res8 <- 0.000000e+00
	#DEBUG_VALUE: main:res9 <- 0.000000e+00
	#DEBUG_VALUE: main:res10 <- 0.000000e+00
	#DEBUG_VALUE: main:res11 <- 0.000000e+00
	#DEBUG_VALUE: main:res12 <- 0.000000e+00
	#DEBUG_VALUE: main:in <- 100000000
	#DEBUG_VALUE: main:n_times <- 0
	#DEBUG_VALUE: main:n_warmup <- 0
	#DEBUG_VALUE: main:up <- [DW_OP_plus_uconst 48] [$rsp+0]
	#DEBUG_VALUE: main:v3 <- [DW_OP_plus_uconst 128] [$rsp+0]
	#DEBUG_VALUE: main:v1 <- [DW_OP_plus_uconst 120] [$rsp+0]
	#DEBUG_VALUE: main:v2 <- [DW_OP_plus_uconst 112] [$rsp+0]
	#DEBUG_VALUE: main:psi <- [DW_OP_plus_uconst 40] [$rsp+0]
	#DEBUG_VALUE: main:psi2 <- [DW_OP_plus_uconst 32] [$rsp+0]
	#DEBUG_VALUE: main:chi <- [DW_OP_plus_uconst 152] [$rsp+0]
	#DEBUG_VALUE: main:chi2 <- [DW_OP_plus_uconst 144] [$rsp+0]
	#DEBUG_VALUE: main:chi3 <- [DW_OP_plus_uconst 184] [$rsp+0]
	#DEBUG_VALUE: main:chi4 <- [DW_OP_plus_uconst 176] [$rsp+0]
	#DEBUG_VALUE: main:chi5 <- [DW_OP_plus_uconst 72] [$rsp+0]
	#DEBUG_VALUE: main:chi6 <- [DW_OP_plus_uconst 64] [$rsp+0]
	#DEBUG_VALUE: main:wt1 <- [DW_OP_plus_uconst 56] [$rsp+0]
	#DEBUG_VALUE: main:t1 <- [DW_OP_plus_uconst 88] [$rsp+0]
	vaddsd	(%rbx), %xmm0, %xmm0
	vaddsd	8(%rbx), %xmm1, %xmm1
	vmovsd	%xmm0, (%rbx)
	vmovsd	%xmm1, 8(%rbx)
	.loc	0 276 6                         # avx_complex_vec_align_load.c:276:6
	vmovsd	(%rcx), %xmm4                   # xmm4 = mem[0],zero
	vmovsd	8(%rcx), %xmm5                  # xmm5 = mem[0],zero
	vmovsd	(%rsi), %xmm2                   # xmm2 = mem[0],zero
	vmovsd	8(%rsi), %xmm3                  # xmm3 = mem[0],zero
	vmulsd	%xmm2, %xmm4, %xmm0
	vmulsd	%xmm3, %xmm5, %xmm1
	vsubsd	%xmm1, %xmm0, %xmm0
	vmulsd	%xmm3, %xmm4, %xmm1
	vmulsd	%xmm2, %xmm5, %xmm6
	vaddsd	%xmm1, %xmm6, %xmm1
	vucomisd	%xmm0, %xmm0
	jp	.LBB0_113
.Ltmp450:
.LBB0_115:                              #   in Loop: Header=BB0_81 Depth=1
	#DEBUG_VALUE: main:n <- 5
	#DEBUG_VALUE: main:res1 <- 0.000000e+00
	#DEBUG_VALUE: main:res2 <- 0.000000e+00
	#DEBUG_VALUE: main:res3 <- 0.000000e+00
	#DEBUG_VALUE: main:res4 <- 0.000000e+00
	#DEBUG_VALUE: main:res5 <- 0.000000e+00
	#DEBUG_VALUE: main:res6 <- 0.000000e+00
	#DEBUG_VALUE: main:res7 <- 0.000000e+00
	#DEBUG_VALUE: main:res8 <- 0.000000e+00
	#DEBUG_VALUE: main:res9 <- 0.000000e+00
	#DEBUG_VALUE: main:res10 <- 0.000000e+00
	#DEBUG_VALUE: main:res11 <- 0.000000e+00
	#DEBUG_VALUE: main:res12 <- 0.000000e+00
	#DEBUG_VALUE: main:in <- 100000000
	#DEBUG_VALUE: main:n_times <- 0
	#DEBUG_VALUE: main:n_warmup <- 0
	#DEBUG_VALUE: main:up <- [DW_OP_plus_uconst 48] [$rsp+0]
	#DEBUG_VALUE: main:v3 <- [DW_OP_plus_uconst 128] [$rsp+0]
	#DEBUG_VALUE: main:v1 <- [DW_OP_plus_uconst 120] [$rsp+0]
	#DEBUG_VALUE: main:v2 <- [DW_OP_plus_uconst 112] [$rsp+0]
	#DEBUG_VALUE: main:psi <- [DW_OP_plus_uconst 40] [$rsp+0]
	#DEBUG_VALUE: main:psi2 <- [DW_OP_plus_uconst 32] [$rsp+0]
	#DEBUG_VALUE: main:chi <- [DW_OP_plus_uconst 152] [$rsp+0]
	#DEBUG_VALUE: main:chi2 <- [DW_OP_plus_uconst 144] [$rsp+0]
	#DEBUG_VALUE: main:chi3 <- [DW_OP_plus_uconst 184] [$rsp+0]
	#DEBUG_VALUE: main:chi4 <- [DW_OP_plus_uconst 176] [$rsp+0]
	#DEBUG_VALUE: main:chi5 <- [DW_OP_plus_uconst 72] [$rsp+0]
	#DEBUG_VALUE: main:chi6 <- [DW_OP_plus_uconst 64] [$rsp+0]
	#DEBUG_VALUE: main:wt1 <- [DW_OP_plus_uconst 56] [$rsp+0]
	#DEBUG_VALUE: main:t1 <- [DW_OP_plus_uconst 88] [$rsp+0]
	vmovsd	%xmm0, (%r10,%rax)
	vmovsd	%xmm1, 8(%r10,%rax)
	leaq	(%r10,%rax), %r13
	vmovsd	16(%rcx), %xmm4                 # xmm4 = mem[0],zero
	vmovsd	24(%rcx), %xmm5                 # xmm5 = mem[0],zero
	vmovsd	16(%rsi), %xmm2                 # xmm2 = mem[0],zero
	vmovsd	24(%rsi), %xmm3                 # xmm3 = mem[0],zero
	vmulsd	%xmm2, %xmm4, %xmm0
	vmulsd	%xmm3, %xmm5, %xmm1
	vsubsd	%xmm1, %xmm0, %xmm0
	vmulsd	%xmm3, %xmm4, %xmm1
	vmulsd	%xmm2, %xmm5, %xmm6
	vaddsd	%xmm1, %xmm6, %xmm1
	vucomisd	%xmm0, %xmm0
	jp	.LBB0_116
.Ltmp451:
.LBB0_118:                              #   in Loop: Header=BB0_81 Depth=1
	#DEBUG_VALUE: main:n <- 5
	#DEBUG_VALUE: main:res1 <- 0.000000e+00
	#DEBUG_VALUE: main:res2 <- 0.000000e+00
	#DEBUG_VALUE: main:res3 <- 0.000000e+00
	#DEBUG_VALUE: main:res4 <- 0.000000e+00
	#DEBUG_VALUE: main:res5 <- 0.000000e+00
	#DEBUG_VALUE: main:res6 <- 0.000000e+00
	#DEBUG_VALUE: main:res7 <- 0.000000e+00
	#DEBUG_VALUE: main:res8 <- 0.000000e+00
	#DEBUG_VALUE: main:res9 <- 0.000000e+00
	#DEBUG_VALUE: main:res10 <- 0.000000e+00
	#DEBUG_VALUE: main:res11 <- 0.000000e+00
	#DEBUG_VALUE: main:res12 <- 0.000000e+00
	#DEBUG_VALUE: main:in <- 100000000
	#DEBUG_VALUE: main:n_times <- 0
	#DEBUG_VALUE: main:n_warmup <- 0
	#DEBUG_VALUE: main:up <- [DW_OP_plus_uconst 48] [$rsp+0]
	#DEBUG_VALUE: main:v3 <- [DW_OP_plus_uconst 128] [$rsp+0]
	#DEBUG_VALUE: main:v1 <- [DW_OP_plus_uconst 120] [$rsp+0]
	#DEBUG_VALUE: main:v2 <- [DW_OP_plus_uconst 112] [$rsp+0]
	#DEBUG_VALUE: main:psi <- [DW_OP_plus_uconst 40] [$rsp+0]
	#DEBUG_VALUE: main:psi2 <- [DW_OP_plus_uconst 32] [$rsp+0]
	#DEBUG_VALUE: main:chi <- [DW_OP_plus_uconst 152] [$rsp+0]
	#DEBUG_VALUE: main:chi2 <- [DW_OP_plus_uconst 144] [$rsp+0]
	#DEBUG_VALUE: main:chi3 <- [DW_OP_plus_uconst 184] [$rsp+0]
	#DEBUG_VALUE: main:chi4 <- [DW_OP_plus_uconst 176] [$rsp+0]
	#DEBUG_VALUE: main:chi5 <- [DW_OP_plus_uconst 72] [$rsp+0]
	#DEBUG_VALUE: main:chi6 <- [DW_OP_plus_uconst 64] [$rsp+0]
	#DEBUG_VALUE: main:wt1 <- [DW_OP_plus_uconst 56] [$rsp+0]
	#DEBUG_VALUE: main:t1 <- [DW_OP_plus_uconst 88] [$rsp+0]
	leaq	(%r10,%rax), %rbx
	addq	$8, %rbx
	vaddsd	(%r13), %xmm0, %xmm0
	vaddsd	(%rbx), %xmm1, %xmm1
	vmovsd	%xmm0, (%r13)
	vmovsd	%xmm1, (%rbx)
	vmovsd	32(%rcx), %xmm4                 # xmm4 = mem[0],zero
	vmovsd	40(%rcx), %xmm5                 # xmm5 = mem[0],zero
	vmovsd	32(%rsi), %xmm2                 # xmm2 = mem[0],zero
	vmovsd	40(%rsi), %xmm3                 # xmm3 = mem[0],zero
	vmulsd	%xmm2, %xmm4, %xmm0
	vmulsd	%xmm3, %xmm5, %xmm1
	vsubsd	%xmm1, %xmm0, %xmm0
	vmulsd	%xmm3, %xmm4, %xmm1
	vmulsd	%xmm2, %xmm5, %xmm6
	vaddsd	%xmm1, %xmm6, %xmm1
	vucomisd	%xmm0, %xmm0
	jp	.LBB0_119
.Ltmp452:
.LBB0_121:                              #   in Loop: Header=BB0_81 Depth=1
	#DEBUG_VALUE: main:n <- 5
	#DEBUG_VALUE: main:res1 <- 0.000000e+00
	#DEBUG_VALUE: main:res2 <- 0.000000e+00
	#DEBUG_VALUE: main:res3 <- 0.000000e+00
	#DEBUG_VALUE: main:res4 <- 0.000000e+00
	#DEBUG_VALUE: main:res5 <- 0.000000e+00
	#DEBUG_VALUE: main:res6 <- 0.000000e+00
	#DEBUG_VALUE: main:res7 <- 0.000000e+00
	#DEBUG_VALUE: main:res8 <- 0.000000e+00
	#DEBUG_VALUE: main:res9 <- 0.000000e+00
	#DEBUG_VALUE: main:res10 <- 0.000000e+00
	#DEBUG_VALUE: main:res11 <- 0.000000e+00
	#DEBUG_VALUE: main:res12 <- 0.000000e+00
	#DEBUG_VALUE: main:in <- 100000000
	#DEBUG_VALUE: main:n_times <- 0
	#DEBUG_VALUE: main:n_warmup <- 0
	#DEBUG_VALUE: main:up <- [DW_OP_plus_uconst 48] [$rsp+0]
	#DEBUG_VALUE: main:v3 <- [DW_OP_plus_uconst 128] [$rsp+0]
	#DEBUG_VALUE: main:v1 <- [DW_OP_plus_uconst 120] [$rsp+0]
	#DEBUG_VALUE: main:v2 <- [DW_OP_plus_uconst 112] [$rsp+0]
	#DEBUG_VALUE: main:psi <- [DW_OP_plus_uconst 40] [$rsp+0]
	#DEBUG_VALUE: main:psi2 <- [DW_OP_plus_uconst 32] [$rsp+0]
	#DEBUG_VALUE: main:chi <- [DW_OP_plus_uconst 152] [$rsp+0]
	#DEBUG_VALUE: main:chi2 <- [DW_OP_plus_uconst 144] [$rsp+0]
	#DEBUG_VALUE: main:chi3 <- [DW_OP_plus_uconst 184] [$rsp+0]
	#DEBUG_VALUE: main:chi4 <- [DW_OP_plus_uconst 176] [$rsp+0]
	#DEBUG_VALUE: main:chi5 <- [DW_OP_plus_uconst 72] [$rsp+0]
	#DEBUG_VALUE: main:chi6 <- [DW_OP_plus_uconst 64] [$rsp+0]
	#DEBUG_VALUE: main:wt1 <- [DW_OP_plus_uconst 56] [$rsp+0]
	#DEBUG_VALUE: main:t1 <- [DW_OP_plus_uconst 88] [$rsp+0]
	vaddsd	(%r13), %xmm0, %xmm0
	vaddsd	(%rbx), %xmm1, %xmm1
	vmovsd	%xmm0, (%r13)
	vmovsd	%xmm1, (%rbx)
	vmovsd	48(%rcx), %xmm4                 # xmm4 = mem[0],zero
	vmovsd	56(%rcx), %xmm5                 # xmm5 = mem[0],zero
	vmovsd	(%rsi), %xmm2                   # xmm2 = mem[0],zero
	vmovsd	8(%rsi), %xmm3                  # xmm3 = mem[0],zero
	vmulsd	%xmm2, %xmm4, %xmm0
	vmulsd	%xmm3, %xmm5, %xmm1
	vsubsd	%xmm1, %xmm0, %xmm0
	vmulsd	%xmm3, %xmm4, %xmm1
	vmulsd	%xmm2, %xmm5, %xmm6
	vaddsd	%xmm1, %xmm6, %xmm1
	vucomisd	%xmm0, %xmm0
	jp	.LBB0_122
.Ltmp453:
.LBB0_124:                              #   in Loop: Header=BB0_81 Depth=1
	#DEBUG_VALUE: main:n <- 5
	#DEBUG_VALUE: main:res1 <- 0.000000e+00
	#DEBUG_VALUE: main:res2 <- 0.000000e+00
	#DEBUG_VALUE: main:res3 <- 0.000000e+00
	#DEBUG_VALUE: main:res4 <- 0.000000e+00
	#DEBUG_VALUE: main:res5 <- 0.000000e+00
	#DEBUG_VALUE: main:res6 <- 0.000000e+00
	#DEBUG_VALUE: main:res7 <- 0.000000e+00
	#DEBUG_VALUE: main:res8 <- 0.000000e+00
	#DEBUG_VALUE: main:res9 <- 0.000000e+00
	#DEBUG_VALUE: main:res10 <- 0.000000e+00
	#DEBUG_VALUE: main:res11 <- 0.000000e+00
	#DEBUG_VALUE: main:res12 <- 0.000000e+00
	#DEBUG_VALUE: main:in <- 100000000
	#DEBUG_VALUE: main:n_times <- 0
	#DEBUG_VALUE: main:n_warmup <- 0
	#DEBUG_VALUE: main:up <- [DW_OP_plus_uconst 48] [$rsp+0]
	#DEBUG_VALUE: main:v3 <- [DW_OP_plus_uconst 128] [$rsp+0]
	#DEBUG_VALUE: main:v1 <- [DW_OP_plus_uconst 120] [$rsp+0]
	#DEBUG_VALUE: main:v2 <- [DW_OP_plus_uconst 112] [$rsp+0]
	#DEBUG_VALUE: main:psi <- [DW_OP_plus_uconst 40] [$rsp+0]
	#DEBUG_VALUE: main:psi2 <- [DW_OP_plus_uconst 32] [$rsp+0]
	#DEBUG_VALUE: main:chi <- [DW_OP_plus_uconst 152] [$rsp+0]
	#DEBUG_VALUE: main:chi2 <- [DW_OP_plus_uconst 144] [$rsp+0]
	#DEBUG_VALUE: main:chi3 <- [DW_OP_plus_uconst 184] [$rsp+0]
	#DEBUG_VALUE: main:chi4 <- [DW_OP_plus_uconst 176] [$rsp+0]
	#DEBUG_VALUE: main:chi5 <- [DW_OP_plus_uconst 72] [$rsp+0]
	#DEBUG_VALUE: main:chi6 <- [DW_OP_plus_uconst 64] [$rsp+0]
	#DEBUG_VALUE: main:wt1 <- [DW_OP_plus_uconst 56] [$rsp+0]
	#DEBUG_VALUE: main:t1 <- [DW_OP_plus_uconst 88] [$rsp+0]
	vmovsd	%xmm0, 16(%r10,%rax)
	vmovsd	%xmm1, 24(%r10,%rax)
	vmovsd	64(%rcx), %xmm4                 # xmm4 = mem[0],zero
	vmovsd	72(%rcx), %xmm5                 # xmm5 = mem[0],zero
	vmovsd	16(%rsi), %xmm2                 # xmm2 = mem[0],zero
	vmovsd	24(%rsi), %xmm3                 # xmm3 = mem[0],zero
	vmulsd	%xmm2, %xmm4, %xmm0
	vmulsd	%xmm3, %xmm5, %xmm1
	vsubsd	%xmm1, %xmm0, %xmm0
	vmulsd	%xmm3, %xmm4, %xmm1
	vmulsd	%xmm2, %xmm5, %xmm6
	vaddsd	%xmm1, %xmm6, %xmm1
	vucomisd	%xmm0, %xmm0
	jp	.LBB0_125
.Ltmp454:
.LBB0_127:                              #   in Loop: Header=BB0_81 Depth=1
	#DEBUG_VALUE: main:n <- 5
	#DEBUG_VALUE: main:res1 <- 0.000000e+00
	#DEBUG_VALUE: main:res2 <- 0.000000e+00
	#DEBUG_VALUE: main:res3 <- 0.000000e+00
	#DEBUG_VALUE: main:res4 <- 0.000000e+00
	#DEBUG_VALUE: main:res5 <- 0.000000e+00
	#DEBUG_VALUE: main:res6 <- 0.000000e+00
	#DEBUG_VALUE: main:res7 <- 0.000000e+00
	#DEBUG_VALUE: main:res8 <- 0.000000e+00
	#DEBUG_VALUE: main:res9 <- 0.000000e+00
	#DEBUG_VALUE: main:res10 <- 0.000000e+00
	#DEBUG_VALUE: main:res11 <- 0.000000e+00
	#DEBUG_VALUE: main:res12 <- 0.000000e+00
	#DEBUG_VALUE: main:in <- 100000000
	#DEBUG_VALUE: main:n_times <- 0
	#DEBUG_VALUE: main:n_warmup <- 0
	#DEBUG_VALUE: main:up <- [DW_OP_plus_uconst 48] [$rsp+0]
	#DEBUG_VALUE: main:v3 <- [DW_OP_plus_uconst 128] [$rsp+0]
	#DEBUG_VALUE: main:v1 <- [DW_OP_plus_uconst 120] [$rsp+0]
	#DEBUG_VALUE: main:v2 <- [DW_OP_plus_uconst 112] [$rsp+0]
	#DEBUG_VALUE: main:psi <- [DW_OP_plus_uconst 40] [$rsp+0]
	#DEBUG_VALUE: main:psi2 <- [DW_OP_plus_uconst 32] [$rsp+0]
	#DEBUG_VALUE: main:chi <- [DW_OP_plus_uconst 152] [$rsp+0]
	#DEBUG_VALUE: main:chi2 <- [DW_OP_plus_uconst 144] [$rsp+0]
	#DEBUG_VALUE: main:chi3 <- [DW_OP_plus_uconst 184] [$rsp+0]
	#DEBUG_VALUE: main:chi4 <- [DW_OP_plus_uconst 176] [$rsp+0]
	#DEBUG_VALUE: main:chi5 <- [DW_OP_plus_uconst 72] [$rsp+0]
	#DEBUG_VALUE: main:chi6 <- [DW_OP_plus_uconst 64] [$rsp+0]
	#DEBUG_VALUE: main:wt1 <- [DW_OP_plus_uconst 56] [$rsp+0]
	#DEBUG_VALUE: main:t1 <- [DW_OP_plus_uconst 88] [$rsp+0]
	leaq	(%r10,%rax), %rbx
	addq	$16, %rbx
	vaddsd	(%rbx), %xmm0, %xmm0
	vaddsd	8(%rbx), %xmm1, %xmm1
	vmovsd	%xmm0, (%rbx)
	vmovsd	%xmm1, 8(%rbx)
	vmovsd	80(%rcx), %xmm4                 # xmm4 = mem[0],zero
	vmovsd	88(%rcx), %xmm5                 # xmm5 = mem[0],zero
	vmovsd	32(%rsi), %xmm2                 # xmm2 = mem[0],zero
	vmovsd	40(%rsi), %xmm3                 # xmm3 = mem[0],zero
	vmulsd	%xmm2, %xmm4, %xmm0
	vmulsd	%xmm3, %xmm5, %xmm1
	vsubsd	%xmm1, %xmm0, %xmm0
	vmulsd	%xmm3, %xmm4, %xmm1
	vmulsd	%xmm2, %xmm5, %xmm6
	vaddsd	%xmm1, %xmm6, %xmm1
	vucomisd	%xmm0, %xmm0
	jp	.LBB0_128
.Ltmp455:
.LBB0_130:                              #   in Loop: Header=BB0_81 Depth=1
	#DEBUG_VALUE: main:n <- 5
	#DEBUG_VALUE: main:res1 <- 0.000000e+00
	#DEBUG_VALUE: main:res2 <- 0.000000e+00
	#DEBUG_VALUE: main:res3 <- 0.000000e+00
	#DEBUG_VALUE: main:res4 <- 0.000000e+00
	#DEBUG_VALUE: main:res5 <- 0.000000e+00
	#DEBUG_VALUE: main:res6 <- 0.000000e+00
	#DEBUG_VALUE: main:res7 <- 0.000000e+00
	#DEBUG_VALUE: main:res8 <- 0.000000e+00
	#DEBUG_VALUE: main:res9 <- 0.000000e+00
	#DEBUG_VALUE: main:res10 <- 0.000000e+00
	#DEBUG_VALUE: main:res11 <- 0.000000e+00
	#DEBUG_VALUE: main:res12 <- 0.000000e+00
	#DEBUG_VALUE: main:in <- 100000000
	#DEBUG_VALUE: main:n_times <- 0
	#DEBUG_VALUE: main:n_warmup <- 0
	#DEBUG_VALUE: main:up <- [DW_OP_plus_uconst 48] [$rsp+0]
	#DEBUG_VALUE: main:v3 <- [DW_OP_plus_uconst 128] [$rsp+0]
	#DEBUG_VALUE: main:v1 <- [DW_OP_plus_uconst 120] [$rsp+0]
	#DEBUG_VALUE: main:v2 <- [DW_OP_plus_uconst 112] [$rsp+0]
	#DEBUG_VALUE: main:psi <- [DW_OP_plus_uconst 40] [$rsp+0]
	#DEBUG_VALUE: main:psi2 <- [DW_OP_plus_uconst 32] [$rsp+0]
	#DEBUG_VALUE: main:chi <- [DW_OP_plus_uconst 152] [$rsp+0]
	#DEBUG_VALUE: main:chi2 <- [DW_OP_plus_uconst 144] [$rsp+0]
	#DEBUG_VALUE: main:chi3 <- [DW_OP_plus_uconst 184] [$rsp+0]
	#DEBUG_VALUE: main:chi4 <- [DW_OP_plus_uconst 176] [$rsp+0]
	#DEBUG_VALUE: main:chi5 <- [DW_OP_plus_uconst 72] [$rsp+0]
	#DEBUG_VALUE: main:chi6 <- [DW_OP_plus_uconst 64] [$rsp+0]
	#DEBUG_VALUE: main:wt1 <- [DW_OP_plus_uconst 56] [$rsp+0]
	#DEBUG_VALUE: main:t1 <- [DW_OP_plus_uconst 88] [$rsp+0]
	vaddsd	(%rbx), %xmm0, %xmm0
	vaddsd	8(%rbx), %xmm1, %xmm1
	vmovsd	%xmm0, (%rbx)
	vmovsd	%xmm1, 8(%rbx)
	vmovsd	96(%rcx), %xmm4                 # xmm4 = mem[0],zero
	vmovsd	104(%rcx), %xmm5                # xmm5 = mem[0],zero
	vmovsd	(%rsi), %xmm2                   # xmm2 = mem[0],zero
	vmovsd	8(%rsi), %xmm3                  # xmm3 = mem[0],zero
	vmulsd	%xmm2, %xmm4, %xmm0
	vmulsd	%xmm3, %xmm5, %xmm1
	vsubsd	%xmm1, %xmm0, %xmm0
	vmulsd	%xmm3, %xmm4, %xmm1
	vmulsd	%xmm2, %xmm5, %xmm6
	vaddsd	%xmm1, %xmm6, %xmm1
	vucomisd	%xmm0, %xmm0
	jp	.LBB0_131
.Ltmp456:
.LBB0_133:                              #   in Loop: Header=BB0_81 Depth=1
	#DEBUG_VALUE: main:n <- 5
	#DEBUG_VALUE: main:res1 <- 0.000000e+00
	#DEBUG_VALUE: main:res2 <- 0.000000e+00
	#DEBUG_VALUE: main:res3 <- 0.000000e+00
	#DEBUG_VALUE: main:res4 <- 0.000000e+00
	#DEBUG_VALUE: main:res5 <- 0.000000e+00
	#DEBUG_VALUE: main:res6 <- 0.000000e+00
	#DEBUG_VALUE: main:res7 <- 0.000000e+00
	#DEBUG_VALUE: main:res8 <- 0.000000e+00
	#DEBUG_VALUE: main:res9 <- 0.000000e+00
	#DEBUG_VALUE: main:res10 <- 0.000000e+00
	#DEBUG_VALUE: main:res11 <- 0.000000e+00
	#DEBUG_VALUE: main:res12 <- 0.000000e+00
	#DEBUG_VALUE: main:in <- 100000000
	#DEBUG_VALUE: main:n_times <- 0
	#DEBUG_VALUE: main:n_warmup <- 0
	#DEBUG_VALUE: main:up <- [DW_OP_plus_uconst 48] [$rsp+0]
	#DEBUG_VALUE: main:v3 <- [DW_OP_plus_uconst 128] [$rsp+0]
	#DEBUG_VALUE: main:v1 <- [DW_OP_plus_uconst 120] [$rsp+0]
	#DEBUG_VALUE: main:v2 <- [DW_OP_plus_uconst 112] [$rsp+0]
	#DEBUG_VALUE: main:psi <- [DW_OP_plus_uconst 40] [$rsp+0]
	#DEBUG_VALUE: main:psi2 <- [DW_OP_plus_uconst 32] [$rsp+0]
	#DEBUG_VALUE: main:chi <- [DW_OP_plus_uconst 152] [$rsp+0]
	#DEBUG_VALUE: main:chi2 <- [DW_OP_plus_uconst 144] [$rsp+0]
	#DEBUG_VALUE: main:chi3 <- [DW_OP_plus_uconst 184] [$rsp+0]
	#DEBUG_VALUE: main:chi4 <- [DW_OP_plus_uconst 176] [$rsp+0]
	#DEBUG_VALUE: main:chi5 <- [DW_OP_plus_uconst 72] [$rsp+0]
	#DEBUG_VALUE: main:chi6 <- [DW_OP_plus_uconst 64] [$rsp+0]
	#DEBUG_VALUE: main:wt1 <- [DW_OP_plus_uconst 56] [$rsp+0]
	#DEBUG_VALUE: main:t1 <- [DW_OP_plus_uconst 88] [$rsp+0]
	vmovsd	%xmm0, 32(%r10,%rax)
	vmovsd	%xmm1, 40(%r10,%rax)
	vmovsd	112(%rcx), %xmm4                # xmm4 = mem[0],zero
	vmovsd	120(%rcx), %xmm5                # xmm5 = mem[0],zero
	vmovsd	16(%rsi), %xmm2                 # xmm2 = mem[0],zero
	vmovsd	24(%rsi), %xmm3                 # xmm3 = mem[0],zero
	vmulsd	%xmm2, %xmm4, %xmm0
	vmulsd	%xmm3, %xmm5, %xmm1
	vsubsd	%xmm1, %xmm0, %xmm0
	vmulsd	%xmm3, %xmm4, %xmm1
	vmulsd	%xmm2, %xmm5, %xmm6
	vaddsd	%xmm1, %xmm6, %xmm1
	vucomisd	%xmm0, %xmm0
	jp	.LBB0_134
.Ltmp457:
.LBB0_136:                              #   in Loop: Header=BB0_81 Depth=1
	#DEBUG_VALUE: main:n <- 5
	#DEBUG_VALUE: main:res1 <- 0.000000e+00
	#DEBUG_VALUE: main:res2 <- 0.000000e+00
	#DEBUG_VALUE: main:res3 <- 0.000000e+00
	#DEBUG_VALUE: main:res4 <- 0.000000e+00
	#DEBUG_VALUE: main:res5 <- 0.000000e+00
	#DEBUG_VALUE: main:res6 <- 0.000000e+00
	#DEBUG_VALUE: main:res7 <- 0.000000e+00
	#DEBUG_VALUE: main:res8 <- 0.000000e+00
	#DEBUG_VALUE: main:res9 <- 0.000000e+00
	#DEBUG_VALUE: main:res10 <- 0.000000e+00
	#DEBUG_VALUE: main:res11 <- 0.000000e+00
	#DEBUG_VALUE: main:res12 <- 0.000000e+00
	#DEBUG_VALUE: main:in <- 100000000
	#DEBUG_VALUE: main:n_times <- 0
	#DEBUG_VALUE: main:n_warmup <- 0
	#DEBUG_VALUE: main:up <- [DW_OP_plus_uconst 48] [$rsp+0]
	#DEBUG_VALUE: main:v3 <- [DW_OP_plus_uconst 128] [$rsp+0]
	#DEBUG_VALUE: main:v1 <- [DW_OP_plus_uconst 120] [$rsp+0]
	#DEBUG_VALUE: main:v2 <- [DW_OP_plus_uconst 112] [$rsp+0]
	#DEBUG_VALUE: main:psi <- [DW_OP_plus_uconst 40] [$rsp+0]
	#DEBUG_VALUE: main:psi2 <- [DW_OP_plus_uconst 32] [$rsp+0]
	#DEBUG_VALUE: main:chi <- [DW_OP_plus_uconst 152] [$rsp+0]
	#DEBUG_VALUE: main:chi2 <- [DW_OP_plus_uconst 144] [$rsp+0]
	#DEBUG_VALUE: main:chi3 <- [DW_OP_plus_uconst 184] [$rsp+0]
	#DEBUG_VALUE: main:chi4 <- [DW_OP_plus_uconst 176] [$rsp+0]
	#DEBUG_VALUE: main:chi5 <- [DW_OP_plus_uconst 72] [$rsp+0]
	#DEBUG_VALUE: main:chi6 <- [DW_OP_plus_uconst 64] [$rsp+0]
	#DEBUG_VALUE: main:wt1 <- [DW_OP_plus_uconst 56] [$rsp+0]
	#DEBUG_VALUE: main:t1 <- [DW_OP_plus_uconst 88] [$rsp+0]
	leaq	(%r10,%rax), %rbx
	addq	$32, %rbx
	vaddsd	(%rbx), %xmm0, %xmm0
	vaddsd	8(%rbx), %xmm1, %xmm1
	vmovsd	%xmm0, (%rbx)
	vmovsd	%xmm1, 8(%rbx)
	vmovsd	128(%rcx), %xmm4                # xmm4 = mem[0],zero
	vmovsd	136(%rcx), %xmm5                # xmm5 = mem[0],zero
	vmovsd	32(%rsi), %xmm2                 # xmm2 = mem[0],zero
	vmovsd	40(%rsi), %xmm3                 # xmm3 = mem[0],zero
	vmulsd	%xmm2, %xmm4, %xmm0
	vmulsd	%xmm3, %xmm5, %xmm1
	vsubsd	%xmm1, %xmm0, %xmm0
	vmulsd	%xmm3, %xmm4, %xmm1
	vmulsd	%xmm2, %xmm5, %xmm6
	vaddsd	%xmm1, %xmm6, %xmm1
	vucomisd	%xmm0, %xmm0
	jp	.LBB0_137
.Ltmp458:
.LBB0_139:                              #   in Loop: Header=BB0_81 Depth=1
	#DEBUG_VALUE: main:n <- 5
	#DEBUG_VALUE: main:res1 <- 0.000000e+00
	#DEBUG_VALUE: main:res2 <- 0.000000e+00
	#DEBUG_VALUE: main:res3 <- 0.000000e+00
	#DEBUG_VALUE: main:res4 <- 0.000000e+00
	#DEBUG_VALUE: main:res5 <- 0.000000e+00
	#DEBUG_VALUE: main:res6 <- 0.000000e+00
	#DEBUG_VALUE: main:res7 <- 0.000000e+00
	#DEBUG_VALUE: main:res8 <- 0.000000e+00
	#DEBUG_VALUE: main:res9 <- 0.000000e+00
	#DEBUG_VALUE: main:res10 <- 0.000000e+00
	#DEBUG_VALUE: main:res11 <- 0.000000e+00
	#DEBUG_VALUE: main:res12 <- 0.000000e+00
	#DEBUG_VALUE: main:in <- 100000000
	#DEBUG_VALUE: main:n_times <- 0
	#DEBUG_VALUE: main:n_warmup <- 0
	#DEBUG_VALUE: main:up <- [DW_OP_plus_uconst 48] [$rsp+0]
	#DEBUG_VALUE: main:v3 <- [DW_OP_plus_uconst 128] [$rsp+0]
	#DEBUG_VALUE: main:v1 <- [DW_OP_plus_uconst 120] [$rsp+0]
	#DEBUG_VALUE: main:v2 <- [DW_OP_plus_uconst 112] [$rsp+0]
	#DEBUG_VALUE: main:psi <- [DW_OP_plus_uconst 40] [$rsp+0]
	#DEBUG_VALUE: main:psi2 <- [DW_OP_plus_uconst 32] [$rsp+0]
	#DEBUG_VALUE: main:chi <- [DW_OP_plus_uconst 152] [$rsp+0]
	#DEBUG_VALUE: main:chi2 <- [DW_OP_plus_uconst 144] [$rsp+0]
	#DEBUG_VALUE: main:chi3 <- [DW_OP_plus_uconst 184] [$rsp+0]
	#DEBUG_VALUE: main:chi4 <- [DW_OP_plus_uconst 176] [$rsp+0]
	#DEBUG_VALUE: main:chi5 <- [DW_OP_plus_uconst 72] [$rsp+0]
	#DEBUG_VALUE: main:chi6 <- [DW_OP_plus_uconst 64] [$rsp+0]
	#DEBUG_VALUE: main:wt1 <- [DW_OP_plus_uconst 56] [$rsp+0]
	#DEBUG_VALUE: main:t1 <- [DW_OP_plus_uconst 88] [$rsp+0]
	vaddsd	(%rbx), %xmm0, %xmm0
	vaddsd	8(%rbx), %xmm1, %xmm1
	vmovsd	%xmm0, (%rbx)
	vmovsd	%xmm1, 8(%rbx)
	.loc	0 277 3                         # avx_complex_vec_align_load.c:277:3
	#APP
	# LLVM-MCA-END
	#NO_APP
.Ltmp459:
	.loc	0 261 18                        # avx_complex_vec_align_load.c:261:18
	incq	%r9
.Ltmp460:
	#DEBUG_VALUE: main:i <- $r9
	.loc	0 261 2 is_stmt 0               # avx_complex_vec_align_load.c:261:2
	addq	$48, %rdi
	addq	$48, %rdx
	movq	104(%rsp), %rbx                 # 8-byte Reload
	addq	$48, %rbx
	addq	$48, %r14
	addq	$144, %r15
	addq	$144, %r12
.Ltmp461:
	.loc	0 261 12                        # avx_complex_vec_align_load.c:261:12
	cmpq	$100000000, %r9                 # imm = 0x5F5E100
.Ltmp462:
	.loc	0 261 2                         # avx_complex_vec_align_load.c:261:2
	jne	.LBB0_81
	jmp	.LBB0_140
.Ltmp463:
.LBB0_86:                               #   in Loop: Header=BB0_81 Depth=1
	#DEBUG_VALUE: main:n <- 5
	#DEBUG_VALUE: main:res1 <- 0.000000e+00
	#DEBUG_VALUE: main:res2 <- 0.000000e+00
	#DEBUG_VALUE: main:res3 <- 0.000000e+00
	#DEBUG_VALUE: main:res4 <- 0.000000e+00
	#DEBUG_VALUE: main:res5 <- 0.000000e+00
	#DEBUG_VALUE: main:res6 <- 0.000000e+00
	#DEBUG_VALUE: main:res7 <- 0.000000e+00
	#DEBUG_VALUE: main:res8 <- 0.000000e+00
	#DEBUG_VALUE: main:res9 <- 0.000000e+00
	#DEBUG_VALUE: main:res10 <- 0.000000e+00
	#DEBUG_VALUE: main:res11 <- 0.000000e+00
	#DEBUG_VALUE: main:res12 <- 0.000000e+00
	#DEBUG_VALUE: main:in <- 100000000
	#DEBUG_VALUE: main:n_times <- 0
	#DEBUG_VALUE: main:n_warmup <- 0
	#DEBUG_VALUE: main:up <- [DW_OP_plus_uconst 48] [$rsp+0]
	#DEBUG_VALUE: main:v3 <- [DW_OP_plus_uconst 128] [$rsp+0]
	#DEBUG_VALUE: main:v1 <- [DW_OP_plus_uconst 120] [$rsp+0]
	#DEBUG_VALUE: main:v2 <- [DW_OP_plus_uconst 112] [$rsp+0]
	#DEBUG_VALUE: main:psi <- [DW_OP_plus_uconst 40] [$rsp+0]
	#DEBUG_VALUE: main:psi2 <- [DW_OP_plus_uconst 32] [$rsp+0]
	#DEBUG_VALUE: main:chi <- [DW_OP_plus_uconst 152] [$rsp+0]
	#DEBUG_VALUE: main:chi2 <- [DW_OP_plus_uconst 144] [$rsp+0]
	#DEBUG_VALUE: main:chi3 <- [DW_OP_plus_uconst 184] [$rsp+0]
	#DEBUG_VALUE: main:chi4 <- [DW_OP_plus_uconst 176] [$rsp+0]
	#DEBUG_VALUE: main:chi5 <- [DW_OP_plus_uconst 72] [$rsp+0]
	#DEBUG_VALUE: main:chi6 <- [DW_OP_plus_uconst 64] [$rsp+0]
	#DEBUG_VALUE: main:i <- $r9
	#DEBUG_VALUE: main:wt1 <- [DW_OP_plus_uconst 56] [$rsp+0]
	#DEBUG_VALUE: main:t1 <- [DW_OP_plus_uconst 88] [$rsp+0]
	.loc	0 275 6 is_stmt 1               # avx_complex_vec_align_load.c:275:6
	vucomisd	%xmm1, %xmm1
	jnp	.LBB0_88
.Ltmp464:
# %bb.87:                               #   in Loop: Header=BB0_81 Depth=1
	#DEBUG_VALUE: main:n <- 5
	#DEBUG_VALUE: main:res1 <- 0.000000e+00
	#DEBUG_VALUE: main:res2 <- 0.000000e+00
	#DEBUG_VALUE: main:res3 <- 0.000000e+00
	#DEBUG_VALUE: main:res4 <- 0.000000e+00
	#DEBUG_VALUE: main:res5 <- 0.000000e+00
	#DEBUG_VALUE: main:res6 <- 0.000000e+00
	#DEBUG_VALUE: main:res7 <- 0.000000e+00
	#DEBUG_VALUE: main:res8 <- 0.000000e+00
	#DEBUG_VALUE: main:res9 <- 0.000000e+00
	#DEBUG_VALUE: main:res10 <- 0.000000e+00
	#DEBUG_VALUE: main:res11 <- 0.000000e+00
	#DEBUG_VALUE: main:res12 <- 0.000000e+00
	#DEBUG_VALUE: main:in <- 100000000
	#DEBUG_VALUE: main:n_times <- 0
	#DEBUG_VALUE: main:n_warmup <- 0
	#DEBUG_VALUE: main:up <- [DW_OP_plus_uconst 48] [$rsp+0]
	#DEBUG_VALUE: main:v3 <- [DW_OP_plus_uconst 128] [$rsp+0]
	#DEBUG_VALUE: main:v1 <- [DW_OP_plus_uconst 120] [$rsp+0]
	#DEBUG_VALUE: main:v2 <- [DW_OP_plus_uconst 112] [$rsp+0]
	#DEBUG_VALUE: main:psi <- [DW_OP_plus_uconst 40] [$rsp+0]
	#DEBUG_VALUE: main:psi2 <- [DW_OP_plus_uconst 32] [$rsp+0]
	#DEBUG_VALUE: main:chi <- [DW_OP_plus_uconst 152] [$rsp+0]
	#DEBUG_VALUE: main:chi2 <- [DW_OP_plus_uconst 144] [$rsp+0]
	#DEBUG_VALUE: main:chi3 <- [DW_OP_plus_uconst 184] [$rsp+0]
	#DEBUG_VALUE: main:chi4 <- [DW_OP_plus_uconst 176] [$rsp+0]
	#DEBUG_VALUE: main:chi5 <- [DW_OP_plus_uconst 72] [$rsp+0]
	#DEBUG_VALUE: main:chi6 <- [DW_OP_plus_uconst 64] [$rsp+0]
	#DEBUG_VALUE: main:i <- $r9
	#DEBUG_VALUE: main:wt1 <- [DW_OP_plus_uconst 56] [$rsp+0]
	#DEBUG_VALUE: main:t1 <- [DW_OP_plus_uconst 88] [$rsp+0]
	vmovapd	%xmm4, %xmm0
	vmovapd	%xmm5, %xmm1
	movq	%r9, %rbx
	#DEBUG_VALUE: main:i <- $r9
.Ltmp465:
	#DEBUG_VALUE: main:i <- $rbx
	.loc	0 0 6 is_stmt 0                 # avx_complex_vec_align_load.c:0:6
	movq	%rdi, 24(%rsp)                  # 8-byte Spill
	movq	%rdx, %r13
	.loc	0 275 6                         # avx_complex_vec_align_load.c:275:6
	callq	__muldc3
.Ltmp466:
	#DEBUG_VALUE: main:i <- $rbx
	.loc	0 0 6                           # avx_complex_vec_align_load.c:0:6
	movq	%r13, %rdx
	movq	24(%rsp), %rdi                  # 8-byte Reload
	movq	%rbx, %r9
	movq	64(%rsp), %r10                  # 8-byte Reload
.Ltmp467:
	#DEBUG_VALUE: main:chi6 <- $r10
	movq	72(%rsp), %r8                   # 8-byte Reload
.Ltmp468:
	#DEBUG_VALUE: main:chi5 <- $r8
	movq	32(%rsp), %rsi                  # 8-byte Reload
.Ltmp469:
	#DEBUG_VALUE: main:psi2 <- $rsi
	movq	40(%rsp), %r11                  # 8-byte Reload
.Ltmp470:
	#DEBUG_VALUE: main:psi <- $r11
	movq	48(%rsp), %rcx                  # 8-byte Reload
.Ltmp471:
	#DEBUG_VALUE: main:up <- $rcx
	jmp	.LBB0_88
.Ltmp472:
.LBB0_89:                               #   in Loop: Header=BB0_81 Depth=1
	#DEBUG_VALUE: main:n <- 5
	#DEBUG_VALUE: main:res1 <- 0.000000e+00
	#DEBUG_VALUE: main:res2 <- 0.000000e+00
	#DEBUG_VALUE: main:res3 <- 0.000000e+00
	#DEBUG_VALUE: main:res4 <- 0.000000e+00
	#DEBUG_VALUE: main:res5 <- 0.000000e+00
	#DEBUG_VALUE: main:res6 <- 0.000000e+00
	#DEBUG_VALUE: main:res7 <- 0.000000e+00
	#DEBUG_VALUE: main:res8 <- 0.000000e+00
	#DEBUG_VALUE: main:res9 <- 0.000000e+00
	#DEBUG_VALUE: main:res10 <- 0.000000e+00
	#DEBUG_VALUE: main:res11 <- 0.000000e+00
	#DEBUG_VALUE: main:res12 <- 0.000000e+00
	#DEBUG_VALUE: main:in <- 100000000
	#DEBUG_VALUE: main:n_times <- 0
	#DEBUG_VALUE: main:n_warmup <- 0
	#DEBUG_VALUE: main:up <- [DW_OP_plus_uconst 48] [$rsp+0]
	#DEBUG_VALUE: main:v3 <- [DW_OP_plus_uconst 128] [$rsp+0]
	#DEBUG_VALUE: main:v1 <- [DW_OP_plus_uconst 120] [$rsp+0]
	#DEBUG_VALUE: main:v2 <- [DW_OP_plus_uconst 112] [$rsp+0]
	#DEBUG_VALUE: main:psi <- [DW_OP_plus_uconst 40] [$rsp+0]
	#DEBUG_VALUE: main:psi2 <- [DW_OP_plus_uconst 32] [$rsp+0]
	#DEBUG_VALUE: main:chi <- [DW_OP_plus_uconst 152] [$rsp+0]
	#DEBUG_VALUE: main:chi2 <- [DW_OP_plus_uconst 144] [$rsp+0]
	#DEBUG_VALUE: main:chi3 <- [DW_OP_plus_uconst 184] [$rsp+0]
	#DEBUG_VALUE: main:chi4 <- [DW_OP_plus_uconst 176] [$rsp+0]
	#DEBUG_VALUE: main:chi5 <- [DW_OP_plus_uconst 72] [$rsp+0]
	#DEBUG_VALUE: main:chi6 <- [DW_OP_plus_uconst 64] [$rsp+0]
	#DEBUG_VALUE: main:wt1 <- [DW_OP_plus_uconst 56] [$rsp+0]
	#DEBUG_VALUE: main:t1 <- [DW_OP_plus_uconst 88] [$rsp+0]
	.loc	0 275 6                         # avx_complex_vec_align_load.c:275:6
	vucomisd	%xmm1, %xmm1
	jnp	.LBB0_91
.Ltmp473:
# %bb.90:                               #   in Loop: Header=BB0_81 Depth=1
	#DEBUG_VALUE: main:n <- 5
	#DEBUG_VALUE: main:res1 <- 0.000000e+00
	#DEBUG_VALUE: main:res2 <- 0.000000e+00
	#DEBUG_VALUE: main:res3 <- 0.000000e+00
	#DEBUG_VALUE: main:res4 <- 0.000000e+00
	#DEBUG_VALUE: main:res5 <- 0.000000e+00
	#DEBUG_VALUE: main:res6 <- 0.000000e+00
	#DEBUG_VALUE: main:res7 <- 0.000000e+00
	#DEBUG_VALUE: main:res8 <- 0.000000e+00
	#DEBUG_VALUE: main:res9 <- 0.000000e+00
	#DEBUG_VALUE: main:res10 <- 0.000000e+00
	#DEBUG_VALUE: main:res11 <- 0.000000e+00
	#DEBUG_VALUE: main:res12 <- 0.000000e+00
	#DEBUG_VALUE: main:in <- 100000000
	#DEBUG_VALUE: main:n_times <- 0
	#DEBUG_VALUE: main:n_warmup <- 0
	#DEBUG_VALUE: main:up <- [DW_OP_plus_uconst 48] [$rsp+0]
	#DEBUG_VALUE: main:v3 <- [DW_OP_plus_uconst 128] [$rsp+0]
	#DEBUG_VALUE: main:v1 <- [DW_OP_plus_uconst 120] [$rsp+0]
	#DEBUG_VALUE: main:v2 <- [DW_OP_plus_uconst 112] [$rsp+0]
	#DEBUG_VALUE: main:psi <- [DW_OP_plus_uconst 40] [$rsp+0]
	#DEBUG_VALUE: main:psi2 <- [DW_OP_plus_uconst 32] [$rsp+0]
	#DEBUG_VALUE: main:chi <- [DW_OP_plus_uconst 152] [$rsp+0]
	#DEBUG_VALUE: main:chi2 <- [DW_OP_plus_uconst 144] [$rsp+0]
	#DEBUG_VALUE: main:chi3 <- [DW_OP_plus_uconst 184] [$rsp+0]
	#DEBUG_VALUE: main:chi4 <- [DW_OP_plus_uconst 176] [$rsp+0]
	#DEBUG_VALUE: main:chi5 <- [DW_OP_plus_uconst 72] [$rsp+0]
	#DEBUG_VALUE: main:chi6 <- [DW_OP_plus_uconst 64] [$rsp+0]
	#DEBUG_VALUE: main:wt1 <- [DW_OP_plus_uconst 56] [$rsp+0]
	#DEBUG_VALUE: main:t1 <- [DW_OP_plus_uconst 88] [$rsp+0]
	vmovapd	%xmm4, %xmm0
	vmovapd	%xmm5, %xmm1
	movq	%r9, %rbx
	movq	%rdi, 24(%rsp)                  # 8-byte Spill
	movq	%rdx, 96(%rsp)                  # 8-byte Spill
	movq	%rax, 80(%rsp)                  # 8-byte Spill
	callq	__muldc3
.Ltmp474:
	.loc	0 0 6                           # avx_complex_vec_align_load.c:0:6
	movq	80(%rsp), %rax                  # 8-byte Reload
	movq	96(%rsp), %rdx                  # 8-byte Reload
	movq	24(%rsp), %rdi                  # 8-byte Reload
	movq	%rbx, %r9
	movq	64(%rsp), %r10                  # 8-byte Reload
.Ltmp475:
	#DEBUG_VALUE: main:chi6 <- $r10
	movq	72(%rsp), %r8                   # 8-byte Reload
.Ltmp476:
	#DEBUG_VALUE: main:chi5 <- $r8
	movq	32(%rsp), %rsi                  # 8-byte Reload
.Ltmp477:
	#DEBUG_VALUE: main:psi2 <- $rsi
	movq	40(%rsp), %r11                  # 8-byte Reload
.Ltmp478:
	#DEBUG_VALUE: main:psi <- $r11
	movq	48(%rsp), %rcx                  # 8-byte Reload
.Ltmp479:
	#DEBUG_VALUE: main:up <- $rcx
	jmp	.LBB0_91
.Ltmp480:
.LBB0_92:                               #   in Loop: Header=BB0_81 Depth=1
	#DEBUG_VALUE: main:n <- 5
	#DEBUG_VALUE: main:res1 <- 0.000000e+00
	#DEBUG_VALUE: main:res2 <- 0.000000e+00
	#DEBUG_VALUE: main:res3 <- 0.000000e+00
	#DEBUG_VALUE: main:res4 <- 0.000000e+00
	#DEBUG_VALUE: main:res5 <- 0.000000e+00
	#DEBUG_VALUE: main:res6 <- 0.000000e+00
	#DEBUG_VALUE: main:res7 <- 0.000000e+00
	#DEBUG_VALUE: main:res8 <- 0.000000e+00
	#DEBUG_VALUE: main:res9 <- 0.000000e+00
	#DEBUG_VALUE: main:res10 <- 0.000000e+00
	#DEBUG_VALUE: main:res11 <- 0.000000e+00
	#DEBUG_VALUE: main:res12 <- 0.000000e+00
	#DEBUG_VALUE: main:in <- 100000000
	#DEBUG_VALUE: main:n_times <- 0
	#DEBUG_VALUE: main:n_warmup <- 0
	#DEBUG_VALUE: main:up <- [DW_OP_plus_uconst 48] [$rsp+0]
	#DEBUG_VALUE: main:v3 <- [DW_OP_plus_uconst 128] [$rsp+0]
	#DEBUG_VALUE: main:v1 <- [DW_OP_plus_uconst 120] [$rsp+0]
	#DEBUG_VALUE: main:v2 <- [DW_OP_plus_uconst 112] [$rsp+0]
	#DEBUG_VALUE: main:psi <- [DW_OP_plus_uconst 40] [$rsp+0]
	#DEBUG_VALUE: main:psi2 <- [DW_OP_plus_uconst 32] [$rsp+0]
	#DEBUG_VALUE: main:chi <- [DW_OP_plus_uconst 152] [$rsp+0]
	#DEBUG_VALUE: main:chi2 <- [DW_OP_plus_uconst 144] [$rsp+0]
	#DEBUG_VALUE: main:chi3 <- [DW_OP_plus_uconst 184] [$rsp+0]
	#DEBUG_VALUE: main:chi4 <- [DW_OP_plus_uconst 176] [$rsp+0]
	#DEBUG_VALUE: main:chi5 <- [DW_OP_plus_uconst 72] [$rsp+0]
	#DEBUG_VALUE: main:chi6 <- [DW_OP_plus_uconst 64] [$rsp+0]
	#DEBUG_VALUE: main:wt1 <- [DW_OP_plus_uconst 56] [$rsp+0]
	#DEBUG_VALUE: main:t1 <- [DW_OP_plus_uconst 88] [$rsp+0]
	.loc	0 275 6                         # avx_complex_vec_align_load.c:275:6
	vucomisd	%xmm1, %xmm1
	jnp	.LBB0_94
.Ltmp481:
# %bb.93:                               #   in Loop: Header=BB0_81 Depth=1
	#DEBUG_VALUE: main:n <- 5
	#DEBUG_VALUE: main:res1 <- 0.000000e+00
	#DEBUG_VALUE: main:res2 <- 0.000000e+00
	#DEBUG_VALUE: main:res3 <- 0.000000e+00
	#DEBUG_VALUE: main:res4 <- 0.000000e+00
	#DEBUG_VALUE: main:res5 <- 0.000000e+00
	#DEBUG_VALUE: main:res6 <- 0.000000e+00
	#DEBUG_VALUE: main:res7 <- 0.000000e+00
	#DEBUG_VALUE: main:res8 <- 0.000000e+00
	#DEBUG_VALUE: main:res9 <- 0.000000e+00
	#DEBUG_VALUE: main:res10 <- 0.000000e+00
	#DEBUG_VALUE: main:res11 <- 0.000000e+00
	#DEBUG_VALUE: main:res12 <- 0.000000e+00
	#DEBUG_VALUE: main:in <- 100000000
	#DEBUG_VALUE: main:n_times <- 0
	#DEBUG_VALUE: main:n_warmup <- 0
	#DEBUG_VALUE: main:up <- [DW_OP_plus_uconst 48] [$rsp+0]
	#DEBUG_VALUE: main:v3 <- [DW_OP_plus_uconst 128] [$rsp+0]
	#DEBUG_VALUE: main:v1 <- [DW_OP_plus_uconst 120] [$rsp+0]
	#DEBUG_VALUE: main:v2 <- [DW_OP_plus_uconst 112] [$rsp+0]
	#DEBUG_VALUE: main:psi <- [DW_OP_plus_uconst 40] [$rsp+0]
	#DEBUG_VALUE: main:psi2 <- [DW_OP_plus_uconst 32] [$rsp+0]
	#DEBUG_VALUE: main:chi <- [DW_OP_plus_uconst 152] [$rsp+0]
	#DEBUG_VALUE: main:chi2 <- [DW_OP_plus_uconst 144] [$rsp+0]
	#DEBUG_VALUE: main:chi3 <- [DW_OP_plus_uconst 184] [$rsp+0]
	#DEBUG_VALUE: main:chi4 <- [DW_OP_plus_uconst 176] [$rsp+0]
	#DEBUG_VALUE: main:chi5 <- [DW_OP_plus_uconst 72] [$rsp+0]
	#DEBUG_VALUE: main:chi6 <- [DW_OP_plus_uconst 64] [$rsp+0]
	#DEBUG_VALUE: main:wt1 <- [DW_OP_plus_uconst 56] [$rsp+0]
	#DEBUG_VALUE: main:t1 <- [DW_OP_plus_uconst 88] [$rsp+0]
	vmovapd	%xmm4, %xmm0
	vmovapd	%xmm5, %xmm1
	movq	%r9, 136(%rsp)                  # 8-byte Spill
	movq	%rdi, 24(%rsp)                  # 8-byte Spill
	movq	%rdx, 96(%rsp)                  # 8-byte Spill
	movq	%rax, 80(%rsp)                  # 8-byte Spill
	callq	__muldc3
.Ltmp482:
	.loc	0 0 6                           # avx_complex_vec_align_load.c:0:6
	movq	80(%rsp), %rax                  # 8-byte Reload
	movq	96(%rsp), %rdx                  # 8-byte Reload
	movq	24(%rsp), %rdi                  # 8-byte Reload
	movq	136(%rsp), %r9                  # 8-byte Reload
	movq	64(%rsp), %r10                  # 8-byte Reload
.Ltmp483:
	#DEBUG_VALUE: main:chi6 <- $r10
	movq	72(%rsp), %r8                   # 8-byte Reload
.Ltmp484:
	#DEBUG_VALUE: main:chi5 <- $r8
	movq	32(%rsp), %rsi                  # 8-byte Reload
.Ltmp485:
	#DEBUG_VALUE: main:psi2 <- $rsi
	movq	40(%rsp), %r11                  # 8-byte Reload
.Ltmp486:
	#DEBUG_VALUE: main:psi <- $r11
	movq	48(%rsp), %rcx                  # 8-byte Reload
.Ltmp487:
	#DEBUG_VALUE: main:up <- $rcx
	jmp	.LBB0_94
.Ltmp488:
.LBB0_95:                               #   in Loop: Header=BB0_81 Depth=1
	#DEBUG_VALUE: main:n <- 5
	#DEBUG_VALUE: main:res1 <- 0.000000e+00
	#DEBUG_VALUE: main:res2 <- 0.000000e+00
	#DEBUG_VALUE: main:res3 <- 0.000000e+00
	#DEBUG_VALUE: main:res4 <- 0.000000e+00
	#DEBUG_VALUE: main:res5 <- 0.000000e+00
	#DEBUG_VALUE: main:res6 <- 0.000000e+00
	#DEBUG_VALUE: main:res7 <- 0.000000e+00
	#DEBUG_VALUE: main:res8 <- 0.000000e+00
	#DEBUG_VALUE: main:res9 <- 0.000000e+00
	#DEBUG_VALUE: main:res10 <- 0.000000e+00
	#DEBUG_VALUE: main:res11 <- 0.000000e+00
	#DEBUG_VALUE: main:res12 <- 0.000000e+00
	#DEBUG_VALUE: main:in <- 100000000
	#DEBUG_VALUE: main:n_times <- 0
	#DEBUG_VALUE: main:n_warmup <- 0
	#DEBUG_VALUE: main:up <- [DW_OP_plus_uconst 48] [$rsp+0]
	#DEBUG_VALUE: main:v3 <- [DW_OP_plus_uconst 128] [$rsp+0]
	#DEBUG_VALUE: main:v1 <- [DW_OP_plus_uconst 120] [$rsp+0]
	#DEBUG_VALUE: main:v2 <- [DW_OP_plus_uconst 112] [$rsp+0]
	#DEBUG_VALUE: main:psi <- [DW_OP_plus_uconst 40] [$rsp+0]
	#DEBUG_VALUE: main:psi2 <- [DW_OP_plus_uconst 32] [$rsp+0]
	#DEBUG_VALUE: main:chi <- [DW_OP_plus_uconst 152] [$rsp+0]
	#DEBUG_VALUE: main:chi2 <- [DW_OP_plus_uconst 144] [$rsp+0]
	#DEBUG_VALUE: main:chi3 <- [DW_OP_plus_uconst 184] [$rsp+0]
	#DEBUG_VALUE: main:chi4 <- [DW_OP_plus_uconst 176] [$rsp+0]
	#DEBUG_VALUE: main:chi5 <- [DW_OP_plus_uconst 72] [$rsp+0]
	#DEBUG_VALUE: main:chi6 <- [DW_OP_plus_uconst 64] [$rsp+0]
	#DEBUG_VALUE: main:wt1 <- [DW_OP_plus_uconst 56] [$rsp+0]
	#DEBUG_VALUE: main:t1 <- [DW_OP_plus_uconst 88] [$rsp+0]
	.loc	0 275 6                         # avx_complex_vec_align_load.c:275:6
	vucomisd	%xmm1, %xmm1
	jnp	.LBB0_97
.Ltmp489:
# %bb.96:                               #   in Loop: Header=BB0_81 Depth=1
	#DEBUG_VALUE: main:n <- 5
	#DEBUG_VALUE: main:res1 <- 0.000000e+00
	#DEBUG_VALUE: main:res2 <- 0.000000e+00
	#DEBUG_VALUE: main:res3 <- 0.000000e+00
	#DEBUG_VALUE: main:res4 <- 0.000000e+00
	#DEBUG_VALUE: main:res5 <- 0.000000e+00
	#DEBUG_VALUE: main:res6 <- 0.000000e+00
	#DEBUG_VALUE: main:res7 <- 0.000000e+00
	#DEBUG_VALUE: main:res8 <- 0.000000e+00
	#DEBUG_VALUE: main:res9 <- 0.000000e+00
	#DEBUG_VALUE: main:res10 <- 0.000000e+00
	#DEBUG_VALUE: main:res11 <- 0.000000e+00
	#DEBUG_VALUE: main:res12 <- 0.000000e+00
	#DEBUG_VALUE: main:in <- 100000000
	#DEBUG_VALUE: main:n_times <- 0
	#DEBUG_VALUE: main:n_warmup <- 0
	#DEBUG_VALUE: main:up <- [DW_OP_plus_uconst 48] [$rsp+0]
	#DEBUG_VALUE: main:v3 <- [DW_OP_plus_uconst 128] [$rsp+0]
	#DEBUG_VALUE: main:v1 <- [DW_OP_plus_uconst 120] [$rsp+0]
	#DEBUG_VALUE: main:v2 <- [DW_OP_plus_uconst 112] [$rsp+0]
	#DEBUG_VALUE: main:psi <- [DW_OP_plus_uconst 40] [$rsp+0]
	#DEBUG_VALUE: main:psi2 <- [DW_OP_plus_uconst 32] [$rsp+0]
	#DEBUG_VALUE: main:chi <- [DW_OP_plus_uconst 152] [$rsp+0]
	#DEBUG_VALUE: main:chi2 <- [DW_OP_plus_uconst 144] [$rsp+0]
	#DEBUG_VALUE: main:chi3 <- [DW_OP_plus_uconst 184] [$rsp+0]
	#DEBUG_VALUE: main:chi4 <- [DW_OP_plus_uconst 176] [$rsp+0]
	#DEBUG_VALUE: main:chi5 <- [DW_OP_plus_uconst 72] [$rsp+0]
	#DEBUG_VALUE: main:chi6 <- [DW_OP_plus_uconst 64] [$rsp+0]
	#DEBUG_VALUE: main:wt1 <- [DW_OP_plus_uconst 56] [$rsp+0]
	#DEBUG_VALUE: main:t1 <- [DW_OP_plus_uconst 88] [$rsp+0]
	vmovapd	%xmm4, %xmm0
	vmovapd	%xmm5, %xmm1
	movq	%r9, %rbx
	movq	%rdi, 24(%rsp)                  # 8-byte Spill
	movq	%rdx, %r13
	movq	%rax, 80(%rsp)                  # 8-byte Spill
	callq	__muldc3
.Ltmp490:
	.loc	0 0 6                           # avx_complex_vec_align_load.c:0:6
	movq	80(%rsp), %rax                  # 8-byte Reload
	movq	%r13, %rdx
	movq	24(%rsp), %rdi                  # 8-byte Reload
	movq	%rbx, %r9
	movq	64(%rsp), %r10                  # 8-byte Reload
.Ltmp491:
	#DEBUG_VALUE: main:chi6 <- $r10
	movq	72(%rsp), %r8                   # 8-byte Reload
.Ltmp492:
	#DEBUG_VALUE: main:chi5 <- $r8
	movq	32(%rsp), %rsi                  # 8-byte Reload
.Ltmp493:
	#DEBUG_VALUE: main:psi2 <- $rsi
	movq	40(%rsp), %r11                  # 8-byte Reload
.Ltmp494:
	#DEBUG_VALUE: main:psi <- $r11
	movq	48(%rsp), %rcx                  # 8-byte Reload
.Ltmp495:
	#DEBUG_VALUE: main:up <- $rcx
	jmp	.LBB0_97
.Ltmp496:
.LBB0_98:                               #   in Loop: Header=BB0_81 Depth=1
	#DEBUG_VALUE: main:n <- 5
