	.file	"avx_complex_vec_align_load.c"
	.text
.Ltext0:
	.file 1 "avx_complex_vec_align_load.c"
	.section	.rodata.str1.8,"aMS",@progbits,1
	.align 8
.LC0:
	.string	"WARNING: Could not set CPU Affinity, continuing..."
	.align 8
.LC2:
	.string	"CPU time (clock)                = %12.4g sec\n"
	.section	.rodata.str1.1,"aMS",@progbits,1
.LC3:
	.string	"MVM_MACRO"
	.section	.rodata.str1.8
	.align 8
.LC4:
	.string	"wall clock time (omp_get_wtime) = %12.4g sec\n"
	.align 8
.LC6:
	.string	"wall clock time (gettimeofday)  = %12.4g sec\n\n"
	.section	.rodata.str1.1
.LC7:
	.string	"THETA_T_MULTIPLY"
	.section	.rodata.str1.8
	.align 8
.LC10:
	.string	" are not equal ==> Test Failed!"
	.align 8
.LC11:
	.string	"First Vector in double_MVM_macro and theta_T_multiply"
	.align 8
.LC12:
	.string	" are not equal ==>Test Failed!"
	.align 8
.LC13:
	.string	"Second Vector in double_MVM_macro and theta_T_multiply"
	.section	.text.startup,"ax",@progbits
	.p2align 4
	.globl	main
	.type	main, @function
main:
.LFB6408:
	.loc 1 99 1
	.cfi_startproc
	.loc 1 100 2
	.loc 1 101 2
.LVL0:
	.loc 1 102 2
	.loc 1 103 2
	.loc 1 104 2
	.loc 1 105 2
	.loc 1 106 2
	.loc 1 109 1
	.loc 1 110 1
	.loc 1 112 5
	.loc 1 117 1
	.loc 1 118 1
	.loc 1 118 1
	.loc 1 99 1 is_stmt 0
	leaq	8(%rsp), %r10
	.cfi_def_cfa 10, 0
	andq	$-32, %rsp
	.loc 1 118 1
	xorl	%eax, %eax
	movl	$15, %ecx
	.loc 1 99 1
	pushq	-8(%r10)
	.loc 1 120 4
	movl	$128, %esi
	.loc 1 99 1
	pushq	%rbp
	movq	%rsp, %rbp
	.cfi_escape 0x10,0x6,0x2,0x76,0
	pushq	%r15
	pushq	%r14
	.loc 1 118 1
	leaq	-168(%rbp), %rdx
	.loc 1 99 1
	pushq	%r13
	.loc 1 118 1
	movq	%rdx, %rdi
	.loc 1 120 4
	leaq	-176(%rbp), %rdx
	.loc 1 99 1
	pushq	%r12
	pushq	%r10
	.cfi_escape 0xf,0x3,0x76,0x58,0x6
	.cfi_escape 0x10,0xf,0x2,0x76,0x78
	.cfi_escape 0x10,0xe,0x2,0x76,0x70
	.cfi_escape 0x10,0xd,0x2,0x76,0x68
	.cfi_escape 0x10,0xc,0x2,0x76,0x60
	pushq	%rbx
	subq	$1088, %rsp
	.cfi_escape 0x10,0x3,0x2,0x76,0x50
.LBB441:
	.loc 1 119 1
	movq	$1, -176(%rbp)
.LBE441:
	.loc 1 118 1
	rep stosq
	.loc 1 118 1 is_stmt 1
	.loc 1 119 1
.LBB442:
	.loc 1 119 1
.LVL1:
	.loc 1 119 1
.LBE442:
	.loc 1 120 1
	.loc 1 120 4 is_stmt 0
	xorl	%edi, %edi
	call	sched_setaffinity
.LVL2:
	.loc 1 120 3
	cmpl	$-1, %eax
	je	.L66
.L2:
	.loc 1 123 2 is_stmt 1
	.loc 1 124 2
	.loc 1 127 3
	.loc 1 127 8 is_stmt 0
	movabsq	$14400000000, %rbx
	movl	$8, %esi
	movq	%rbx, %rdi
	call	amalloc
.LVL3:
	.loc 1 128 8
	movq	%rbx, %rdi
	movl	$8, %esi
	.loc 1 130 8
	movabsq	$4800000000, %rbx
	.loc 1 127 8
	movq	%rax, %r12
.LVL4:
	.loc 1 128 3 is_stmt 1
	.loc 1 128 8 is_stmt 0
	call	amalloc
.LVL5:
	.loc 1 130 8
	movq	%rbx, %rdi
	movl	$8, %esi
	.loc 1 128 8
	movq	%rax, %r14
	movq	%rax, -384(%rbp)
.LVL6:
	.loc 1 130 3 is_stmt 1
	.loc 1 130 8 is_stmt 0
	call	amalloc
.LVL7:
	.loc 1 131 8
	movq	%rbx, %rdi
	movl	$8, %esi
	.loc 1 130 8
	movq	%rax, %r13
	movq	%rax, -808(%rbp)
.LVL8:
	.loc 1 131 3 is_stmt 1
	.loc 1 131 8 is_stmt 0
	call	amalloc
.LVL9:
	.loc 1 132 9
	movq	%rbx, %rdi
	movl	$8, %esi
	.loc 1 131 8
	movq	%rax, %r15
	movq	%rax, -816(%rbp)
.LVL10:
	.loc 1 132 3 is_stmt 1
	.loc 1 132 9 is_stmt 0
	call	amalloc
.LVL11:
	.loc 1 133 10
	movq	%rbx, %rdi
	movl	$8, %esi
	.loc 1 132 9
	movq	%rax, -256(%rbp)
.LVL12:
	.loc 1 133 3 is_stmt 1
	.loc 1 133 10 is_stmt 0
	call	amalloc
.LVL13:
	.loc 1 134 9
	movq	%rbx, %rdi
	movl	$8, %esi
	.loc 1 133 10
	movq	%rax, -272(%rbp)
.LVL14:
	.loc 1 134 3 is_stmt 1
	.loc 1 134 9 is_stmt 0
	call	amalloc
.LVL15:
	.loc 1 135 10
	movq	%rbx, %rdi
	movl	$8, %esi
	.loc 1 134 9
	movq	%rax, -360(%rbp)
.LVL16:
	.loc 1 135 3 is_stmt 1
	.loc 1 135 10 is_stmt 0
	call	amalloc
.LVL17:
	.loc 1 136 10
	movq	%rbx, %rdi
	movl	$8, %esi
	.loc 1 135 10
	movq	%rax, -368(%rbp)
.LVL18:
	.loc 1 136 3 is_stmt 1
	.loc 1 136 10 is_stmt 0
	call	amalloc
.LVL19:
	.loc 1 137 10
	movq	%rbx, %rdi
	movl	$8, %esi
	.loc 1 136 10
	movq	%rax, -824(%rbp)
.LVL20:
	.loc 1 137 3 is_stmt 1
	.loc 1 137 10 is_stmt 0
	call	amalloc
.LVL21:
	.loc 1 138 10
	movq	%rbx, %rdi
	movl	$8, %esi
	.loc 1 137 10
	movq	%rax, -832(%rbp)
.LVL22:
	.loc 1 138 3 is_stmt 1
	.loc 1 138 10 is_stmt 0
	call	amalloc
.LVL23:
	.loc 1 139 10
	movq	%rbx, %rdi
	movl	$8, %esi
	leaq	144(%r14), %rbx
	.loc 1 138 10
	movq	%rax, -376(%rbp)
.LVL24:
	.loc 1 139 3 is_stmt 1
	.loc 1 139 10 is_stmt 0
	call	amalloc
.LVL25:
	.loc 1 141 3 is_stmt 1
	.loc 1 142 3
	.loc 1 151 3
	.loc 1 151 13
	movq	%r14, %rdx
	movq	%r14, -672(%rbp)
	movq	%r15, %r14
.LVL26:
	movq	%r12, -240(%rbp)
	movabsq	$14400000144, %r15
.LVL27:
	movq	%rax, -288(%rbp)
	addq	%rdx, %r15
	movq	%r14, -304(%rbp)
	movq	%r13, -320(%rbp)
.LVL28:
	.p2align 4,,10
	.p2align 3
.L3:
	.loc 1 153 15
	.loc 1 156 10 is_stmt 0
	xorl	%r12d, %r12d
.LVL29:
.L4:
	.loc 1 155 7 is_stmt 1 discriminator 3
	.loc 1 155 22 is_stmt 0 discriminator 3
	movl	$5, %edi
	call	my_rand
.LVL30:
	.loc 1 156 22 discriminator 3
	movl	$5, %edi
	.loc 1 155 20 discriminator 3
	vunpcklpd	%xmm1, %xmm0, %xmm1
	vmovupd	%xmm1, 0(%r13,%r12)
	.loc 1 156 7 is_stmt 1 discriminator 3
	.loc 1 156 22 is_stmt 0 discriminator 3
	call	my_rand
.LVL31:
	.loc 1 156 20 discriminator 3
	vunpcklpd	%xmm1, %xmm0, %xmm1
	vmovupd	%xmm1, (%r14,%r12)
	.loc 1 153 20 is_stmt 1 discriminator 3
.LVL32:
	.loc 1 153 15 discriminator 3
	addq	$16, %r12
.LVL33:
	cmpq	$48, %r12
	jne	.L4
	leaq	-144(%rbx), %r12
.LVL34:
	.p2align 4,,10
	.p2align 3
.L5:
	.loc 1 161 7 discriminator 3
	.loc 1 161 22 is_stmt 0 discriminator 3
	movl	$5, %edi
	.loc 1 159 15 discriminator 3
	addq	$16, %r12
.LVL35:
	.loc 1 161 22 discriminator 3
	call	my_rand
.LVL36:
	.loc 1 161 20 discriminator 3
	vunpcklpd	%xmm1, %xmm0, %xmm1
	vmovupd	%xmm1, -16(%r12)
	.loc 1 159 20 is_stmt 1 discriminator 3
.LVL37:
	.loc 1 159 15 discriminator 3
	cmpq	%rbx, %r12
	jne	.L5
	.loc 1 151 19 discriminator 2
.LVL38:
	.loc 1 151 13 discriminator 2
	leaq	144(%r12), %rbx
	addq	$48, %r13
	addq	$48, %r14
	cmpq	%r15, %rbx
	jne	.L3
	movq	-240(%rbp), %r12
.LVL39:
	movq	-256(%rbp), %rcx
	.loc 1 151 13 is_stmt 0
	xorl	%eax, %eax
	.loc 1 172 11
	movabsq	$4800000000, %r13
	movq	-272(%rbp), %r8
	movq	-288(%rbp), %r9
	movq	%r12, -880(%rbp)
	movq	-304(%rbp), %r10
	.loc 1 151 13
	movq	%r12, %rbx
.LVL40:
	movq	-320(%rbp), %r11
	movq	-384(%rbp), %rdi
	movq	-816(%rbp), %rsi
	movq	-808(%rbp), %rdx
	.loc 1 172 11
	movq	-360(%rbp), %r14
	movq	-368(%rbp), %r15
.LVL41:
	.p2align 4,,10
	.p2align 3
.L7:
	.loc 1 174 15 is_stmt 1
	.loc 1 176 7
	vmovsd	(%rdx), %xmm1
	vmovsd	8(%rdx), %xmm0
	.loc 1 172 11 is_stmt 0
	addq	$48, %rsi
	addq	$48, %rdx
	addq	$144, %rdi
	addq	$144, %rbx
	.loc 1 176 21
	vmovsd	%xmm1, (%rcx,%rax)
	vmovsd	%xmm0, 8(%rcx,%rax)
	.loc 1 177 7 is_stmt 1
	vmovsd	-48(%rsi), %xmm1
	vmovsd	-40(%rsi), %xmm0
	.loc 1 177 22 is_stmt 0
	vmovsd	%xmm1, (%r8,%rax)
	vmovsd	%xmm0, 8(%r8,%rax)
	.loc 1 174 20 is_stmt 1
.LVL42:
	.loc 1 174 15
	.loc 1 176 7
	vmovsd	-32(%rdx), %xmm1
	vmovsd	-24(%rdx), %xmm0
	.loc 1 176 21 is_stmt 0
	vmovsd	%xmm1, 16(%rcx,%rax)
	vmovsd	%xmm0, 24(%rcx,%rax)
	.loc 1 177 7 is_stmt 1
	vmovsd	-32(%rsi), %xmm1
	vmovsd	-24(%rsi), %xmm0
	.loc 1 177 22 is_stmt 0
	vmovsd	%xmm1, 16(%r8,%rax)
	vmovsd	%xmm0, 24(%r8,%rax)
	.loc 1 174 20 is_stmt 1
.LVL43:
	.loc 1 174 15
	.loc 1 176 7
	.loc 1 176 21 is_stmt 0
	vmovupd	-16(%rdx), %xmm6
	vmovupd	%xmm6, 32(%rcx,%rax)
	.loc 1 177 7 is_stmt 1
	.loc 1 177 22 is_stmt 0
	vmovupd	-16(%rsi), %xmm7
	vmovupd	%xmm7, 32(%r8,%rax)
	.loc 1 174 20 is_stmt 1
.LVL44:
	.loc 1 174 15
	.loc 1 180 15
	.loc 1 182 7
	vmovupd	-112(%rdi), %ymm2
	vmovupd	-80(%rdi), %ymm1
	vmovupd	-48(%rdi), %ymm0
	.loc 1 180 20
.LVL45:
	.loc 1 180 15
	.loc 1 182 7
	.loc 1 180 20
	.loc 1 180 15
	.loc 1 182 7
	.loc 1 180 20
	.loc 1 180 15
	.loc 1 182 7
	.loc 1 180 20
	.loc 1 180 15
	.loc 1 182 7
	.loc 1 180 20
	.loc 1 180 15
	.loc 1 182 7
	.loc 1 180 20
	.loc 1 180 15
	.loc 1 182 7
	.loc 1 180 20
	.loc 1 180 15
	.loc 1 182 7
	.loc 1 182 20 is_stmt 0
	vmovupd	-144(%rdi), %ymm5
	vmovupd	%ymm2, -112(%rbx)
	vmovupd	%ymm5, -144(%rbx)
	vmovupd	%ymm1, -80(%rbx)
	vmovupd	%ymm0, -48(%rbx)
	.loc 1 180 20 is_stmt 1
.LVL46:
	.loc 1 180 15
	.loc 1 182 7
	.loc 1 182 20 is_stmt 0
	vmovupd	-16(%rdi), %xmm6
	vmovupd	%xmm6, -16(%rbx)
	.loc 1 180 20 is_stmt 1
.LVL47:
	.loc 1 180 15
	.loc 1 185 5
.LBB443:
.LBB444:
	.file 2 "/home/mrahman/spack/opt/spack/linux-centos7-haswell/gcc-4.8.5/gcc-12.1.0-rfwstyfbaftyze73vaufakvxclc3eqpm/lib/gcc/x86_64-pc-linux-gnu/12.1.0/include/avxintrin.h"
	.loc 2 869 3
.LBE444:
.LBE443:
	.loc 1 185 5
.LBB445:
.LBB446:
	.loc 2 339 3
	.loc 2 339 20 is_stmt 0
	vpermilpd	$0, (%r12), %ymm14
.LVL48:
.LBE446:
.LBE445:
	.loc 1 185 5 is_stmt 1
.LBB447:
.LBB448:
	.loc 2 339 3
	.loc 2 339 20 is_stmt 0
	vpermilpd	$15, (%r12), %ymm0
.LVL49:
.LBE448:
.LBE447:
	.loc 1 185 5 is_stmt 1
.LBB449:
.LBB450:
	.loc 2 893 3
.LBE450:
.LBE449:
	.loc 1 185 5
.LBB451:
.LBB452:
	.loc 2 339 3
	.loc 2 339 20 is_stmt 0
	vpermilpd	$0, 48(%r12), %ymm13
.LVL50:
.LBE452:
.LBE451:
	.loc 1 185 5 is_stmt 1
.LBB453:
.LBB454:
	.loc 2 339 3
.LBE454:
.LBE453:
.LBB456:
.LBB457:
	.loc 2 869 10 is_stmt 0
	vmovapd	(%rcx), %ymm1
.LBE457:
.LBE456:
.LBB459:
.LBB455:
	.loc 2 339 20
	vpermilpd	$15, 48(%r12), %ymm4
.LVL51:
.LBE455:
.LBE459:
	.loc 1 185 5 is_stmt 1
.LBB460:
.LBB461:
	.loc 2 869 3
.LBE461:
.LBE460:
	.loc 1 185 5
.LBB462:
.LBB463:
	.loc 2 339 3
.LBE463:
.LBE462:
.LBB465:
.LBB466:
	.loc 2 339 20 is_stmt 0
	vpermilpd	$15, 96(%r12), %ymm6
.LBE466:
.LBE465:
.LBB468:
.LBB469:
	vpermilpd	$5, %ymm1, %ymm10
.LBE469:
.LBE468:
.LBB471:
.LBB472:
	.loc 2 690 20
	vmovupd	16(%r12), %ymm5
.LBE472:
.LBE471:
.LBB474:
.LBB475:
	.loc 2 339 20
	vpermilpd	$5, (%r8), %ymm11
.LBE475:
.LBE474:
.LBB477:
.LBB478:
	.loc 2 314 10
	vmulpd	%ymm10, %ymm0, %ymm3
.LBE478:
.LBE477:
.LBB480:
.LBB464:
	.loc 2 339 20
	vpermilpd	$0, 96(%r12), %ymm9
.LVL52:
.LBE464:
.LBE480:
	.loc 1 185 5 is_stmt 1
.LBB481:
.LBB467:
	.loc 2 339 3
.LBE467:
.LBE481:
	.loc 1 185 5
.LBB482:
.LBB458:
	.loc 2 869 3
.LBE458:
.LBE482:
	.loc 1 185 5
.LBB483:
.LBB470:
	.loc 2 339 3
.LBE470:
.LBE483:
	.loc 1 185 5
.LBB484:
.LBB485:
	.loc 2 869 3
.LBE485:
.LBE484:
	.loc 1 185 5
.LBB486:
.LBB476:
	.loc 2 339 3
.LBE476:
.LBE486:
	.loc 1 185 5
.LBB487:
.LBB479:
	.loc 2 314 3
.LBE479:
.LBE487:
	.loc 1 185 5
.LBB488:
.LBB489:
	.file 3 "/home/mrahman/spack/opt/spack/linux-centos7-haswell/gcc-4.8.5/gcc-12.1.0-rfwstyfbaftyze73vaufakvxclc3eqpm/lib/gcc/x86_64-pc-linux-gnu/12.1.0/include/fmaintrin.h"
	.loc 3 241 3
.LBE489:
.LBE488:
.LBB491:
.LBB492:
	.loc 2 314 10 is_stmt 0
	vmulpd	%ymm10, %ymm4, %ymm2
.LBE492:
.LBE491:
.LBB494:
.LBB495:
	vmulpd	%ymm10, %ymm6, %ymm10
.LVL53:
.LBE495:
.LBE494:
.LBB497:
.LBB498:
	vmulpd	%ymm11, %ymm6, %ymm6
.LVL54:
.LBE498:
.LBE497:
.LBB500:
.LBB501:
	vmulpd	%ymm11, %ymm4, %ymm4
.LVL55:
.LBE501:
.LBE500:
.LBB503:
.LBB504:
	vmulpd	%ymm11, %ymm0, %ymm0
.LVL56:
.LBE504:
.LBE503:
.LBB506:
.LBB490:
	.loc 3 241 19
	vfmaddsub231pd	%ymm1, %ymm14, %ymm3
.LVL57:
.LBE490:
.LBE506:
	.loc 1 185 5 is_stmt 1
.LBB507:
.LBB493:
	.loc 2 314 3
.LBE493:
.LBE507:
	.loc 1 185 5
.LBB508:
.LBB509:
	.loc 3 241 3
	.loc 3 241 19 is_stmt 0
	vfmaddsub231pd	%ymm1, %ymm13, %ymm2
.LVL58:
.LBE509:
.LBE508:
	.loc 1 185 5 is_stmt 1
.LBB510:
.LBB511:
	.loc 2 690 3
.LBE511:
.LBE510:
.LBB513:
.LBB514:
	.loc 3 241 19 is_stmt 0
	vfmaddsub231pd	(%r8), %ymm14, %ymm0
.LBE514:
.LBE513:
.LBB516:
.LBB517:
	.loc 2 893 10
	vmovupd	16(%r8), %ymm14
.LVL59:
.LBE517:
.LBE516:
.LBB519:
.LBB520:
	.loc 3 241 19
	vfmaddsub132pd	%ymm9, %ymm10, %ymm1
.LVL60:
.LBE520:
.LBE519:
.LBB522:
.LBB523:
	vfmaddsub132pd	(%r8), %ymm6, %ymm9
.LVL61:
.LBE523:
.LBE522:
.LBB525:
.LBB526:
	vfmaddsub132pd	(%r8), %ymm4, %ymm13
.LVL62:
.LBE526:
.LBE525:
.LBB528:
.LBB512:
	.loc 2 690 20
	vperm2f128	$2, %ymm3, %ymm2, %ymm7
.LVL63:
.LBE512:
.LBE528:
	.loc 1 185 5 is_stmt 1
.LBB529:
.LBB530:
	.loc 2 690 3
	.loc 2 690 20 is_stmt 0
	vperm2f128	$1, %ymm3, %ymm3, %ymm3
.LVL64:
.LBE530:
.LBE529:
	.loc 1 185 5 is_stmt 1
.LBB531:
.LBB532:
	.loc 2 196 3
	.loc 2 196 20 is_stmt 0
	vblendpd	$12, %ymm2, %ymm3, %ymm3
.LVL65:
.LBE532:
.LBE531:
	.loc 1 185 5 is_stmt 1
.LBB533:
.LBB534:
	.loc 2 143 3
.LBE534:
.LBE533:
	.loc 1 185 5
.LBB536:
.LBB537:
	.loc 2 893 3
.LBE537:
.LBE536:
	.loc 1 185 5
.LBB538:
.LBB473:
	.loc 2 690 3
	.loc 2 690 20 is_stmt 0
	vperm2f128	$1, %ymm5, %ymm5, %ymm2
.LVL66:
.LBE473:
.LBE538:
	.loc 1 185 5 is_stmt 1
.LBB539:
.LBB540:
	.loc 2 869 3
.LBE540:
.LBE539:
	.loc 1 185 5
.LBB541:
.LBB542:
	.loc 2 196 3
.LBE542:
.LBE541:
.LBB544:
.LBB545:
	.loc 2 893 10 is_stmt 0
	vmovupd	16(%rcx), %ymm5
.LBE545:
.LBE544:
.LBB547:
.LBB548:
	.loc 2 690 20
	vperm2f128	$2, %ymm1, %ymm9, %ymm6
.LBE548:
.LBE547:
.LBB550:
.LBB551:
	vperm2f128	$1, %ymm1, %ymm1, %ymm1
.LBE551:
.LBE550:
.LBB553:
.LBB543:
	.loc 2 196 20
	vblendpd	$12, 64(%r12), %ymm2, %ymm2
.LVL67:
.LBE543:
.LBE553:
	.loc 1 185 5 is_stmt 1
.LBB554:
.LBB546:
	.loc 2 893 3
.LBE546:
.LBE554:
	.loc 1 185 5
.LBB555:
.LBB556:
	.loc 2 690 3
.LBE556:
.LBE555:
.LBB558:
.LBB559:
	.loc 2 690 20 is_stmt 0
	vperm2f128	$2, %ymm0, %ymm13, %ymm4
.LBE559:
.LBE558:
.LBB561:
.LBB557:
	vperm2f128	$1, %ymm5, %ymm5, %ymm8
.LVL68:
.LBE557:
.LBE561:
	.loc 1 185 5 is_stmt 1
.LBB562:
.LBB563:
	.loc 2 196 3
.LBE563:
.LBE562:
.LBB565:
.LBB566:
	.loc 2 339 20 is_stmt 0
	vpermilpd	$0, %ymm2, %ymm12
.LBE566:
.LBE565:
.LBB568:
.LBB569:
	vpermilpd	$15, %ymm2, %ymm2
.LVL69:
.LBE569:
.LBE568:
.LBB571:
.LBB564:
	.loc 2 196 20
	vblendpd	$12, %ymm5, %ymm8, %ymm5
.LVL70:
.LBE564:
.LBE571:
	.loc 1 185 5 is_stmt 1
.LBB572:
.LBB567:
	.loc 2 339 3
.LBE567:
.LBE572:
	.loc 1 185 5
.LBB573:
.LBB570:
	.loc 2 339 3
.LBE570:
.LBE573:
	.loc 1 185 5
.LBB574:
.LBB575:
	.loc 2 339 3
.LBE575:
.LBE574:
	.loc 1 185 5
.LBB577:
.LBB578:
	.loc 2 314 3
.LBE578:
.LBE577:
	.loc 1 185 5
.LBB580:
.LBB581:
	.loc 3 241 3
.LBE581:
.LBE580:
.LBB583:
.LBB584:
	.loc 2 196 20 is_stmt 0
	vblendpd	$12, %ymm9, %ymm1, %ymm1
.LBE584:
.LBE583:
.LBB586:
.LBB587:
	.loc 2 690 20
	vperm2f128	$1, %ymm0, %ymm0, %ymm0
.LBE587:
.LBE586:
.LBB589:
.LBB590:
	.loc 2 893 10
	vmovupd	112(%r12), %ymm9
.LBE590:
.LBE589:
.LBB592:
.LBB576:
	.loc 2 339 20
	vpermilpd	$5, %ymm5, %ymm15
.LBE576:
.LBE592:
.LBB593:
.LBB594:
	.loc 2 196 20
	vblendpd	$12, %ymm13, %ymm0, %ymm0
.LBE594:
.LBE593:
.LBB596:
.LBB597:
	vblendpd	$12, %ymm14, %ymm8, %ymm8
.LVL71:
.LBE597:
.LBE596:
.LBB599:
.LBB579:
	.loc 2 314 10
	vmulpd	%ymm2, %ymm15, %ymm15
.LBE579:
.LBE599:
.LBB600:
.LBB601:
	.loc 2 339 20
	vpermilpd	$5, %ymm8, %ymm10
.LBE601:
.LBE600:
.LBB603:
.LBB604:
	.loc 2 143 10
	vaddpd	%ymm1, %ymm6, %ymm1
.LBE604:
.LBE603:
.LBB606:
.LBB535:
	vaddpd	%ymm3, %ymm7, %ymm7
.LVL72:
.LBE535:
.LBE606:
.LBB607:
.LBB608:
	vaddpd	%ymm0, %ymm4, %ymm4
.LBE608:
.LBE607:
.LBB610:
.LBB582:
	.loc 3 241 19
	vfmaddsub132pd	%ymm12, %ymm15, %ymm5
.LVL73:
.LBE582:
.LBE610:
	.loc 1 185 5 is_stmt 1
.LBB611:
.LBB612:
	.loc 2 143 3
.LBE612:
.LBE611:
	.loc 1 185 5
.LBB614:
.LBB505:
	.loc 2 314 3
.LBE505:
.LBE614:
	.loc 1 185 5
.LBB615:
.LBB515:
	.loc 3 241 3
.LBE515:
.LBE615:
	.loc 1 185 5
.LBB616:
.LBB502:
	.loc 2 314 3
.LBE502:
.LBE616:
	.loc 1 185 5
.LBB617:
.LBB527:
	.loc 3 241 3
.LBE527:
.LBE617:
	.loc 1 185 5
.LBB618:
.LBB560:
	.loc 2 690 3
.LBE560:
.LBE618:
	.loc 1 185 5
.LBB619:
.LBB588:
	.loc 2 690 3
.LBE588:
.LBE619:
	.loc 1 185 5
.LBB620:
.LBB595:
	.loc 2 196 3
.LBE595:
.LBE620:
	.loc 1 185 5
.LBB621:
.LBB609:
	.loc 2 143 3
.LBE609:
.LBE621:
	.loc 1 185 5
.LBB622:
.LBB518:
	.loc 2 893 3
.LBE518:
.LBE622:
	.loc 1 185 5
.LBB623:
.LBB624:
	.loc 2 690 3
	.loc 2 690 20 is_stmt 0
	vperm2f128	$1, %ymm14, %ymm14, %ymm15
.LVL74:
.LBE624:
.LBE623:
	.loc 1 185 5 is_stmt 1
.LBB625:
.LBB626:
	.loc 2 196 3
	.loc 2 196 20 is_stmt 0
	vblendpd	$12, %ymm14, %ymm15, %ymm15
.LVL75:
.LBE626:
.LBE625:
	.loc 1 185 5 is_stmt 1
.LBB627:
.LBB628:
	.loc 2 339 3
.LBE628:
.LBE627:
	.loc 1 185 5
.LBB630:
.LBB631:
	.loc 2 314 3
.LBE631:
.LBE630:
	.loc 1 185 5
.LBB633:
.LBB634:
	.loc 3 241 3
.LBE634:
.LBE633:
.LBB636:
.LBB629:
	.loc 2 339 20 is_stmt 0
	vpermilpd	$5, %ymm15, %ymm13
.LVL76:
.LBE629:
.LBE636:
.LBB637:
.LBB632:
	.loc 2 314 10
	vmulpd	%ymm2, %ymm13, %ymm13
.LBE632:
.LBE637:
.LBB638:
.LBB639:
	.loc 2 690 20
	vperm2f128	$1, %ymm9, %ymm9, %ymm2
.LBE639:
.LBE638:
.LBB641:
.LBB642:
	.loc 2 196 20
	vblendpd	$12, %ymm9, %ymm2, %ymm2
.LBE642:
.LBE641:
.LBB644:
.LBB645:
	.loc 2 339 20
	vpermilpd	$0, %ymm2, %ymm9
.LBE645:
.LBE644:
.LBB647:
.LBB648:
	vpermilpd	$15, %ymm2, %ymm2
.LBE648:
.LBE647:
.LBB650:
.LBB613:
	.loc 2 143 10
	vaddpd	%ymm5, %ymm7, %ymm7
.LBE613:
.LBE650:
.LBB651:
.LBB652:
	.loc 2 314 10
	vmulpd	%ymm10, %ymm2, %ymm2
.LBE652:
.LBE651:
.LBB654:
.LBB635:
	.loc 3 241 19
	vfmaddsub231pd	%ymm15, %ymm12, %ymm13
.LVL77:
.LBE635:
.LBE654:
	.loc 1 185 5 is_stmt 1
.LBB655:
.LBB656:
	.loc 2 143 3
.LBE656:
.LBE655:
	.loc 1 185 5
.LBB658:
.LBB496:
	.loc 2 314 3
.LBE496:
.LBE658:
	.loc 1 185 5
.LBB659:
.LBB521:
	.loc 3 241 3
.LBE521:
.LBE659:
	.loc 1 185 5
.LBB660:
.LBB499:
	.loc 2 314 3
.LBE499:
.LBE660:
	.loc 1 185 5
.LBB661:
.LBB524:
	.loc 3 241 3
.LBE524:
.LBE661:
	.loc 1 185 5
.LBB662:
.LBB549:
	.loc 2 690 3
.LBE549:
.LBE662:
	.loc 1 185 5
.LBB663:
.LBB552:
	.loc 2 690 3
.LBE552:
.LBE663:
	.loc 1 185 5
.LBB664:
.LBB585:
	.loc 2 196 3
.LBE585:
.LBE664:
	.loc 1 185 5
.LBB665:
.LBB605:
	.loc 2 143 3
.LBE605:
.LBE665:
	.loc 1 185 5
.LBB666:
.LBB591:
	.loc 2 893 3
.LBE591:
.LBE666:
	.loc 1 185 5
.LBB667:
.LBB640:
	.loc 2 690 3
.LBE640:
.LBE667:
	.loc 1 185 5
.LBB668:
.LBB643:
	.loc 2 196 3
.LBE643:
.LBE668:
	.loc 1 185 5
.LBB669:
.LBB646:
	.loc 2 339 3
.LBE646:
.LBE669:
	.loc 1 185 5
.LBB670:
.LBB649:
	.loc 2 339 3
.LBE649:
.LBE670:
	.loc 1 185 5
.LBB671:
.LBB598:
	.loc 2 196 3
.LBE598:
.LBE671:
	.loc 1 185 5
.LBB672:
.LBB602:
	.loc 2 339 3
.LBE602:
.LBE672:
	.loc 1 185 5
.LBB673:
.LBB653:
	.loc 2 314 3
.LBE653:
.LBE673:
	.loc 1 185 5
.LBB674:
.LBB675:
	.loc 3 241 3
.LBE675:
.LBE674:
.LBB677:
.LBB678:
	.loc 2 899 21 is_stmt 0
	vmovupd	%ymm7, (%r14,%rax)
.LVL78:
.LBE678:
.LBE677:
.LBB680:
.LBB676:
	.loc 3 241 19
	vfmaddsub231pd	%ymm8, %ymm9, %ymm2
.LVL79:
.LBE676:
.LBE680:
	.loc 1 185 5 is_stmt 1
.LBB681:
.LBB682:
	.loc 2 143 3
.LBE682:
.LBE681:
.LBB684:
.LBB657:
	.loc 2 143 10 is_stmt 0
	vaddpd	%ymm13, %ymm4, %ymm4
.LBE657:
.LBE684:
.LBB685:
.LBB683:
	vaddpd	%ymm2, %ymm1, %ymm1
.LVL80:
.LBE683:
.LBE685:
	.loc 1 185 5 is_stmt 1
.LBB686:
.LBB687:
	.loc 2 1457 3
.LBE687:
.LBE686:
	.loc 1 185 5
.LBB688:
.LBB689:
	.loc 2 520 3
.LBE689:
.LBE688:
	.loc 1 185 5
.LBB690:
.LBB679:
	.loc 2 899 3
.LBE679:
.LBE690:
	.loc 1 185 5
.LBB691:
.LBB692:
	.file 4 "/home/mrahman/spack/opt/spack/linux-centos7-haswell/gcc-4.8.5/gcc-12.1.0-rfwstyfbaftyze73vaufakvxclc3eqpm/lib/gcc/x86_64-pc-linux-gnu/12.1.0/include/emmintrin.h"
	.loc 4 166 3
	.loc 4 166 19 is_stmt 0
	vmovapd	%xmm1, 32(%r14,%rax)
.LVL81:
.LBE692:
.LBE691:
	.loc 1 185 5 is_stmt 1
.LBB693:
.LBB694:
	.loc 2 899 3
.LBE694:
.LBE693:
.LBB696:
.LBB697:
	.loc 4 166 19 is_stmt 0
	vextractf128	$0x1, %ymm1, 32(%r15,%rax)
.LVL82:
.LBE697:
.LBE696:
.LBB699:
.LBB695:
	.loc 2 899 21
	vmovupd	%ymm4, (%r15,%rax)
.LVL83:
.LBE695:
.LBE699:
	.loc 1 185 5 is_stmt 1
.LBB700:
.LBB698:
	.loc 4 166 3
.LBE698:
.LBE700:
	.loc 1 185 61
	.loc 1 172 17
	.loc 1 172 11
	addq	$48, %rax
.LVL84:
	cmpq	%r13, %rax
	jne	.L7
	.loc 1 190 3 is_stmt 0
	movq	%rcx, -320(%rbp)
	xorl	%esi, %esi
	.loc 1 194 6
	movq	%r12, %rbx
	.loc 1 190 3
	leaq	-224(%rbp), %rdi
	movq	%r8, -304(%rbp)
	.loc 1 196 11
	movabsq	$4800000000, %r13
	.loc 1 190 3
	movq	%r9, -256(%rbp)
.LVL85:
	movq	%r10, -288(%rbp)
.LVL86:
	movq	%r11, -272(%rbp)
.LVL87:
	.loc 1 190 3 is_stmt 1
	vzeroupper
.LVL88:
	call	gettimeofday
.LVL89:
	.loc 1 192 5
	.loc 1 192 9 is_stmt 0
	call	omp_get_wtime
.LVL90:
	vmovsd	%xmm0, -240(%rbp)
.LVL91:
	.loc 1 194 3 is_stmt 1
	.loc 1 194 6 is_stmt 0
	call	clock
.LVL92:
	movq	-384(%rbp), %rdi
	movq	-816(%rbp), %rsi
	movq	-808(%rbp), %rdx
	.loc 1 196 11
	movq	-320(%rbp), %rcx
	.loc 1 194 6
	movq	%rax, %r14
.LVL93:
	.loc 1 196 1 is_stmt 1
	.loc 1 196 11
	.loc 1 194 6 is_stmt 0
	xorl	%eax, %eax
.LVL94:
	.loc 1 196 11
	movq	-304(%rbp), %r8
	movq	-368(%rbp), %r15
	movq	-360(%rbp), %r9
	movq	-288(%rbp), %r10
	movq	-272(%rbp), %r11
.LVL95:
	.p2align 4,,10
	.p2align 3
.L8:
	.loc 1 198 15 is_stmt 1
	.loc 1 200 7
	vmovsd	(%rdx), %xmm1
	vmovsd	8(%rdx), %xmm0
	.loc 1 200 21 is_stmt 0
	vmovsd	%xmm1, (%rcx,%rax)
	vmovsd	%xmm0, 8(%rcx,%rax)
	.loc 1 201 7 is_stmt 1
	vmovsd	(%rsi), %xmm1
	vmovsd	8(%rsi), %xmm0
	.loc 1 201 22 is_stmt 0
	vmovsd	%xmm1, (%r8,%rax)
	vmovsd	%xmm0, 8(%r8,%rax)
	.loc 1 198 20 is_stmt 1
.LVL96:
	.loc 1 198 15
	.loc 1 200 7
	vmovsd	16(%rdx), %xmm1
	vmovsd	24(%rdx), %xmm0
	.loc 1 200 21 is_stmt 0
	vmovsd	%xmm1, 16(%rcx,%rax)
	vmovsd	%xmm0, 24(%rcx,%rax)
	.loc 1 201 7 is_stmt 1
	vmovsd	16(%rsi), %xmm1
	vmovsd	24(%rsi), %xmm0
	.loc 1 201 22 is_stmt 0
	vmovsd	%xmm1, 16(%r8,%rax)
	vmovsd	%xmm0, 24(%r8,%rax)
	.loc 1 198 20 is_stmt 1
.LVL97:
	.loc 1 198 15
	.loc 1 200 7
	.loc 1 200 21 is_stmt 0
	vmovupd	32(%rdx), %xmm7
	vmovupd	%xmm7, 32(%rcx,%rax)
	.loc 1 201 7 is_stmt 1
	.loc 1 201 22 is_stmt 0
	vmovupd	32(%rsi), %xmm6
	vmovupd	%xmm6, 32(%r8,%rax)
	.loc 1 198 20 is_stmt 1
.LVL98:
	.loc 1 198 15
	.loc 1 204 15
	.loc 1 206 7
	vmovupd	32(%rdi), %ymm2
	vmovupd	64(%rdi), %ymm1
	vmovupd	96(%rdi), %ymm0
	.loc 1 204 20
.LVL99:
	.loc 1 204 15
	.loc 1 206 7
	.loc 1 204 20
	.loc 1 204 15
	.loc 1 206 7
	.loc 1 204 20
	.loc 1 204 15
	.loc 1 206 7
	.loc 1 204 20
	.loc 1 204 15
	.loc 1 206 7
	.loc 1 204 20
	.loc 1 204 15
	.loc 1 206 7
	.loc 1 204 20
	.loc 1 204 15
	.loc 1 206 7
	.loc 1 204 20
	.loc 1 204 15
	.loc 1 206 7
	.loc 1 206 20 is_stmt 0
	vmovupd	(%rdi), %ymm7
	vmovupd	%ymm2, 32(%rbx)
	vmovupd	%ymm7, (%rbx)
	vmovupd	%ymm1, 64(%rbx)
	vmovupd	%ymm0, 96(%rbx)
	.loc 1 204 20 is_stmt 1
.LVL100:
	.loc 1 204 15
	.loc 1 206 7
	.loc 1 206 20 is_stmt 0
	vmovupd	128(%rdi), %xmm5
	vmovupd	%xmm5, 128(%rbx)
	.loc 1 204 20 is_stmt 1
.LVL101:
	.loc 1 204 15
	.loc 1 209 5
#APP
# 209 "avx_complex_vec_align_load.c" 1
	# LLVM-MCA-BEGIN double_MVM_macro
# 0 "" 2
	.loc 1 210 9
.LVL102:
#NO_APP
.LBB701:
.LBB702:
	.loc 2 869 3
.LBE702:
.LBE701:
	.loc 1 210 9
.LBB703:
.LBB704:
	.loc 2 339 3
.LBE704:
.LBE703:
.LBB706:
.LBB707:
	.loc 2 869 10 is_stmt 0
	vmovapd	(%rcx), %ymm1
.LBE707:
.LBE706:
.LBB709:
.LBB710:
	.loc 2 339 20
	vpermilpd	$15, (%r12), %ymm0
.LBE710:
.LBE709:
.LBB712:
.LBB713:
	vpermilpd	$15, 48(%r12), %ymm4
.LBE713:
.LBE712:
.LBB715:
.LBB705:
	vpermilpd	$0, (%r12), %ymm14
.LVL103:
.LBE705:
.LBE715:
	.loc 1 210 9 is_stmt 1
.LBB716:
.LBB711:
	.loc 2 339 3
.LBE711:
.LBE716:
	.loc 1 210 9
.LBB717:
.LBB718:
	.loc 2 893 3
.LBE718:
.LBE717:
	.loc 1 210 9
.LBB719:
.LBB720:
	.loc 2 339 3
.LBE720:
.LBE719:
.LBB722:
.LBB723:
	.loc 2 339 20 is_stmt 0
	vpermilpd	$5, %ymm1, %ymm10
.LBE723:
.LBE722:
.LBB725:
.LBB721:
	vpermilpd	$0, 48(%r12), %ymm13
.LVL104:
.LBE721:
.LBE725:
	.loc 1 210 9 is_stmt 1
.LBB726:
.LBB714:
	.loc 2 339 3
.LBE714:
.LBE726:
	.loc 1 210 9
.LBB727:
.LBB728:
	.loc 2 869 3
.LBE728:
.LBE727:
	.loc 1 210 9
.LBB729:
.LBB730:
	.loc 2 339 3
.LBE730:
.LBE729:
.LBB732:
.LBB733:
	.loc 2 339 20 is_stmt 0
	vpermilpd	$15, 96(%r12), %ymm6
.LBE733:
.LBE732:
.LBB735:
.LBB736:
	.loc 2 314 10
	vmulpd	%ymm10, %ymm0, %ymm3
.LBE736:
.LBE735:
.LBB738:
.LBB739:
	.loc 2 690 20
	vmovupd	16(%r12), %ymm5
.LBE739:
.LBE738:
.LBB741:
.LBB742:
	.loc 2 339 20
	vpermilpd	$5, (%r8), %ymm11
.LBE742:
.LBE741:
.LBB744:
.LBB745:
	.loc 2 314 10
	vmulpd	%ymm10, %ymm4, %ymm2
.LBE745:
.LBE744:
.LBB747:
.LBB731:
	.loc 2 339 20
	vpermilpd	$0, 96(%r12), %ymm9
.LVL105:
.LBE731:
.LBE747:
	.loc 1 210 9 is_stmt 1
.LBB748:
.LBB734:
	.loc 2 339 3
.LBE734:
.LBE748:
	.loc 1 210 9
.LBB749:
.LBB708:
	.loc 2 869 3
.LBE708:
.LBE749:
	.loc 1 210 9
.LBB750:
.LBB724:
	.loc 2 339 3
.LBE724:
.LBE750:
	.loc 1 210 9
.LBB751:
.LBB752:
	.loc 2 869 3
.LBE752:
.LBE751:
	.loc 1 210 9
.LBB753:
.LBB743:
	.loc 2 339 3
.LBE743:
.LBE753:
	.loc 1 210 9
.LBB754:
.LBB737:
	.loc 2 314 3
.LBE737:
.LBE754:
	.loc 1 210 9
.LBB755:
.LBB756:
	.loc 3 241 3
.LBE756:
.LBE755:
.LBB758:
.LBB759:
	.loc 2 314 10 is_stmt 0
	vmulpd	%ymm10, %ymm6, %ymm10
.LVL106:
.LBE759:
.LBE758:
.LBB761:
.LBB762:
	vmulpd	%ymm11, %ymm6, %ymm6
.LVL107:
.LBE762:
.LBE761:
.LBB764:
.LBB765:
	vmulpd	%ymm11, %ymm4, %ymm4
.LVL108:
.LBE765:
.LBE764:
.LBB767:
.LBB768:
	vmulpd	%ymm11, %ymm0, %ymm0
.LVL109:
.LBE768:
.LBE767:
.LBB770:
.LBB757:
	.loc 3 241 19
	vfmaddsub231pd	%ymm1, %ymm14, %ymm3
.LVL110:
.LBE757:
.LBE770:
	.loc 1 210 9 is_stmt 1
.LBB771:
.LBB746:
	.loc 2 314 3
.LBE746:
.LBE771:
	.loc 1 210 9
.LBB772:
.LBB773:
	.loc 3 241 3
	.loc 3 241 19 is_stmt 0
	vfmaddsub231pd	%ymm1, %ymm13, %ymm2
.LVL111:
.LBE773:
.LBE772:
	.loc 1 210 9 is_stmt 1
.LBB774:
.LBB775:
	.loc 2 690 3
.LBE775:
.LBE774:
.LBB777:
.LBB778:
	.loc 3 241 19 is_stmt 0
	vfmaddsub231pd	(%r8), %ymm14, %ymm0
.LBE778:
.LBE777:
.LBB780:
.LBB781:
	.loc 2 893 10
	vmovupd	16(%r8), %ymm14
.LVL112:
.LBE781:
.LBE780:
.LBB783:
.LBB784:
	.loc 3 241 19
	vfmaddsub132pd	%ymm9, %ymm10, %ymm1
.LVL113:
.LBE784:
.LBE783:
.LBB786:
.LBB787:
	vfmaddsub132pd	(%r8), %ymm6, %ymm9
.LVL114:
.LBE787:
.LBE786:
.LBB789:
.LBB790:
	vfmaddsub132pd	(%r8), %ymm4, %ymm13
.LVL115:
.LBE790:
.LBE789:
.LBB792:
.LBB776:
	.loc 2 690 20
	vperm2f128	$2, %ymm3, %ymm2, %ymm7
.LVL116:
.LBE776:
.LBE792:
	.loc 1 210 9 is_stmt 1
.LBB793:
.LBB794:
	.loc 2 690 3
	.loc 2 690 20 is_stmt 0
	vperm2f128	$1, %ymm3, %ymm3, %ymm3
.LVL117:
.LBE794:
.LBE793:
	.loc 1 210 9 is_stmt 1
.LBB795:
.LBB796:
	.loc 2 196 3
	.loc 2 196 20 is_stmt 0
	vblendpd	$12, %ymm2, %ymm3, %ymm3
.LVL118:
.LBE796:
.LBE795:
	.loc 1 210 9 is_stmt 1
.LBB797:
.LBB798:
	.loc 2 143 3
.LBE798:
.LBE797:
	.loc 1 210 9
.LBB800:
.LBB801:
	.loc 2 893 3
.LBE801:
.LBE800:
	.loc 1 210 9
.LBB802:
.LBB740:
	.loc 2 690 3
	.loc 2 690 20 is_stmt 0
	vperm2f128	$1, %ymm5, %ymm5, %ymm2
.LVL119:
.LBE740:
.LBE802:
	.loc 1 210 9 is_stmt 1
.LBB803:
.LBB804:
	.loc 2 869 3
.LBE804:
.LBE803:
	.loc 1 210 9
.LBB805:
.LBB806:
	.loc 2 196 3
.LBE806:
.LBE805:
.LBB808:
.LBB809:
	.loc 2 893 10 is_stmt 0
	vmovupd	16(%rcx), %ymm5
.LBE809:
.LBE808:
.LBB811:
.LBB812:
	.loc 2 690 20
	vperm2f128	$2, %ymm1, %ymm9, %ymm6
.LBE812:
.LBE811:
.LBB814:
.LBB815:
	vperm2f128	$1, %ymm1, %ymm1, %ymm1
.LBE815:
.LBE814:
.LBB817:
.LBB807:
	.loc 2 196 20
	vblendpd	$12, 64(%r12), %ymm2, %ymm2
.LVL120:
.LBE807:
.LBE817:
	.loc 1 210 9 is_stmt 1
.LBB818:
.LBB810:
	.loc 2 893 3
.LBE810:
.LBE818:
	.loc 1 210 9
.LBB819:
.LBB820:
	.loc 2 690 3
.LBE820:
.LBE819:
.LBB822:
.LBB823:
	.loc 2 690 20 is_stmt 0
	vperm2f128	$2, %ymm0, %ymm13, %ymm4
.LBE823:
.LBE822:
.LBB825:
.LBB821:
	vperm2f128	$1, %ymm5, %ymm5, %ymm8
.LVL121:
.LBE821:
.LBE825:
	.loc 1 210 9 is_stmt 1
.LBB826:
.LBB827:
	.loc 2 196 3
.LBE827:
.LBE826:
.LBB829:
.LBB830:
	.loc 2 339 20 is_stmt 0
	vpermilpd	$0, %ymm2, %ymm12
.LBE830:
.LBE829:
.LBB832:
.LBB833:
	vpermilpd	$15, %ymm2, %ymm2
.LVL122:
.LBE833:
.LBE832:
.LBB835:
.LBB828:
	.loc 2 196 20
	vblendpd	$12, %ymm5, %ymm8, %ymm5
.LVL123:
.LBE828:
.LBE835:
	.loc 1 210 9 is_stmt 1
.LBB836:
.LBB831:
	.loc 2 339 3
.LBE831:
.LBE836:
	.loc 1 210 9
.LBB837:
.LBB834:
	.loc 2 339 3
.LBE834:
.LBE837:
	.loc 1 210 9
.LBB838:
.LBB839:
	.loc 2 339 3
.LBE839:
.LBE838:
	.loc 1 210 9
.LBB841:
.LBB842:
	.loc 2 314 3
.LBE842:
.LBE841:
	.loc 1 210 9
.LBB844:
.LBB845:
	.loc 3 241 3
.LBE845:
.LBE844:
.LBB847:
.LBB848:
	.loc 2 196 20 is_stmt 0
	vblendpd	$12, %ymm9, %ymm1, %ymm1
.LBE848:
.LBE847:
.LBB850:
.LBB851:
	.loc 2 690 20
	vperm2f128	$1, %ymm0, %ymm0, %ymm0
.LBE851:
.LBE850:
.LBB853:
.LBB854:
	.loc 2 893 10
	vmovupd	112(%r12), %ymm9
.LBE854:
.LBE853:
.LBB856:
.LBB840:
	.loc 2 339 20
	vpermilpd	$5, %ymm5, %ymm15
.LBE840:
.LBE856:
.LBB857:
.LBB858:
	.loc 2 196 20
	vblendpd	$12, %ymm13, %ymm0, %ymm0
.LBE858:
.LBE857:
.LBB860:
.LBB861:
	vblendpd	$12, %ymm14, %ymm8, %ymm8
.LVL124:
.LBE861:
.LBE860:
.LBB863:
.LBB843:
	.loc 2 314 10
	vmulpd	%ymm2, %ymm15, %ymm15
.LBE843:
.LBE863:
.LBB864:
.LBB865:
	.loc 2 339 20
	vpermilpd	$5, %ymm8, %ymm10
.LBE865:
.LBE864:
.LBB867:
.LBB868:
	.loc 2 143 10
	vaddpd	%ymm1, %ymm6, %ymm1
.LBE868:
.LBE867:
.LBB870:
.LBB799:
	vaddpd	%ymm3, %ymm7, %ymm7
.LVL125:
.LBE799:
.LBE870:
.LBB871:
.LBB872:
	vaddpd	%ymm0, %ymm4, %ymm4
.LBE872:
.LBE871:
.LBB874:
.LBB846:
	.loc 3 241 19
	vfmaddsub132pd	%ymm12, %ymm15, %ymm5
.LVL126:
.LBE846:
.LBE874:
	.loc 1 210 9 is_stmt 1
.LBB875:
.LBB876:
	.loc 2 143 3
.LBE876:
.LBE875:
	.loc 1 210 9
.LBB878:
.LBB769:
	.loc 2 314 3
.LBE769:
.LBE878:
	.loc 1 210 9
.LBB879:
.LBB779:
	.loc 3 241 3
.LBE779:
.LBE879:
	.loc 1 210 9
.LBB880:
.LBB766:
	.loc 2 314 3
.LBE766:
.LBE880:
	.loc 1 210 9
.LBB881:
.LBB791:
	.loc 3 241 3
.LBE791:
.LBE881:
	.loc 1 210 9
.LBB882:
.LBB824:
	.loc 2 690 3
.LBE824:
.LBE882:
	.loc 1 210 9
.LBB883:
.LBB852:
	.loc 2 690 3
.LBE852:
.LBE883:
	.loc 1 210 9
.LBB884:
.LBB859:
	.loc 2 196 3
.LBE859:
.LBE884:
	.loc 1 210 9
.LBB885:
.LBB873:
	.loc 2 143 3
.LBE873:
.LBE885:
	.loc 1 210 9
.LBB886:
.LBB782:
	.loc 2 893 3
.LBE782:
.LBE886:
	.loc 1 210 9
.LBB887:
.LBB888:
	.loc 2 690 3
	.loc 2 690 20 is_stmt 0
	vperm2f128	$1, %ymm14, %ymm14, %ymm15
.LVL127:
.LBE888:
.LBE887:
	.loc 1 210 9 is_stmt 1
.LBB889:
.LBB890:
	.loc 2 196 3
	.loc 2 196 20 is_stmt 0
	vblendpd	$12, %ymm14, %ymm15, %ymm15
.LVL128:
.LBE890:
.LBE889:
	.loc 1 210 9 is_stmt 1
.LBB891:
.LBB892:
	.loc 2 339 3
.LBE892:
.LBE891:
	.loc 1 210 9
.LBB894:
.LBB895:
	.loc 2 314 3
.LBE895:
.LBE894:
	.loc 1 210 9
.LBB897:
.LBB898:
	.loc 3 241 3
.LBE898:
.LBE897:
.LBB900:
.LBB893:
	.loc 2 339 20 is_stmt 0
	vpermilpd	$5, %ymm15, %ymm13
.LVL129:
.LBE893:
.LBE900:
.LBB901:
.LBB896:
	.loc 2 314 10
	vmulpd	%ymm2, %ymm13, %ymm13
.LBE896:
.LBE901:
.LBB902:
.LBB903:
	.loc 2 690 20
	vperm2f128	$1, %ymm9, %ymm9, %ymm2
.LBE903:
.LBE902:
.LBB905:
.LBB906:
	.loc 2 196 20
	vblendpd	$12, %ymm9, %ymm2, %ymm2
.LBE906:
.LBE905:
.LBB908:
.LBB909:
	.loc 2 339 20
	vpermilpd	$0, %ymm2, %ymm9
.LBE909:
.LBE908:
.LBB911:
.LBB912:
	vpermilpd	$15, %ymm2, %ymm2
.LBE912:
.LBE911:
.LBB914:
.LBB877:
	.loc 2 143 10
	vaddpd	%ymm5, %ymm7, %ymm7
.LBE877:
.LBE914:
.LBB915:
.LBB916:
	.loc 2 314 10
	vmulpd	%ymm10, %ymm2, %ymm2
.LBE916:
.LBE915:
.LBB918:
.LBB899:
	.loc 3 241 19
	vfmaddsub231pd	%ymm15, %ymm12, %ymm13
.LVL130:
.LBE899:
.LBE918:
	.loc 1 210 9 is_stmt 1
.LBB919:
.LBB920:
	.loc 2 143 3
.LBE920:
.LBE919:
	.loc 1 210 9
.LBB922:
.LBB760:
	.loc 2 314 3
.LBE760:
.LBE922:
	.loc 1 210 9
.LBB923:
.LBB785:
	.loc 3 241 3
.LBE785:
.LBE923:
	.loc 1 210 9
.LBB924:
.LBB763:
	.loc 2 314 3
.LBE763:
.LBE924:
	.loc 1 210 9
.LBB925:
.LBB788:
	.loc 3 241 3
.LBE788:
.LBE925:
	.loc 1 210 9
.LBB926:
.LBB813:
	.loc 2 690 3
.LBE813:
.LBE926:
	.loc 1 210 9
.LBB927:
.LBB816:
	.loc 2 690 3
.LBE816:
.LBE927:
	.loc 1 210 9
.LBB928:
.LBB849:
	.loc 2 196 3
.LBE849:
.LBE928:
	.loc 1 210 9
.LBB929:
.LBB869:
	.loc 2 143 3
.LBE869:
.LBE929:
	.loc 1 210 9
.LBB930:
.LBB855:
	.loc 2 893 3
.LBE855:
.LBE930:
	.loc 1 210 9
.LBB931:
.LBB904:
	.loc 2 690 3
.LBE904:
.LBE931:
	.loc 1 210 9
.LBB932:
.LBB907:
	.loc 2 196 3
.LBE907:
.LBE932:
	.loc 1 210 9
.LBB933:
.LBB910:
	.loc 2 339 3
.LBE910:
.LBE933:
	.loc 1 210 9
.LBB934:
.LBB913:
	.loc 2 339 3
.LBE913:
.LBE934:
	.loc 1 210 9
.LBB935:
.LBB862:
	.loc 2 196 3
.LBE862:
.LBE935:
	.loc 1 210 9
.LBB936:
.LBB866:
	.loc 2 339 3
.LBE866:
.LBE936:
	.loc 1 210 9
.LBB937:
.LBB917:
	.loc 2 314 3
.LBE917:
.LBE937:
	.loc 1 210 9
.LBB938:
.LBB939:
	.loc 3 241 3
.LBE939:
.LBE938:
.LBB941:
.LBB942:
	.loc 2 899 21 is_stmt 0
	vmovupd	%ymm7, (%r9,%rax)
.LVL131:
.LBE942:
.LBE941:
.LBB944:
.LBB940:
	.loc 3 241 19
	vfmaddsub231pd	%ymm8, %ymm9, %ymm2
.LVL132:
.LBE940:
.LBE944:
	.loc 1 210 9 is_stmt 1
.LBB945:
.LBB946:
	.loc 2 143 3
.LBE946:
.LBE945:
.LBB948:
.LBB921:
	.loc 2 143 10 is_stmt 0
	vaddpd	%ymm13, %ymm4, %ymm4
.LBE921:
.LBE948:
.LBB949:
.LBB947:
	vaddpd	%ymm2, %ymm1, %ymm1
.LVL133:
.LBE947:
.LBE949:
	.loc 1 210 9 is_stmt 1
.LBB950:
.LBB951:
	.loc 2 1457 3
.LBE951:
.LBE950:
	.loc 1 210 9
.LBB952:
.LBB953:
	.loc 2 520 3
.LBE953:
.LBE952:
	.loc 1 210 9
.LBB954:
.LBB943:
	.loc 2 899 3
.LBE943:
.LBE954:
	.loc 1 210 9
.LBB955:
.LBB956:
	.loc 4 166 3
	.loc 4 166 19 is_stmt 0
	vmovapd	%xmm1, 32(%r9,%rax)
.LVL134:
.LBE956:
.LBE955:
	.loc 1 210 9 is_stmt 1
.LBB957:
.LBB958:
	.loc 2 899 3
.LBE958:
.LBE957:
.LBB960:
.LBB961:
	.loc 4 166 19 is_stmt 0
	vextractf128	$0x1, %ymm1, 32(%r15,%rax)
.LVL135:
.LBE961:
.LBE960:
.LBB963:
.LBB959:
	.loc 2 899 21
	vmovupd	%ymm4, (%r15,%rax)
.LVL136:
.LBE959:
.LBE963:
	.loc 1 210 9 is_stmt 1
.LBB964:
.LBB962:
	.loc 4 166 3
.LBE962:
.LBE964:
	.loc 1 210 65
	.loc 1 211 5
#APP
# 211 "avx_complex_vec_align_load.c" 1
	# LLVM-MCA-END
# 0 "" 2
	.loc 1 196 17
.LVL137:
	.loc 1 196 11
#NO_APP
	addq	$48, %rax
.LVL138:
	addq	$48, %rdx
	addq	$48, %rsi
	addq	$144, %rdi
	addq	$144, %rbx
	cmpq	%r13, %rax
	jne	.L8
	movq	-256(%rbp), %r9
	movq	%rcx, -320(%rbp)
	movq	%r8, -304(%rbp)
	movq	%r9, -288(%rbp)
	movq	%r10, -272(%rbp)
	movq	%r11, -256(%rbp)
	.loc 1 215 1
	.loc 1 215 4 is_stmt 0
	vzeroupper
.LVL139:
	call	clock
.LVL140:
	movq	%rax, %rbx
.LVL141:
	.loc 1 217 5 is_stmt 1
	.loc 1 217 9 is_stmt 0
	call	omp_get_wtime
.LVL142:
	.loc 1 219 3
	xorl	%esi, %esi
	leaq	-208(%rbp), %rdi
	.loc 1 222 80
	subq	%r14, %rbx
.LVL143:
	.loc 1 217 9
	vmovq	%xmm0, %r13
.LVL144:
	.loc 1 219 3 is_stmt 1
	call	gettimeofday
.LVL145:
	.loc 1 220 3
	leaq	-224(%rbp), %rdx
	leaq	-208(%rbp), %rsi
	leaq	-192(%rbp), %rdi
	call	timeval_subtract
.LVL146:
	.loc 1 222 5
	vxorpd	%xmm6, %xmm6, %xmm6
	movl	$.LC2, %edx
	xorl	%esi, %esi
	movl	$.LC3, %edi
	vcvtsi2sdq	%rbx, %xmm6, %xmm0
	movl	$1, %eax
	.loc 1 226 5 is_stmt 0
	xorl	%ebx, %ebx
	.loc 1 222 5
	vdivsd	.LC1(%rip), %xmm0, %xmm0
	call	lprintf
.LVL147:
	.loc 1 224 5 is_stmt 1
	xorl	%esi, %esi
	vmovq	%r13, %xmm7
	movl	$.LC4, %edx
	movl	$.LC3, %edi
	movl	$1, %eax
	vsubsd	-240(%rbp), %xmm7, %xmm0
	call	lprintf
.LVL148:
	.loc 1 226 5
	.loc 1 226 111 is_stmt 0
	vxorpd	%xmm6, %xmm6, %xmm6
	.loc 1 226 5
	movl	$.LC6, %edx
	xorl	%esi, %esi
	.loc 1 226 111
	vcvtsi2sdq	-184(%rbp), %xmm6, %xmm0
	.loc 1 226 5
	movl	$.LC3, %edi
	movl	$1, %eax
	vcvtsi2sdq	-192(%rbp), %xmm6, %xmm1
	vfmadd132sd	.LC5(%rip), %xmm1, %xmm0
	call	lprintf
.LVL149:
	.loc 1 236 3 is_stmt 1
	.loc 1 236 13
	.loc 1 226 5 is_stmt 0
	movq	-384(%rbp), %r15
	movq	%r12, %rax
	movq	-816(%rbp), %r13
.LVL150:
	movq	-808(%rbp), %r14
.LVL151:
	.loc 1 236 13
	movq	-320(%rbp), %rcx
	movabsq	$4800000000, %rsi
	movq	-304(%rbp), %r8
	movq	-376(%rbp), %rdx
	movq	-288(%rbp), %r9
	movq	-272(%rbp), %r10
	movq	-256(%rbp), %r11
.LVL152:
	.p2align 4,,10
	.p2align 3
.L29:
	.loc 1 239 15 is_stmt 1
	.loc 1 241 7
	vmovsd	(%r14), %xmm1
	vmovsd	8(%r14), %xmm0
	.loc 1 241 21 is_stmt 0
	vmovsd	%xmm1, (%rcx,%rbx)
	vmovsd	%xmm0, 8(%rcx,%rbx)
	.loc 1 242 7 is_stmt 1
	vmovsd	0(%r13), %xmm1
	vmovsd	8(%r13), %xmm0
	.loc 1 242 22 is_stmt 0
	vmovsd	%xmm1, (%r8,%rbx)
	vmovsd	%xmm0, 8(%r8,%rbx)
	.loc 1 239 20 is_stmt 1
.LVL153:
	.loc 1 239 15
	.loc 1 241 7
	vmovsd	16(%r14), %xmm1
	vmovsd	24(%r14), %xmm0
	.loc 1 241 21 is_stmt 0
	vmovsd	%xmm1, 16(%rcx,%rbx)
	vmovsd	%xmm0, 24(%rcx,%rbx)
	.loc 1 242 7 is_stmt 1
	vmovsd	16(%r13), %xmm1
	vmovsd	24(%r13), %xmm0
	.loc 1 242 22 is_stmt 0
	vmovsd	%xmm1, 16(%r8,%rbx)
	vmovsd	%xmm0, 24(%r8,%rbx)
	.loc 1 239 20 is_stmt 1
.LVL154:
	.loc 1 239 15
	.loc 1 241 7
	.loc 1 241 21 is_stmt 0
	vmovupd	32(%r14), %xmm6
	vmovupd	%xmm6, 32(%rcx,%rbx)
	.loc 1 242 7 is_stmt 1
	.loc 1 242 22 is_stmt 0
	vmovupd	32(%r13), %xmm7
	vmovupd	%xmm7, 32(%r8,%rbx)
	.loc 1 239 20 is_stmt 1
.LVL155:
	.loc 1 239 15
	.loc 1 245 15
	.loc 1 247 7
	vmovupd	32(%r15), %ymm2
	vmovupd	96(%r15), %ymm0
	.loc 1 245 20
.LVL156:
	.loc 1 245 15
	.loc 1 247 7
	.loc 1 245 20
	.loc 1 245 15
	.loc 1 247 7
	.loc 1 245 20
	.loc 1 245 15
	.loc 1 247 7
	.loc 1 245 20
	.loc 1 245 15
	.loc 1 247 7
	.loc 1 245 20
	.loc 1 245 15
	.loc 1 247 7
	.loc 1 245 20
	.loc 1 245 15
	.loc 1 247 7
	.loc 1 245 20
	.loc 1 245 15
	.loc 1 247 7
	vmovupd	64(%r15), %ymm1
	.loc 1 247 20 is_stmt 0
	vmovupd	(%r15), %ymm6
	vmovupd	%ymm2, 32(%rax)
	vmovupd	%ymm6, (%rax)
	vmovupd	%ymm1, 64(%rax)
	vmovupd	%ymm0, 96(%rax)
	.loc 1 245 20 is_stmt 1
.LVL157:
	.loc 1 245 15
	.loc 1 247 7
	.loc 1 247 20 is_stmt 0
	vmovupd	128(%r15), %xmm7
	vmovupd	%xmm7, 128(%rax)
	.loc 1 245 20 is_stmt 1
.LVL158:
	.loc 1 245 15
	.loc 1 250 3
	vmovupd	(%r12), %xmm0
	vmovlpd	%xmm0, -448(%rbp)
	vpermilpd	$3, %xmm0, %xmm13
	vpermilpd	$0, %xmm0, %xmm12
	vmovhpd	%xmm0, -464(%rbp)
	vmovupd	(%rcx), %xmm2
	vpermilpd	$1, %xmm2, %xmm4
	vmulpd	%xmm13, %xmm4, %xmm4
	vfmaddsub231pd	%xmm2, %xmm12, %xmm4
	vunpckhpd	%xmm4, %xmm4, %xmm0
	vucomisd	%xmm0, %xmm4
	jp	.L67
.L9:
	.loc 1 250 3
	vmovupd	16(%r12), %xmm0
	vmovupd	16(%rcx), %xmm2
	vpermilpd	$0, %xmm0, %xmm5
	vpermilpd	$1, %xmm0, %xmm3
	vpermilpd	$0, %xmm2, %xmm1
	vmovhpd	%xmm0, -496(%rbp)
	vmovapd	%xmm5, -304(%rbp)
	vpermilpd	$3, %xmm2, %xmm5
	vpermilpd	$3, %xmm0, %xmm6
	vmulpd	%xmm5, %xmm3, %xmm3
	vmovlpd	%xmm0, -480(%rbp)
	vmovapd	%xmm6, -240(%rbp)
	vfmaddsub132pd	%xmm0, %xmm3, %xmm1
	vunpckhpd	%xmm1, %xmm1, %xmm0
	vucomisd	%xmm0, %xmm1
	jp	.L68
.L10:
	vmovupd	32(%rcx), %xmm8
	vmovupd	32(%r12), %xmm0
	vaddpd	%xmm1, %xmm4, %xmm4
	.loc 1 250 3
	vpermilpd	$3, %xmm0, %xmm6
	vpermilpd	$1, %xmm8, %xmm1
	vpermilpd	$0, %xmm0, %xmm11
	vmovlpd	%xmm0, -400(%rbp)
	vmulpd	%xmm6, %xmm1, %xmm1
	vmovhpd	%xmm0, -432(%rbp)
	vpermilpd	$0, %xmm8, %xmm15
	vmovhpd	%xmm8, -320(%rbp)
	vmovlpd	%xmm8, -288(%rbp)
	vfmaddsub231pd	%xmm8, %xmm11, %xmm1
	vpermilpd	$3, %xmm8, %xmm8
	vunpckhpd	%xmm1, %xmm1, %xmm0
	vucomisd	%xmm0, %xmm1
	jp	.L69
.L11:
	vaddpd	%xmm4, %xmm1, %xmm1
	vmovupd	%xmm1, (%rdx,%rbx)
	.loc 1 250 3
	vmovupd	(%rcx), %xmm7
	vmovupd	48(%r12), %xmm0
	vpermilpd	$1, %xmm7, %xmm4
	vpermilpd	$3, %xmm0, %xmm5
	vpermilpd	$0, %xmm0, %xmm10
	vmovlpd	%xmm0, -512(%rbp)
	vmulpd	%xmm5, %xmm4, %xmm4
	vmovhpd	%xmm0, -544(%rbp)
	vpermilpd	$0, %xmm7, %xmm14
	vmovhpd	%xmm7, -528(%rbp)
	vmovlpd	%xmm7, -416(%rbp)
	vfmaddsub231pd	%xmm7, %xmm10, %xmm4
	vpermilpd	$3, %xmm7, %xmm7
	vunpckhpd	%xmm4, %xmm4, %xmm0
	vucomisd	%xmm0, %xmm4
	jp	.L70
.L12:
	vmovupd	%xmm4, 16(%rdx,%rbx)
	.loc 1 250 3
	vmovupd	64(%r12), %xmm0
	vmovupd	16(%rcx), %xmm2
	vpermilpd	$3, %xmm0, %xmm9
	vpermilpd	$1, %xmm2, %xmm1
	vpermilpd	$0, %xmm0, %xmm3
	vmovlpd	%xmm0, -560(%rbp)
	vmulpd	%xmm9, %xmm1, %xmm1
	vmovhpd	%xmm0, -352(%rbp)
	vmovapd	%xmm3, -336(%rbp)
	vfmaddsub231pd	%xmm3, %xmm2, %xmm1
	vunpckhpd	%xmm1, %xmm1, %xmm0
	vucomisd	%xmm0, %xmm1
	jp	.L71
.L13:
	vmovupd	80(%r12), %xmm0
	vaddpd	%xmm4, %xmm1, %xmm4
	.loc 1 250 3
	vpermilpd	$1, %xmm0, %xmm1
	vpermilpd	$0, %xmm0, %xmm3
	vmovhpd	%xmm0, -592(%rbp)
	vmulpd	%xmm8, %xmm1, %xmm1
	vmovlpd	%xmm0, -576(%rbp)
	vmovapd	%xmm3, -256(%rbp)
	vpermilpd	$3, %xmm0, %xmm3
	vmovapd	%xmm3, -272(%rbp)
	vfmaddsub231pd	%xmm15, %xmm0, %xmm1
	vunpckhpd	%xmm1, %xmm1, %xmm0
	vucomisd	%xmm0, %xmm1
	jp	.L72
.L14:
	vaddpd	%xmm1, %xmm4, %xmm4
	vmovupd	%xmm4, 16(%rdx,%rbx)
	.loc 1 250 3
	vmovupd	96(%r12), %xmm0
	vpermilpd	$1, %xmm0, %xmm1
	vmovhpd	%xmm0, -640(%rbp)
	vpermilpd	$0, %xmm0, %xmm15
	vmulpd	%xmm7, %xmm1, %xmm7
	vmovlpd	%xmm0, -624(%rbp)
	vfmaddsub231pd	%xmm14, %xmm0, %xmm7
	vpermilpd	$3, %xmm0, %xmm14
	vunpckhpd	%xmm7, %xmm7, %xmm1
	vucomisd	%xmm7, %xmm1
	jp	.L73
.L15:
	.loc 1 250 3
	vmovupd	112(%r12), %xmm1
	vmovupd	16(%rcx), %xmm2
	vpermilpd	$1, %xmm1, %xmm0
	vpermilpd	$3, %xmm2, %xmm4
	vpermilpd	$0, %xmm1, %xmm3
	vmovhpd	%xmm1, -608(%rbp)
	vmulpd	%xmm4, %xmm0, %xmm0
	vmovapd	%xmm3, -320(%rbp)
	vpermilpd	$3, %xmm1, %xmm3
	vmovapd	%xmm3, -288(%rbp)
	vpermilpd	$0, %xmm2, %xmm3
	vmovlpd	%xmm1, -528(%rbp)
	vfmaddsub231pd	%xmm3, %xmm1, %xmm0
	vunpckhpd	%xmm0, %xmm0, %xmm1
	vucomisd	%xmm1, %xmm0
	jp	.L74
.L16:
	vaddpd	%xmm0, %xmm7, %xmm7
	vmovupd	%xmm7, 32(%rdx,%rbx)
	.loc 1 250 3
	vmovupd	32(%rcx), %xmm2
	vmovupd	128(%r12), %xmm4
	vpermilpd	$1, %xmm2, %xmm0
	vpermilpd	$3, %xmm4, %xmm3
	vpermilpd	$0, %xmm4, %xmm1
	vmovlpd	%xmm4, -656(%rbp)
	vmulpd	%xmm3, %xmm0, %xmm0
	vpermilpd	$1, %xmm4, %xmm8
	vmovhpd	%xmm4, -416(%rbp)
	vfmaddsub231pd	%xmm2, %xmm1, %xmm0
	vunpckhpd	%xmm0, %xmm0, %xmm3
	vucomisd	%xmm0, %xmm3
	jp	.L75
.L17:
	vaddpd	%xmm7, %xmm0, %xmm0
	vmovupd	%xmm0, 32(%rdx,%rbx)
	.loc 1 251 3
	vmovupd	(%r8), %xmm2
	vpermilpd	$1, %xmm2, %xmm0
	vmulpd	%xmm13, %xmm0, %xmm0
	vfmaddsub132pd	%xmm2, %xmm0, %xmm12
	vunpckhpd	%xmm12, %xmm12, %xmm0
	vucomisd	%xmm0, %xmm12
	jp	.L76
.L18:
	.loc 1 251 3
	vmovupd	16(%r8), %xmm2
	vpermilpd	$1, %xmm2, %xmm7
	vmulpd	-240(%rbp), %xmm7, %xmm7
	vfmaddsub231pd	-304(%rbp), %xmm2, %xmm7
	vunpckhpd	%xmm7, %xmm7, %xmm1
	vucomisd	%xmm7, %xmm1
	jp	.L77
.L19:
	vaddpd	%xmm7, %xmm12, %xmm7
	.loc 1 251 3
	vmovupd	32(%r8), %xmm12
	vpermilpd	$1, %xmm12, %xmm13
	vmovhpd	%xmm12, -304(%rbp)
	vmulpd	%xmm6, %xmm13, %xmm6
	vmovlpd	%xmm12, -240(%rbp)
	vfmaddsub231pd	%xmm12, %xmm11, %xmm6
	vunpckhpd	%xmm6, %xmm6, %xmm0
	vucomisd	%xmm0, %xmm6
	jp	.L78
.L20:
	vaddpd	%xmm6, %xmm7, %xmm7
	vmovupd	%xmm7, (%r9,%rbx)
	.loc 1 251 3
	vmovupd	(%r8), %xmm6
	vpermilpd	$1, %xmm6, %xmm7
	vmovhpd	%xmm6, -400(%rbp)
	vmovsd	%xmm6, %xmm6, %xmm11
	vmulpd	%xmm5, %xmm7, %xmm5
	vfmaddsub231pd	%xmm6, %xmm10, %xmm5
	vunpckhpd	%xmm5, %xmm5, %xmm0
	vucomisd	%xmm0, %xmm5
	jp	.L79
.L21:
	vmovupd	%xmm5, 16(%r9,%rbx)
	.loc 1 251 3
	vmovupd	16(%r8), %xmm2
	vpermilpd	$1, %xmm2, %xmm0
	vmulpd	%xmm9, %xmm0, %xmm0
	vfmaddsub231pd	-336(%rbp), %xmm2, %xmm0
	vunpckhpd	%xmm0, %xmm0, %xmm1
	vucomisd	%xmm1, %xmm0
	jp	.L80
.L22:
	vmulpd	-272(%rbp), %xmm13, %xmm13
	vmovapd	-256(%rbp), %xmm1
	vaddpd	%xmm0, %xmm5, %xmm5
	.loc 1 251 3
	vfmaddsub132pd	%xmm12, %xmm13, %xmm1
	vunpckhpd	%xmm1, %xmm1, %xmm0
	vucomisd	%xmm0, %xmm1
	jp	.L81
.L23:
	vmulpd	%xmm7, %xmm14, %xmm14
	vaddpd	%xmm1, %xmm5, %xmm0
	vmovupd	%xmm0, 16(%r9,%rbx)
	.loc 1 251 3
	vfmaddsub231pd	%xmm6, %xmm15, %xmm14
	vunpckhpd	%xmm14, %xmm14, %xmm0
	vucomisd	%xmm0, %xmm14
	jp	.L82
.L24:
	.loc 1 251 3
	vmovupd	16(%r8), %xmm2
	vmovapd	-320(%rbp), %xmm1
	vpermilpd	$1, %xmm2, %xmm0
	vmulpd	-288(%rbp), %xmm0, %xmm0
	vfmaddsub132pd	%xmm2, %xmm0, %xmm1
	vunpckhpd	%xmm1, %xmm1, %xmm0
	vucomisd	%xmm0, %xmm1
	jp	.L83
.L25:
	vaddpd	%xmm14, %xmm1, %xmm14
	vmovupd	%xmm14, 32(%r9,%rbx)
	.loc 1 251 3
	vmovupd	32(%r8), %xmm2
	vpermilpd	$3, %xmm2, %xmm0
	vpermilpd	$0, %xmm2, %xmm1
	vmulpd	%xmm8, %xmm0, %xmm0
	vfmaddsub132pd	%xmm1, %xmm0, %xmm4
	vunpckhpd	%xmm4, %xmm4, %xmm0
	vucomisd	%xmm0, %xmm4
	jp	.L84
	vaddpd	%xmm14, %xmm4, %xmm4
	.loc 1 236 13 is_stmt 0
	addq	$48, %r14
	addq	$48, %r13
	addq	$144, %r15
	addq	$144, %rax
	.loc 1 251 3
	vmovupd	%xmm4, 32(%r9,%rbx)
	.loc 1 236 19 is_stmt 1
.LVL159:
	.loc 1 236 13
	addq	$48, %rbx
.LVL160:
	cmpq	%rsi, %rbx
	jne	.L29
	vzeroupper
.LVL161:
.L28:
	leaq	32(%r12), %rax
	leaq	16(%r12), %rdx
	.loc 1 256 3 is_stmt 0
	xorl	%esi, %esi
	.loc 1 260 6
	xorl	%ebx, %ebx
	movq	%rax, -704(%rbp)
	leaq	48(%r12), %rax
	.loc 1 256 3
	leaq	-224(%rbp), %rdi
	movq	%rax, -720(%rbp)
	leaq	64(%r12), %rax
	leaq	16(%rcx), %r13
	movq	%rax, -736(%rbp)
	leaq	80(%r12), %rax
	leaq	32(%rcx), %r14
	movq	%rax, -752(%rbp)
	leaq	96(%r12), %rax
	leaq	16(%r8), %r15
	movq	%rax, -784(%rbp)
	leaq	112(%r12), %rax
	movq	%rax, -768(%rbp)
	leaq	128(%r12), %rax
	movq	%rax, -688(%rbp)
	leaq	32(%r8), %rax
	movq	%r11, -336(%rbp)
	movq	%r10, -320(%rbp)
	movq	%r9, -304(%rbp)
	movq	%rdx, -288(%rbp)
	movq	%rcx, -272(%rbp)
	movq	%r8, -240(%rbp)
	movq	%rax, -256(%rbp)
	.loc 1 256 3 is_stmt 1
	call	gettimeofday
.LVL162:
	.loc 1 258 5
	.loc 1 258 9 is_stmt 0
	call	omp_get_wtime
.LVL163:
	vmovsd	%xmm0, -848(%rbp)
.LVL164:
	.loc 1 260 3 is_stmt 1
	.loc 1 260 6 is_stmt 0
	call	clock
.LVL165:
	.loc 1 261 12
	movq	-288(%rbp), %rdx
	movq	%r12, %rsi
	movq	-272(%rbp), %rcx
	.loc 1 260 6
	movq	%rax, -864(%rbp)
.LVL166:
	.loc 1 261 2 is_stmt 1
	.loc 1 261 12
	movq	-240(%rbp), %r8
	movq	%rdx, -800(%rbp)
	movq	-376(%rbp), %r12
	movq	%r14, %rdx
	movq	%r13, %r14
	movq	-304(%rbp), %r9
	movq	-320(%rbp), %r10
	movq	-336(%rbp), %r11
	movq	-672(%rbp), %r13
	movq	-880(%rbp), %rdi
.LVL167:
	.p2align 4,,10
	.p2align 3
.L50:
	.loc 1 263 15
	.loc 1 265 7
	vmovsd	(%r11), %xmm1
	vmovsd	8(%r11), %xmm0
	.loc 1 265 21 is_stmt 0
	vmovsd	%xmm1, (%rcx,%rbx)
	vmovsd	%xmm0, 8(%rcx,%rbx)
	.loc 1 266 7 is_stmt 1
	vmovsd	(%r10), %xmm1
	vmovsd	8(%r10), %xmm0
	.loc 1 266 22 is_stmt 0
	vmovsd	%xmm1, (%r8,%rbx)
	vmovsd	%xmm0, 8(%r8,%rbx)
	.loc 1 263 20 is_stmt 1
.LVL168:
	.loc 1 263 15
	.loc 1 265 7
	vmovsd	16(%r11), %xmm1
	vmovsd	24(%r11), %xmm0
	.loc 1 265 21 is_stmt 0
	vmovsd	%xmm1, 16(%rcx,%rbx)
	vmovsd	%xmm0, 24(%rcx,%rbx)
	.loc 1 266 7 is_stmt 1
	vmovsd	16(%r10), %xmm1
	vmovsd	24(%r10), %xmm0
	.loc 1 266 22 is_stmt 0
	vmovsd	%xmm1, 16(%r8,%rbx)
	vmovsd	%xmm0, 24(%r8,%rbx)
	.loc 1 263 20 is_stmt 1
.LVL169:
	.loc 1 263 15
	.loc 1 265 7
	.loc 1 265 21 is_stmt 0
	vmovupd	32(%r11), %xmm5
	vmovupd	%xmm5, 32(%rcx,%rbx)
	.loc 1 266 7 is_stmt 1
	.loc 1 266 22 is_stmt 0
	vmovupd	32(%r10), %xmm6
	vmovupd	%xmm6, 32(%r8,%rbx)
	.loc 1 263 20 is_stmt 1
.LVL170:
	.loc 1 263 15
	.loc 1 269 15
	.loc 1 271 7
	vmovupd	32(%r13), %ymm2
	vmovupd	96(%r13), %ymm0
	.loc 1 269 20
.LVL171:
	.loc 1 269 15
	.loc 1 271 7
	.loc 1 269 20
	.loc 1 269 15
	.loc 1 271 7
	.loc 1 269 20
	.loc 1 269 15
	.loc 1 271 7
	.loc 1 269 20
	.loc 1 269 15
	.loc 1 271 7
	.loc 1 269 20
	.loc 1 269 15
	.loc 1 271 7
	.loc 1 269 20
	.loc 1 269 15
	.loc 1 271 7
	.loc 1 269 20
	.loc 1 269 15
	.loc 1 271 7
	vmovupd	64(%r13), %ymm1
	.loc 1 271 20 is_stmt 0
	vmovupd	0(%r13), %ymm7
	vmovupd	%ymm2, 32(%rdi)
	vmovupd	%ymm7, (%rdi)
	vmovupd	%ymm1, 64(%rdi)
	vmovupd	%ymm0, 96(%rdi)
	.loc 1 269 20 is_stmt 1
.LVL172:
	.loc 1 269 15
	.loc 1 271 7
	.loc 1 271 20 is_stmt 0
	vmovupd	128(%r13), %xmm5
	vmovupd	%xmm5, 128(%rdi)
	.loc 1 269 20 is_stmt 1
.LVL173:
	.loc 1 269 15
	.loc 1 275 3
	vmovupd	(%rsi), %xmm0
	vmovlpd	%xmm0, -464(%rbp)
	vpermilpd	$3, %xmm0, %xmm13
	vpermilpd	$0, %xmm0, %xmm12
	vmovhpd	%xmm0, -400(%rbp)
	vmovupd	(%rcx), %xmm2
	vpermilpd	$1, %xmm2, %xmm4
	vmulpd	%xmm13, %xmm4, %xmm4
	vfmaddsub231pd	%xmm2, %xmm12, %xmm4
	vunpckhpd	%xmm4, %xmm4, %xmm0
	vucomisd	%xmm0, %xmm4
	jp	.L85
.L30:
	.loc 1 275 3
	movq	-800(%rbp), %rax
	vmovupd	(%r14), %xmm2
	vmovupd	(%rax), %xmm0
	vpermilpd	$0, %xmm0, %xmm10
	vpermilpd	$3, %xmm0, %xmm11
	vmovlpd	%xmm0, -416(%rbp)
	vmovhpd	%xmm0, -432(%rbp)
	vpermilpd	$1, %xmm2, %xmm0
	vmulpd	%xmm11, %xmm0, %xmm0
	vfmaddsub231pd	%xmm2, %xmm10, %xmm0
	vunpckhpd	%xmm0, %xmm0, %xmm1
	vucomisd	%xmm1, %xmm0
	jp	.L86
.L31:
	movq	-704(%rbp), %rax
	vmovupd	(%rdx), %xmm8
	vaddpd	%xmm0, %xmm4, %xmm4
	.loc 1 275 3
	vmovupd	(%rax), %xmm0
	vpermilpd	$1, %xmm8, %xmm1
	vmovhpd	%xmm8, -352(%rbp)
	vpermilpd	$0, %xmm8, %xmm15
	vmovlpd	%xmm8, -336(%rbp)
	vpermilpd	$3, %xmm0, %xmm7
	vpermilpd	$0, %xmm0, %xmm9
	vmovlpd	%xmm0, -448(%rbp)
	vmulpd	%xmm7, %xmm1, %xmm1
	vmovhpd	%xmm0, -528(%rbp)
	vfmaddsub231pd	%xmm8, %xmm9, %xmm1
	vpermilpd	$3, %xmm8, %xmm8
	vunpckhpd	%xmm1, %xmm1, %xmm0
	vucomisd	%xmm0, %xmm1
	jp	.L87
.L32:
	vaddpd	%xmm1, %xmm4, %xmm4
	movq	-720(%rbp), %rax
	vmovupd	%xmm4, (%r12,%rbx)
	.loc 1 275 3
	vmovupd	(%rcx), %xmm5
	vmovupd	(%rax), %xmm0
	vpermilpd	$1, %xmm5, %xmm4
	vpermilpd	$3, %xmm0, %xmm6
	vpermilpd	$0, %xmm0, %xmm3
	vmovhpd	%xmm5, -512(%rbp)
	vmulpd	%xmm6, %xmm4, %xmm4
	vmovlpd	%xmm5, -496(%rbp)
	vpermilpd	$0, %xmm5, %xmm14
	vmovapd	%xmm3, -272(%rbp)
	vmovlpd	%xmm0, -480(%rbp)
	vmovhpd	%xmm0, -576(%rbp)
	vfmaddsub231pd	%xmm3, %xmm5, %xmm4
	vpermilpd	$3, %xmm5, %xmm5
	vunpckhpd	%xmm4, %xmm4, %xmm1
	vucomisd	%xmm4, %xmm1
	jp	.L88
.L33:
	movq	-736(%rbp), %rax
	vmovupd	%xmm4, 16(%r12,%rbx)
	.loc 1 275 3
	vmovupd	(%rax), %xmm0
	vpermilpd	$3, %xmm0, %xmm2
	vpermilpd	$0, %xmm0, %xmm3
	vmovlpd	%xmm0, -560(%rbp)
	vmovapd	%xmm2, -240(%rbp)
	vmovupd	(%r14), %xmm2
	vmovhpd	%xmm0, -544(%rbp)
	vpermilpd	$1, %xmm2, %xmm1
	vmovapd	%xmm3, -288(%rbp)
	vmulpd	-240(%rbp), %xmm1, %xmm1
	vfmaddsub231pd	%xmm3, %xmm2, %xmm1
	vunpckhpd	%xmm1, %xmm1, %xmm0
	vucomisd	%xmm0, %xmm1
	jp	.L89
.L34:
	movq	-752(%rbp), %rax
	vaddpd	%xmm1, %xmm4, %xmm4
	.loc 1 275 3
	vmovupd	(%rax), %xmm0
	vpermilpd	$1, %xmm0, %xmm1
	vpermilpd	$0, %xmm0, %xmm3
	vmovhpd	%xmm0, -608(%rbp)
	vmulpd	%xmm8, %xmm1, %xmm1
	vmovlpd	%xmm0, -592(%rbp)
	vmovapd	%xmm3, -304(%rbp)
	vpermilpd	$3, %xmm0, %xmm3
	vmovapd	%xmm3, -320(%rbp)
	vfmaddsub231pd	%xmm0, %xmm15, %xmm1
	vunpckhpd	%xmm1, %xmm1, %xmm0
	vucomisd	%xmm0, %xmm1
	jp	.L90
.L35:
	vaddpd	%xmm1, %xmm4, %xmm4
	movq	-784(%rbp), %rax
	vmovupd	%xmm4, 16(%r12,%rbx)
	.loc 1 275 3
	vmovupd	(%rax), %xmm0
	vpermilpd	$1, %xmm0, %xmm4
	vmovhpd	%xmm0, -640(%rbp)
	vmulpd	%xmm5, %xmm4, %xmm4
	vpermilpd	$0, %xmm0, %xmm5
	vmovlpd	%xmm0, -624(%rbp)
	vmovapd	%xmm5, -336(%rbp)
	vpermilpd	$3, %xmm0, %xmm5
	vmovapd	%xmm5, -352(%rbp)
	vfmaddsub231pd	%xmm0, %xmm14, %xmm4
	vunpckhpd	%xmm4, %xmm4, %xmm0
	vucomisd	%xmm0, %xmm4
	jp	.L91
.L36:
	.loc 1 275 3
	movq	-768(%rbp), %rax
	vmovupd	(%r14), %xmm2
	vmovupd	(%rax), %xmm0
	vpermilpd	$1, %xmm2, %xmm1
	vpermilpd	$3, %xmm0, %xmm15
	vpermilpd	$0, %xmm0, %xmm5
	vmovlpd	%xmm0, -496(%rbp)
	vmulpd	%xmm15, %xmm1, %xmm1
	vmovhpd	%xmm0, -512(%rbp)
	vfmaddsub231pd	%xmm2, %xmm5, %xmm1
	vunpckhpd	%xmm1, %xmm1, %xmm0
	vucomisd	%xmm0, %xmm1
	jp	.L92
.L37:
	vaddpd	%xmm1, %xmm4, %xmm4
	movq	-688(%rbp), %rax
	vmovupd	%xmm4, 32(%r12,%rbx)
	.loc 1 275 3
	vmovupd	(%rax), %xmm0
	vmovupd	(%rdx), %xmm2
	vpermilpd	$3, %xmm0, %xmm14
	vpermilpd	$1, %xmm2, %xmm1
	vpermilpd	$0, %xmm0, %xmm8
	vmovlpd	%xmm0, -656(%rbp)
	vmulpd	%xmm14, %xmm1, %xmm1
	vmovhpd	%xmm0, -672(%rbp)
	vfmaddsub231pd	%xmm2, %xmm8, %xmm1
	vunpckhpd	%xmm1, %xmm1, %xmm0
	vucomisd	%xmm0, %xmm1
	jp	.L93
.L38:
	vaddpd	%xmm1, %xmm4, %xmm4
	vmovupd	%xmm4, 32(%r12,%rbx)
	.loc 1 276 3
	vmovupd	(%r8), %xmm2
	vpermilpd	$1, %xmm2, %xmm0
	vmulpd	%xmm13, %xmm0, %xmm0
	vfmaddsub132pd	%xmm2, %xmm0, %xmm12
	vunpckhpd	%xmm12, %xmm12, %xmm0
	vucomisd	%xmm0, %xmm12
	jp	.L94
.L39:
	.loc 1 276 3
	vmovupd	(%r15), %xmm2
	vpermilpd	$1, %xmm2, %xmm4
	vmulpd	%xmm11, %xmm4, %xmm4
	vfmaddsub231pd	%xmm2, %xmm10, %xmm4
	vunpckhpd	%xmm4, %xmm4, %xmm0
	vucomisd	%xmm0, %xmm4
	jp	.L95
.L40:
	movq	-256(%rbp), %rax
	vaddpd	%xmm4, %xmm12, %xmm4
	.loc 1 276 3
	vmovupd	(%rax), %xmm11
	vpermilpd	$1, %xmm11, %xmm10
	vmovhpd	%xmm11, -400(%rbp)
	vmovsd	%xmm11, %xmm11, %xmm13
	vmulpd	%xmm10, %xmm7, %xmm7
	vfmaddsub231pd	%xmm11, %xmm9, %xmm7
	vunpckhpd	%xmm7, %xmm7, %xmm0
	vucomisd	%xmm0, %xmm7
	jp	.L96
.L41:
	vaddpd	%xmm7, %xmm4, %xmm4
	vmovupd	%xmm4, (%r9,%rbx)
	.loc 1 276 3
	vmovupd	(%r8), %xmm7
	vpermilpd	$1, %xmm7, %xmm4
	vunpckhpd	%xmm7, %xmm7, %xmm12
	vmovsd	%xmm7, %xmm7, %xmm9
	vmulpd	%xmm4, %xmm6, %xmm6
	vfmaddsub231pd	-272(%rbp), %xmm7, %xmm6
	vunpckhpd	%xmm6, %xmm6, %xmm0
	vucomisd	%xmm0, %xmm6
	jp	.L97
.L42:
	vmovupd	%xmm6, 16(%r9,%rbx)
	.loc 1 276 3
	vmovupd	(%r15), %xmm2
	vpermilpd	$1, %xmm2, %xmm0
	vmulpd	-240(%rbp), %xmm0, %xmm0
	vfmaddsub231pd	-288(%rbp), %xmm2, %xmm0
	vunpckhpd	%xmm0, %xmm0, %xmm1
	vucomisd	%xmm1, %xmm0
	jp	.L98
.L43:
	vmulpd	-320(%rbp), %xmm10, %xmm10
	vaddpd	%xmm0, %xmm6, %xmm6
	.loc 1 276 3
	vfmaddsub231pd	-304(%rbp), %xmm11, %xmm10
	vunpckhpd	%xmm10, %xmm10, %xmm0
	vucomisd	%xmm0, %xmm10
	jp	.L99
.L44:
	vmulpd	-352(%rbp), %xmm4, %xmm4
	vaddpd	%xmm10, %xmm6, %xmm0
	vfmaddsub231pd	-336(%rbp), %xmm7, %xmm4
	vmovupd	%xmm0, 16(%r9,%rbx)
	.loc 1 276 3
	vunpckhpd	%xmm4, %xmm4, %xmm0
	vucomisd	%xmm0, %xmm4
	jp	.L100
.L45:
	.loc 1 276 3
	vmovupd	(%r15), %xmm2
	vpermilpd	$1, %xmm2, %xmm0
	vmulpd	%xmm15, %xmm0, %xmm0
	vfmaddsub132pd	%xmm2, %xmm0, %xmm5
	vunpckhpd	%xmm5, %xmm5, %xmm0
	vucomisd	%xmm0, %xmm5
	jp	.L101
.L46:
	vaddpd	%xmm5, %xmm4, %xmm5
	movq	-256(%rbp), %rax
	vmovupd	%xmm5, 32(%r9,%rbx)
	.loc 1 276 3
	vmovupd	(%rax), %xmm2
	vpermilpd	$1, %xmm2, %xmm0
	vmulpd	%xmm14, %xmm0, %xmm0
	vfmaddsub132pd	%xmm2, %xmm0, %xmm8
	vunpckhpd	%xmm8, %xmm8, %xmm0
	vucomisd	%xmm0, %xmm8
	jp	.L102
	vaddpd	%xmm8, %xmm5, %xmm5
	.loc 1 261 12 is_stmt 0
	addq	$48, %r11
	addq	$48, %r10
	movabsq	$4800000000, %rax
	addq	$144, %r13
	addq	$144, %rdi
	.loc 1 276 3
	vmovupd	%xmm5, 32(%r9,%rbx)
	.loc 1 261 18 is_stmt 1
.LVL174:
	.loc 1 261 12
	addq	$48, %rbx
.LVL175:
	cmpq	%rax, %rbx
	jne	.L50
	movq	%rsi, %r12
	vzeroupper
.LVL176:
.L49:
	movq	%r9, -272(%rbp)
	movq	%r8, -256(%rbp)
	movq	%rcx, -240(%rbp)
	.loc 1 282 3
	.loc 1 282 6 is_stmt 0
	call	clock
.LVL177:
	movq	%rax, %rbx
.LVL178:
	.loc 1 284 5 is_stmt 1
	.loc 1 284 9 is_stmt 0
	call	omp_get_wtime
.LVL179:
	.loc 1 286 3
	xorl	%esi, %esi
	leaq	-208(%rbp), %rdi
	.loc 1 284 9
	vmovq	%xmm0, %r13
.LVL180:
	.loc 1 286 3 is_stmt 1
	call	gettimeofday
.LVL181:
	.loc 1 287 3
	leaq	-224(%rbp), %rdx
	leaq	-208(%rbp), %rsi
	leaq	-192(%rbp), %rdi
	call	timeval_subtract
.LVL182:
	.loc 1 289 5
	vxorpd	%xmm6, %xmm6, %xmm6
	movl	$.LC2, %edx
	xorl	%esi, %esi
	.loc 1 289 87 is_stmt 0
	movq	-864(%rbp), %rax
	.loc 1 289 5
	movl	$.LC7, %edi
	.loc 1 289 87
	subq	%rax, %rbx
.LVL183:
	.loc 1 289 5
	movl	$1, %eax
	vcvtsi2sdq	%rbx, %xmm6, %xmm0
	vdivsd	.LC1(%rip), %xmm0, %xmm0
	call	lprintf
.LVL184:
	.loc 1 291 5 is_stmt 1
	vmovq	%r13, %xmm7
	movl	$.LC4, %edx
	xorl	%esi, %esi
	vsubsd	-848(%rbp), %xmm7, %xmm0
	movl	$.LC7, %edi
	movl	$1, %eax
	call	lprintf
.LVL185:
	.loc 1 293 5
	.loc 1 293 118 is_stmt 0
	vxorpd	%xmm6, %xmm6, %xmm6
	.loc 1 293 5
	movl	$.LC6, %edx
	xorl	%esi, %esi
	.loc 1 293 118
	vcvtsi2sdq	-184(%rbp), %xmm6, %xmm1
	.loc 1 293 5
	movl	$.LC7, %edi
	movl	$1, %eax
	vcvtsi2sdq	-192(%rbp), %xmm6, %xmm0
	vfmadd231sd	.LC5(%rip), %xmm1, %xmm0
	call	lprintf
.LVL186:
	.loc 1 302 1 is_stmt 1
	.loc 1 302 15
	movq	-240(%rbp), %rcx
	.loc 1 293 5 is_stmt 0
	xorl	%eax, %eax
	movq	-256(%rbp), %r8
	movq	-272(%rbp), %r9
	movq	%r12, -336(%rbp)
	movq	%rcx, -352(%rbp)
	movq	%r8, -400(%rbp)
	movq	%r9, -320(%rbp)
.LVL187:
	.p2align 4,,10
	.p2align 3
.L51:
	.loc 1 304 13 is_stmt 1
	.loc 1 306 10 is_stmt 0
	movq	-360(%rbp), %rsi
	.loc 1 311 11
	movq	-376(%rbp), %rdx
	movq	%rax, -304(%rbp)
	.loc 1 313 11
	xorl	%r15d, %r15d
	.loc 1 306 10
	leaq	(%rsi,%rax), %r14
	.loc 1 308 10
	movq	-368(%rbp), %rsi
	.loc 1 311 11
	leaq	(%rdx,%rax), %r12
	.loc 1 308 10
	leaq	(%rsi,%rax), %r13
	.loc 1 313 11
	movq	-320(%rbp), %rsi
	leaq	(%rsi,%rax), %rbx
.LVL188:
.L57:
	.loc 1 306 3 is_stmt 1
	.loc 1 306 8 is_stmt 0
	vmovsd	(%r14,%r15), %xmm3
.LVL189:
	.loc 1 307 3 is_stmt 1
	.loc 1 316 10 is_stmt 0
	vsubsd	(%r12,%r15), %xmm3, %xmm0
	.loc 1 316 3
	movl	$1, %edi
	.loc 1 309 8
	vmovsd	8(%r13,%r15), %xmm6
	.loc 1 314 9
	vmovsd	8(%rbx,%r15), %xmm5
	.loc 1 307 8
	vmovsd	8(%r14,%r15), %xmm4
.LVL190:
	.loc 1 308 3 is_stmt 1
	.loc 1 308 8 is_stmt 0
	vmovsd	0(%r13,%r15), %xmm2
.LVL191:
	.loc 1 309 3 is_stmt 1
	.loc 1 316 10 is_stmt 0
	vdivsd	%xmm3, %xmm0, %xmm0
	.loc 1 309 8
	vmovsd	%xmm6, -272(%rbp)
.LVL192:
	.loc 1 311 3 is_stmt 1
	.loc 1 312 3
	.loc 1 313 9 is_stmt 0
	vmovsd	(%rbx,%r15), %xmm6
.LVL193:
	.loc 1 312 9
	vmovsd	8(%r12,%r15), %xmm1
.LVL194:
	.loc 1 313 3 is_stmt 1
	.loc 1 314 9 is_stmt 0
	vmovsd	%xmm5, -288(%rbp)
	.loc 1 313 9
	vmovsd	%xmm6, -240(%rbp)
.LVL195:
	.loc 1 314 3 is_stmt 1
	.loc 1 316 3
	.loc 1 316 10 is_stmt 0
	vandpd	.LC8(%rip), %xmm0, %xmm0
	.loc 1 316 3
	vcomisd	.LC9(%rip), %xmm0
	ja	.L52
	.loc 1 316 51 discriminator 2
	vsubsd	%xmm1, %xmm4, %xmm1
.LVL196:
	.loc 1 316 3 discriminator 2
	xorl	%edi, %edi
	.loc 1 316 51 discriminator 2
	vdivsd	%xmm4, %xmm1, %xmm1
	vandpd	.LC8(%rip), %xmm1, %xmm1
	.loc 1 316 3 discriminator 2
	vcomisd	.LC9(%rip), %xmm1
	seta	%dil
.L52:
	.loc 1 316 3 discriminator 6
	movl	$.LC10, %ecx
	movl	$.LC11, %edx
	movl	$1, %esi
	vmovsd	%xmm2, -256(%rbp)
	call	error
.LVL197:
	.loc 1 317 3 is_stmt 1 discriminator 6
	.loc 1 317 10 is_stmt 0 discriminator 6
	vmovsd	-256(%rbp), %xmm2
	vsubsd	-240(%rbp), %xmm2, %xmm0
	vdivsd	%xmm2, %xmm0, %xmm0
	vandpd	.LC8(%rip), %xmm0, %xmm0
	.loc 1 317 3 discriminator 6
	vcomisd	.LC9(%rip), %xmm0
	ja	.L53
	.loc 1 317 52 discriminator 2
	vmovsd	-272(%rbp), %xmm3
	vsubsd	-288(%rbp), %xmm3, %xmm0
	.loc 1 317 3 discriminator 2
	xorl	%edi, %edi
	movl	$.LC12, %ecx
	movl	$.LC13, %edx
	movl	$1, %esi
	.loc 1 317 52 discriminator 2
	vdivsd	%xmm3, %xmm0, %xmm0
	vandpd	.LC8(%rip), %xmm0, %xmm0
	.loc 1 317 3 discriminator 2
	vcomisd	.LC9(%rip), %xmm0
	seta	%dil
	.loc 1 304 13 discriminator 2
	addq	$16, %r15
.LVL198:
	.loc 1 317 3 discriminator 2
	call	error
.LVL199:
	.loc 1 319 3 is_stmt 1 discriminator 2
	.loc 1 320 3 discriminator 2
	.loc 1 321 3 discriminator 2
	.loc 1 322 3 discriminator 2
	.loc 1 324 3 discriminator 2
	.loc 1 325 3 discriminator 2
	.loc 1 326 3 discriminator 2
	.loc 1 327 3 discriminator 2
	.loc 1 304 18 discriminator 2
	.loc 1 304 13 discriminator 2
	cmpq	$48, %r15
	jne	.L57
.L64:
	movq	-304(%rbp), %rax
	.loc 1 302 22
.LVL200:
	.loc 1 302 15
	movabsq	$4800000000, %rsi
	addq	$48, %rax
.LVL201:
	cmpq	%rsi, %rax
	jne	.L51
	.loc 1 332 3 is_stmt 0
	movq	-336(%rbp), %r12
	movq	-352(%rbp), %rcx
	movq	-400(%rbp), %r8
	movq	-320(%rbp), %r9
	movq	%r12, %rdi
	movq	%rcx, -272(%rbp)
	movq	%r8, -256(%rbp)
	movq	%r9, -240(%rbp)
	.loc 1 332 3 is_stmt 1
	call	afree
.LVL202:
	.loc 1 333 3
	movq	-272(%rbp), %rdi
	call	afree
.LVL203:
	.loc 1 334 3
	movq	-256(%rbp), %rdi
	call	afree
.LVL204:
	.loc 1 335 3
	movq	-360(%rbp), %rdi
	call	afree
.LVL205:
	.loc 1 336 3
	movq	-368(%rbp), %rdi
	call	afree
.LVL206:
	.loc 1 337 3
	movq	-824(%rbp), %rdi
	call	afree
.LVL207:
	.loc 1 338 3
	movq	-832(%rbp), %rdi
	call	afree
.LVL208:
	.loc 1 339 3
	movq	-376(%rbp), %rdi
	call	afree
.LVL209:
	.loc 1 340 3
	movq	-240(%rbp), %rdi
	call	afree
.LVL210:
	.loc 1 341 3
	movq	-808(%rbp), %rdi
	call	afree
.LVL211:
	.loc 1 342 3
	movq	-816(%rbp), %rdi
	call	afree
.LVL212:
	.loc 1 343 3
	movq	-384(%rbp), %rdi
	call	afree
.LVL213:
	.loc 1 345 3
	.loc 1 346 1 is_stmt 0
	addq	$1088, %rsp
	xorl	%eax, %eax
	popq	%rbx
	popq	%r10
	.cfi_remember_state
	.cfi_def_cfa 10, 0
	popq	%r12
	popq	%r13
	popq	%r14
	popq	%r15
	popq	%rbp
.LVL214:
	leaq	-8(%r10), %rsp
	.cfi_def_cfa 7, 8
	ret
.LVL215:
	.p2align 4,,10
	.p2align 3
.L53:
	.cfi_restore_state
	.loc 1 317 3 discriminator 6
	movl	$.LC12, %ecx
	movl	$.LC13, %edx
	movl	$1, %esi
	movl	$1, %edi
	call	error
.LVL216:
	.loc 1 319 3 is_stmt 1 discriminator 6
	.loc 1 320 3 discriminator 6
	.loc 1 321 3 discriminator 6
	.loc 1 322 3 discriminator 6
	.loc 1 324 3 discriminator 6
	.loc 1 325 3 discriminator 6
	.loc 1 326 3 discriminator 6
	.loc 1 327 3 discriminator 6
	.loc 1 304 18 discriminator 6
	.loc 1 304 13 discriminator 6
	addq	$16, %r15
.LVL217:
	cmpq	$48, %r15
	jne	.L57
	jmp	.L64
.LVL218:
.L66:
	.loc 1 121 5
	movl	$.LC0, %edi
	call	puts
.LVL219:
	jmp	.L2
.LVL220:
.L102:
	movq	%rdi, -416(%rbp)
	vmovsd	-656(%rbp), %xmm0
	vunpckhpd	%xmm2, %xmm2, %xmm3
	movq	%rdx, -400(%rbp)
	vmovsd	-672(%rbp), %xmm1
	movq	%r11, -352(%rbp)
	movq	%r10, -336(%rbp)
	movq	%r9, -320(%rbp)
	movq	%r8, -304(%rbp)
	movq	%rcx, -288(%rbp)
	movq	%rsi, -272(%rbp)
	vmovapd	%xmm5, -240(%rbp)
	vzeroupper
.LVL221:
	call	__muldc3
.LVL222:
	.loc 1 276 3 is_stmt 0
	vmovapd	-240(%rbp), %xmm5
	movq	-320(%rbp), %r9
	vunpcklpd	%xmm1, %xmm0, %xmm1
	.loc 1 261 12
	movq	-352(%rbp), %r11
	movq	-336(%rbp), %r10
	movl	$1171875, %eax
	.loc 1 276 3
	vaddpd	%xmm5, %xmm1, %xmm0
	.loc 1 261 12
	movq	-416(%rbp), %rdi
	salq	$12, %rax
	addq	$144, %r13
	addq	$48, %r11
	addq	$48, %r10
	movq	-272(%rbp), %rsi
	movq	-288(%rbp), %rcx
	addq	$144, %rdi
	movq	-304(%rbp), %r8
	movq	-400(%rbp), %rdx
	.loc 1 276 3
	vmovupd	%xmm0, 32(%r9,%rbx)
	.loc 1 261 18 is_stmt 1
.LVL223:
	.loc 1 261 12
	addq	$48, %rbx
.LVL224:
	cmpq	%rax, %rbx
	jne	.L50
	movq	%rsi, %r12
	jmp	.L49
.LVL225:
.L101:
	movq	%rdi, -448(%rbp)
	vmovsd	-512(%rbp), %xmm1
	vunpckhpd	%xmm2, %xmm2, %xmm3
	movq	%rdx, -432(%rbp)
	vmovsd	-496(%rbp), %xmm0
	movq	%r11, -416(%rbp)
	movq	%r10, -400(%rbp)
	movq	%r9, -352(%rbp)
	movq	%r8, -336(%rbp)
	movq	%rcx, -320(%rbp)
	movq	%rsi, -304(%rbp)
	vmovapd	%xmm4, -288(%rbp)
	vmovapd	%xmm14, -272(%rbp)
	vmovapd	%xmm8, -240(%rbp)
	vzeroupper
.LVL226:
	call	__muldc3
.LVL227:
	movq	-448(%rbp), %rdi
	movq	-432(%rbp), %rdx
	movq	-416(%rbp), %r11
	movq	-400(%rbp), %r10
	vunpcklpd	%xmm1, %xmm0, %xmm5
	movq	-352(%rbp), %r9
	movq	-336(%rbp), %r8
	movq	-320(%rbp), %rcx
	movq	-304(%rbp), %rsi
	vmovapd	-288(%rbp), %xmm4
	vmovapd	-272(%rbp), %xmm14
	vmovapd	-240(%rbp), %xmm8
	jmp	.L46
.L100:
	movq	%rdi, -464(%rbp)
	vmovsd	%xmm12, %xmm12, %xmm3
	vmovsd	%xmm9, %xmm9, %xmm2
	vmovsd	-640(%rbp), %xmm1
	movq	%rdx, -448(%rbp)
	vmovsd	-624(%rbp), %xmm0
	movq	%r11, -432(%rbp)
	movq	%r10, -416(%rbp)
	movq	%r9, -400(%rbp)
	movq	%r8, -352(%rbp)
	movq	%rcx, -336(%rbp)
	movq	%rsi, -320(%rbp)
	vmovapd	%xmm14, -304(%rbp)
	vmovapd	%xmm8, -288(%rbp)
	vmovapd	%xmm15, -272(%rbp)
	vmovapd	%xmm5, -240(%rbp)
	vzeroupper
.LVL228:
	call	__muldc3
.LVL229:
	movq	-464(%rbp), %rdi
	movq	-448(%rbp), %rdx
	movq	-432(%rbp), %r11
	movq	-416(%rbp), %r10
	vunpcklpd	%xmm1, %xmm0, %xmm4
	movq	-400(%rbp), %r9
	movq	-352(%rbp), %r8
	movq	-336(%rbp), %rcx
	movq	-320(%rbp), %rsi
	vmovapd	-304(%rbp), %xmm14
	vmovapd	-288(%rbp), %xmm8
	vmovapd	-272(%rbp), %xmm15
	vmovapd	-240(%rbp), %xmm5
	jmp	.L45
.L99:
	movq	%rdi, -912(%rbp)
	vmovsd	-608(%rbp), %xmm1
	vmovsd	%xmm13, %xmm13, %xmm2
	movq	%rdx, -896(%rbp)
	vmovsd	-592(%rbp), %xmm0
	movq	%r11, -880(%rbp)
	vmovsd	-400(%rbp), %xmm3
	movq	%r10, -576(%rbp)
	movq	%r9, -560(%rbp)
	movq	%r8, -544(%rbp)
	movq	%rcx, -528(%rbp)
	movq	%rsi, -480(%rbp)
	vmovapd	%xmm6, -464(%rbp)
	vmovapd	%xmm4, -448(%rbp)
	vmovsd	%xmm12, -432(%rbp)
	vmovsd	%xmm9, -416(%rbp)
	vmovapd	%xmm7, -320(%rbp)
	vmovapd	%xmm14, -304(%rbp)
	vmovapd	%xmm8, -288(%rbp)
	vmovapd	%xmm15, -272(%rbp)
	vmovapd	%xmm5, -240(%rbp)
	vzeroupper
.LVL230:
	call	__muldc3
.LVL231:
	movq	-912(%rbp), %rdi
	movq	-896(%rbp), %rdx
	movq	-880(%rbp), %r11
	movq	-576(%rbp), %r10
	vunpcklpd	%xmm1, %xmm0, %xmm10
	movq	-560(%rbp), %r9
	movq	-544(%rbp), %r8
	movq	-528(%rbp), %rcx
	movq	-480(%rbp), %rsi
	vmovapd	-464(%rbp), %xmm6
	vmovapd	-448(%rbp), %xmm4
	vmovsd	-432(%rbp), %xmm12
	vmovsd	-416(%rbp), %xmm9
	vmovapd	-320(%rbp), %xmm7
	vmovapd	-304(%rbp), %xmm14
	vmovapd	-288(%rbp), %xmm8
	vmovapd	-272(%rbp), %xmm15
	vmovapd	-240(%rbp), %xmm5
	jmp	.L44
.L98:
	movq	%rdi, -1024(%rbp)
	vmovsd	-544(%rbp), %xmm1
	vunpckhpd	%xmm2, %xmm2, %xmm3
	movq	%rdx, -1008(%rbp)
	vmovsd	-560(%rbp), %xmm0
	movq	%r11, -992(%rbp)
	movq	%r10, -976(%rbp)
	movq	%r9, -960(%rbp)
	movq	%r8, -944(%rbp)
	movq	%rcx, -928(%rbp)
	movq	%rsi, -912(%rbp)
	vmovapd	%xmm6, -896(%rbp)
	vmovapd	%xmm4, -880(%rbp)
	vmovsd	%xmm12, -576(%rbp)
	vmovsd	%xmm9, -528(%rbp)
	vmovapd	%xmm7, -480(%rbp)
	vmovapd	%xmm10, -464(%rbp)
	vmovsd	%xmm13, -448(%rbp)
	vmovapd	%xmm11, -432(%rbp)
	vmovapd	%xmm14, -416(%rbp)
	vmovapd	%xmm8, -288(%rbp)
	vmovapd	%xmm15, -272(%rbp)
	vmovapd	%xmm5, -240(%rbp)
	vzeroupper
.LVL232:
	call	__muldc3
.LVL233:
	movq	-1024(%rbp), %rdi
	movq	-1008(%rbp), %rdx
	movq	-992(%rbp), %r11
	movq	-976(%rbp), %r10
	vunpcklpd	%xmm1, %xmm0, %xmm0
	movq	-960(%rbp), %r9
	movq	-944(%rbp), %r8
	movq	-928(%rbp), %rcx
	movq	-912(%rbp), %rsi
	vmovapd	-896(%rbp), %xmm6
	vmovapd	-880(%rbp), %xmm4
	vmovsd	-576(%rbp), %xmm12
	vmovsd	-528(%rbp), %xmm9
	vmovapd	-480(%rbp), %xmm7
	vmovapd	-464(%rbp), %xmm10
	vmovsd	-448(%rbp), %xmm13
	vmovapd	-432(%rbp), %xmm11
	vmovapd	-416(%rbp), %xmm14
	vmovapd	-288(%rbp), %xmm8
	vmovapd	-272(%rbp), %xmm15
	vmovapd	-240(%rbp), %xmm5
	jmp	.L43
.L97:
	movq	%rdi, -1064(%rbp)
	vmovsd	%xmm12, %xmm12, %xmm3
	vmovsd	%xmm7, %xmm7, %xmm2
	vmovsd	-576(%rbp), %xmm1
	movq	%rdx, -1056(%rbp)
	vmovsd	-480(%rbp), %xmm0
	movq	%r11, -1040(%rbp)
	movq	%r10, -1024(%rbp)
	movq	%r9, -1008(%rbp)
	movq	%r8, -992(%rbp)
	movq	%rcx, -976(%rbp)
	movq	%rsi, -960(%rbp)
	vmovapd	%xmm4, -944(%rbp)
	vmovapd	%xmm7, -928(%rbp)
	vmovapd	%xmm10, -912(%rbp)
	vmovsd	%xmm13, -896(%rbp)
	vmovapd	%xmm11, -880(%rbp)
	vmovapd	%xmm14, -528(%rbp)
	vmovapd	%xmm8, -464(%rbp)
	vmovapd	%xmm15, -448(%rbp)
	vmovapd	%xmm5, -432(%rbp)
	vmovsd	%xmm12, -416(%rbp)
	vmovsd	%xmm7, -272(%rbp)
	vzeroupper
.LVL234:
	call	__muldc3
.LVL235:
	movq	-1064(%rbp), %rdi
	movq	-1056(%rbp), %rdx
	movq	-1040(%rbp), %r11
	movq	-1024(%rbp), %r10
	vunpcklpd	%xmm1, %xmm0, %xmm6
	movq	-1008(%rbp), %r9
	movq	-992(%rbp), %r8
	movq	-976(%rbp), %rcx
	movq	-960(%rbp), %rsi
	vmovapd	-944(%rbp), %xmm4
	vmovapd	-928(%rbp), %xmm7
	vmovapd	-912(%rbp), %xmm10
	vmovsd	-896(%rbp), %xmm13
	vmovapd	-880(%rbp), %xmm11
	vmovapd	-528(%rbp), %xmm14
	vmovapd	-464(%rbp), %xmm8
	vmovapd	-448(%rbp), %xmm15
	vmovapd	-432(%rbp), %xmm5
	vmovsd	-416(%rbp), %xmm12
	vmovsd	-272(%rbp), %xmm9
	jmp	.L42
.L96:
	movq	%rdi, -1072(%rbp)
	vmovsd	-528(%rbp), %xmm1
	vmovsd	%xmm11, %xmm11, %xmm2
	movq	%rdx, -1064(%rbp)
	vmovsd	-448(%rbp), %xmm0
	movq	%r11, -1056(%rbp)
	vmovsd	-400(%rbp), %xmm3
	movq	%r10, -1040(%rbp)
	movq	%r9, -1024(%rbp)
	movq	%r8, -1008(%rbp)
	movq	%rcx, -992(%rbp)
	movq	%rsi, -976(%rbp)
	vmovapd	%xmm10, -960(%rbp)
	vmovapd	%xmm11, -944(%rbp)
	vmovapd	%xmm4, -928(%rbp)
	vmovapd	%xmm14, -912(%rbp)
	vmovapd	%xmm8, -896(%rbp)
	vmovapd	%xmm15, -880(%rbp)
	vmovapd	%xmm5, -464(%rbp)
	vmovapd	%xmm6, -432(%rbp)
	vmovsd	%xmm11, -416(%rbp)
	vzeroupper
.LVL236:
	call	__muldc3
.LVL237:
	movq	-1072(%rbp), %rdi
	movq	-1064(%rbp), %rdx
	movq	-1056(%rbp), %r11
	movq	-1040(%rbp), %r10
	vunpcklpd	%xmm1, %xmm0, %xmm7
	movq	-1024(%rbp), %r9
	movq	-1008(%rbp), %r8
	movq	-992(%rbp), %rcx
	movq	-976(%rbp), %rsi
	vmovapd	-960(%rbp), %xmm10
	vmovapd	-944(%rbp), %xmm11
	vmovapd	-928(%rbp), %xmm4
	vmovapd	-912(%rbp), %xmm14
	vmovapd	-896(%rbp), %xmm8
	vmovapd	-880(%rbp), %xmm15
	vmovapd	-464(%rbp), %xmm5
	vmovapd	-432(%rbp), %xmm6
	vmovsd	-416(%rbp), %xmm13
	jmp	.L41
.L95:
	movq	%rdi, -1072(%rbp)
	vmovsd	-432(%rbp), %xmm1
	vunpckhpd	%xmm2, %xmm2, %xmm3
	movq	%rdx, -1064(%rbp)
	vmovsd	-416(%rbp), %xmm0
	movq	%r11, -1056(%rbp)
	movq	%r10, -1040(%rbp)
	movq	%r9, -1024(%rbp)
	movq	%r8, -1008(%rbp)
	movq	%rcx, -992(%rbp)
	movq	%rsi, -976(%rbp)
	vmovapd	%xmm12, -960(%rbp)
	vmovapd	%xmm14, -944(%rbp)
	vmovapd	%xmm8, -928(%rbp)
	vmovapd	%xmm15, -912(%rbp)
	vmovapd	%xmm5, -896(%rbp)
	vmovapd	%xmm7, -880(%rbp)
	vmovapd	%xmm6, -464(%rbp)
	vmovapd	%xmm9, -400(%rbp)
	vzeroupper
.LVL238:
	call	__muldc3
.LVL239:
	movq	-1072(%rbp), %rdi
	movq	-1064(%rbp), %rdx
	movq	-1056(%rbp), %r11
	movq	-1040(%rbp), %r10
	vunpcklpd	%xmm1, %xmm0, %xmm4
	movq	-1024(%rbp), %r9
	movq	-1008(%rbp), %r8
	movq	-992(%rbp), %rcx
	movq	-976(%rbp), %rsi
	vmovapd	-960(%rbp), %xmm12
	vmovapd	-944(%rbp), %xmm14
	vmovapd	-928(%rbp), %xmm8
	vmovapd	-912(%rbp), %xmm15
	vmovapd	-896(%rbp), %xmm5
	vmovapd	-880(%rbp), %xmm7
	vmovapd	-464(%rbp), %xmm6
	vmovapd	-400(%rbp), %xmm9
	jmp	.L40
.L94:
	movq	%rdi, -1096(%rbp)
	vmovsd	-400(%rbp), %xmm1
	vunpckhpd	%xmm2, %xmm2, %xmm3
	movq	%rdx, -1088(%rbp)
	vmovsd	-464(%rbp), %xmm0
	movq	%r11, -1080(%rbp)
	movq	%r10, -1072(%rbp)
	movq	%r9, -1064(%rbp)
	movq	%r8, -1056(%rbp)
	movq	%rcx, -1040(%rbp)
	movq	%rsi, -1024(%rbp)
	vmovapd	%xmm14, -1008(%rbp)
	vmovapd	%xmm8, -992(%rbp)
	vmovapd	%xmm15, -976(%rbp)
	vmovapd	%xmm5, -960(%rbp)
	vmovapd	%xmm7, -944(%rbp)
	vmovapd	%xmm6, -928(%rbp)
	vmovapd	%xmm9, -912(%rbp)
	vmovapd	%xmm11, -896(%rbp)
	vmovapd	%xmm10, -880(%rbp)
	vzeroupper
.LVL240:
	call	__muldc3
.LVL241:
	movq	-1096(%rbp), %rdi
	movq	-1088(%rbp), %rdx
	movq	-1080(%rbp), %r11
	movq	-1072(%rbp), %r10
	vunpcklpd	%xmm1, %xmm0, %xmm12
	movq	-1064(%rbp), %r9
	movq	-1056(%rbp), %r8
	movq	-1040(%rbp), %rcx
	movq	-1024(%rbp), %rsi
	vmovapd	-1008(%rbp), %xmm14
	vmovapd	-992(%rbp), %xmm8
	vmovapd	-976(%rbp), %xmm15
	vmovapd	-960(%rbp), %xmm5
	vmovapd	-944(%rbp), %xmm7
	vmovapd	-928(%rbp), %xmm6
	vmovapd	-912(%rbp), %xmm9
	vmovapd	-896(%rbp), %xmm11
	vmovapd	-880(%rbp), %xmm10
	jmp	.L39
.L93:
	movq	%rdi, -1120(%rbp)
	vmovsd	-672(%rbp), %xmm1
	vunpckhpd	%xmm2, %xmm2, %xmm3
	movq	%rdx, -1112(%rbp)
	vmovsd	-656(%rbp), %xmm0
	movq	%r11, -1104(%rbp)
	movq	%r10, -1096(%rbp)
	movq	%r9, -1088(%rbp)
	movq	%r8, -1080(%rbp)
	movq	%rcx, -1072(%rbp)
	movq	%rsi, -1064(%rbp)
	vmovapd	%xmm14, -1056(%rbp)
	vmovapd	%xmm8, -1040(%rbp)
	vmovapd	%xmm4, -1024(%rbp)
	vmovapd	%xmm15, -1008(%rbp)
	vmovapd	%xmm5, -992(%rbp)
	vmovapd	%xmm7, -976(%rbp)
	vmovapd	%xmm6, -960(%rbp)
	vmovapd	%xmm9, -944(%rbp)
	vmovapd	%xmm11, -928(%rbp)
	vmovapd	%xmm10, -912(%rbp)
	vmovapd	%xmm13, -896(%rbp)
	vmovapd	%xmm12, -880(%rbp)
	vzeroupper
.LVL242:
	call	__muldc3
.LVL243:
	movq	-1120(%rbp), %rdi
	movq	-1112(%rbp), %rdx
	movq	-1104(%rbp), %r11
	movq	-1096(%rbp), %r10
	vunpcklpd	%xmm1, %xmm0, %xmm1
	movq	-1088(%rbp), %r9
	movq	-1080(%rbp), %r8
	movq	-1072(%rbp), %rcx
	movq	-1064(%rbp), %rsi
	vmovapd	-1056(%rbp), %xmm14
	vmovapd	-1040(%rbp), %xmm8
	vmovapd	-1024(%rbp), %xmm4
	vmovapd	-1008(%rbp), %xmm15
	vmovapd	-992(%rbp), %xmm5
	vmovapd	-976(%rbp), %xmm7
	vmovapd	-960(%rbp), %xmm6
	vmovapd	-944(%rbp), %xmm9
	vmovapd	-928(%rbp), %xmm11
	vmovapd	-912(%rbp), %xmm10
	vmovapd	-896(%rbp), %xmm13
	vmovapd	-880(%rbp), %xmm12
	jmp	.L38
.L92:
	movq	%rdi, -1088(%rbp)
	vmovsd	-512(%rbp), %xmm1
	vunpckhpd	%xmm2, %xmm2, %xmm3
	movq	%rdx, -1080(%rbp)
	vmovsd	-496(%rbp), %xmm0
	movq	%r11, -1072(%rbp)
	movq	%r10, -1064(%rbp)
	movq	%r9, -1056(%rbp)
	movq	%r8, -1040(%rbp)
	movq	%rcx, -1024(%rbp)
	movq	%rsi, -1008(%rbp)
	vmovapd	%xmm15, -992(%rbp)
	vmovapd	%xmm5, -976(%rbp)
	vmovapd	%xmm4, -960(%rbp)
	vmovapd	%xmm7, -944(%rbp)
	vmovapd	%xmm6, -928(%rbp)
	vmovapd	%xmm9, -912(%rbp)
	vmovapd	%xmm11, -896(%rbp)
	vmovapd	%xmm10, -880(%rbp)
	vmovapd	%xmm13, -672(%rbp)
	vmovapd	%xmm12, -656(%rbp)
	vzeroupper
.LVL244:
	call	__muldc3
.LVL245:
	movq	-1088(%rbp), %rdi
	movq	-1080(%rbp), %rdx
	movq	-1072(%rbp), %r11
	movq	-1064(%rbp), %r10
	vunpcklpd	%xmm1, %xmm0, %xmm1
	movq	-1056(%rbp), %r9
	movq	-1040(%rbp), %r8
	movq	-1024(%rbp), %rcx
	movq	-1008(%rbp), %rsi
	vmovapd	-992(%rbp), %xmm15
	vmovapd	-976(%rbp), %xmm5
	vmovapd	-960(%rbp), %xmm4
	vmovapd	-944(%rbp), %xmm7
	vmovapd	-928(%rbp), %xmm6
	vmovapd	-912(%rbp), %xmm9
	vmovapd	-896(%rbp), %xmm11
	vmovapd	-880(%rbp), %xmm10
	vmovapd	-672(%rbp), %xmm13
	vmovapd	-656(%rbp), %xmm12
	jmp	.L37
.L91:
	movq	%rdi, -1064(%rbp)
	vmovsd	-512(%rbp), %xmm1
	movq	%rdx, -1056(%rbp)
	vmovsd	-496(%rbp), %xmm0
	movq	%r11, -1040(%rbp)
	vmovsd	-640(%rbp), %xmm3
	movq	%r10, -1024(%rbp)
	vmovsd	-624(%rbp), %xmm2
	movq	%r9, -1008(%rbp)
	movq	%r8, -992(%rbp)
	movq	%rcx, -976(%rbp)
	movq	%rsi, -960(%rbp)
	vmovapd	%xmm7, -944(%rbp)
	vmovapd	%xmm6, -928(%rbp)
	vmovapd	%xmm9, -912(%rbp)
	vmovapd	%xmm11, -896(%rbp)
	vmovapd	%xmm10, -880(%rbp)
	vmovapd	%xmm13, -672(%rbp)
	vmovapd	%xmm12, -656(%rbp)
	vzeroupper
.LVL246:
	call	__muldc3
.LVL247:
	movq	-1064(%rbp), %rdi
	movq	-1056(%rbp), %rdx
	movq	-1040(%rbp), %r11
	movq	-1024(%rbp), %r10
	vunpcklpd	%xmm1, %xmm0, %xmm4
	movq	-1008(%rbp), %r9
	movq	-992(%rbp), %r8
	movq	-976(%rbp), %rcx
	movq	-960(%rbp), %rsi
	vmovapd	-944(%rbp), %xmm7
	vmovapd	-928(%rbp), %xmm6
	vmovapd	-912(%rbp), %xmm9
	vmovapd	-896(%rbp), %xmm11
	vmovapd	-880(%rbp), %xmm10
	vmovapd	-672(%rbp), %xmm13
	vmovapd	-656(%rbp), %xmm12
	jmp	.L36
.L90:
	movq	%rdi, -1072(%rbp)
	vmovsd	-352(%rbp), %xmm1
	movq	%rdx, -1064(%rbp)
	vmovsd	-336(%rbp), %xmm0
	movq	%r11, -1056(%rbp)
	vmovsd	-608(%rbp), %xmm3
	movq	%r10, -1040(%rbp)
	vmovsd	-592(%rbp), %xmm2
	movq	%r9, -1024(%rbp)
	movq	%r8, -1008(%rbp)
	movq	%rcx, -992(%rbp)
	movq	%rsi, -976(%rbp)
	vmovapd	%xmm5, -960(%rbp)
	vmovapd	%xmm14, -944(%rbp)
	vmovapd	%xmm4, -928(%rbp)
	vmovapd	%xmm7, -912(%rbp)
	vmovapd	%xmm6, -896(%rbp)
	vmovapd	%xmm9, -880(%rbp)
	vmovapd	%xmm11, -672(%rbp)
	vmovapd	%xmm10, -656(%rbp)
	vmovapd	%xmm13, -640(%rbp)
	vmovapd	%xmm12, -624(%rbp)
	vzeroupper
.LVL248:
	call	__muldc3
.LVL249:
	movq	-1072(%rbp), %rdi
	movq	-1064(%rbp), %rdx
	movq	-1056(%rbp), %r11
	movq	-1040(%rbp), %r10
	vunpcklpd	%xmm1, %xmm0, %xmm1
	movq	-1024(%rbp), %r9
	movq	-1008(%rbp), %r8
	movq	-992(%rbp), %rcx
	movq	-976(%rbp), %rsi
	vmovapd	-960(%rbp), %xmm5
	vmovapd	-944(%rbp), %xmm14
	vmovapd	-928(%rbp), %xmm4
	vmovapd	-912(%rbp), %xmm7
	vmovapd	-896(%rbp), %xmm6
	vmovapd	-880(%rbp), %xmm9
	vmovapd	-672(%rbp), %xmm11
	vmovapd	-656(%rbp), %xmm10
	vmovapd	-640(%rbp), %xmm13
	vmovapd	-624(%rbp), %xmm12
	jmp	.L35
.L89:
	movq	%rdi, -1056(%rbp)
	vmovsd	-544(%rbp), %xmm1
	vunpckhpd	%xmm2, %xmm2, %xmm3
	movq	%rdx, -1040(%rbp)
	vmovsd	-560(%rbp), %xmm0
	movq	%r11, -1024(%rbp)
	movq	%r10, -1008(%rbp)
	movq	%r9, -992(%rbp)
	movq	%r8, -976(%rbp)
	movq	%rcx, -960(%rbp)
	movq	%rsi, -944(%rbp)
	vmovapd	%xmm5, -928(%rbp)
	vmovapd	%xmm14, -912(%rbp)
	vmovapd	%xmm8, -896(%rbp)
	vmovapd	%xmm15, -880(%rbp)
	vmovapd	%xmm4, -672(%rbp)
	vmovapd	%xmm7, -656(%rbp)
	vmovapd	%xmm6, -640(%rbp)
	vmovapd	%xmm9, -624(%rbp)
	vmovapd	%xmm11, -608(%rbp)
	vmovapd	%xmm10, -592(%rbp)
	vmovapd	%xmm13, -320(%rbp)
	vmovapd	%xmm12, -304(%rbp)
	vzeroupper
.LVL250:
	call	__muldc3
.LVL251:
	movq	-1056(%rbp), %rdi
	movq	-1040(%rbp), %rdx
	movq	-1024(%rbp), %r11
	movq	-1008(%rbp), %r10
	vunpcklpd	%xmm1, %xmm0, %xmm1
	movq	-992(%rbp), %r9
	movq	-976(%rbp), %r8
	movq	-960(%rbp), %rcx
	movq	-944(%rbp), %rsi
	vmovapd	-928(%rbp), %xmm5
	vmovapd	-912(%rbp), %xmm14
	vmovapd	-896(%rbp), %xmm8
	vmovapd	-880(%rbp), %xmm15
	vmovapd	-672(%rbp), %xmm4
	vmovapd	-656(%rbp), %xmm7
	vmovapd	-640(%rbp), %xmm6
	vmovapd	-624(%rbp), %xmm9
	vmovapd	-608(%rbp), %xmm11
	vmovapd	-592(%rbp), %xmm10
	vmovapd	-320(%rbp), %xmm13
	vmovapd	-304(%rbp), %xmm12
	jmp	.L34
.L88:
	movq	%rdi, -976(%rbp)
	vmovsd	-576(%rbp), %xmm1
	movq	%rdx, -960(%rbp)
	vmovsd	-480(%rbp), %xmm0
	movq	%r11, -944(%rbp)
	vmovsd	-512(%rbp), %xmm3
	movq	%r10, -928(%rbp)
	vmovsd	-496(%rbp), %xmm2
	movq	%r9, -912(%rbp)
	movq	%r8, -896(%rbp)
	movq	%rcx, -880(%rbp)
	movq	%rsi, -672(%rbp)
	vmovapd	%xmm5, -656(%rbp)
	vmovapd	%xmm14, -640(%rbp)
	vmovapd	%xmm8, -624(%rbp)
	vmovapd	%xmm15, -608(%rbp)
	vmovapd	%xmm7, -592(%rbp)
	vmovapd	%xmm6, -560(%rbp)
	vmovapd	%xmm9, -544(%rbp)
	vmovapd	%xmm11, -320(%rbp)
	vmovapd	%xmm10, -304(%rbp)
	vmovapd	%xmm13, -288(%rbp)
	vmovapd	%xmm12, -240(%rbp)
	vzeroupper
.LVL252:
	call	__muldc3
.LVL253:
	movq	-976(%rbp), %rdi
	movq	-960(%rbp), %rdx
	movq	-944(%rbp), %r11
	movq	-928(%rbp), %r10
	vunpcklpd	%xmm1, %xmm0, %xmm4
	movq	-912(%rbp), %r9
	movq	-896(%rbp), %r8
	movq	-880(%rbp), %rcx
	movq	-672(%rbp), %rsi
	vmovapd	-656(%rbp), %xmm5
	vmovapd	-640(%rbp), %xmm14
	vmovapd	-624(%rbp), %xmm8
	vmovapd	-608(%rbp), %xmm15
	vmovapd	-592(%rbp), %xmm7
	vmovapd	-560(%rbp), %xmm6
	vmovapd	-544(%rbp), %xmm9
	vmovapd	-320(%rbp), %xmm11
	vmovapd	-304(%rbp), %xmm10
	vmovapd	-288(%rbp), %xmm13
	vmovapd	-240(%rbp), %xmm12
	jmp	.L33
.L87:
	movq	%rdi, -672(%rbp)
	vmovsd	-528(%rbp), %xmm1
	movq	%rdx, -656(%rbp)
	vmovsd	-448(%rbp), %xmm0
	movq	%r11, -640(%rbp)
	vmovsd	-352(%rbp), %xmm3
	movq	%r10, -624(%rbp)
	vmovsd	-336(%rbp), %xmm2
	movq	%r9, -608(%rbp)
	movq	%r8, -592(%rbp)
	movq	%rcx, -576(%rbp)
	movq	%rsi, -560(%rbp)
	vmovapd	%xmm8, -544(%rbp)
	vmovapd	%xmm15, -512(%rbp)
	vmovapd	%xmm7, -496(%rbp)
	vmovapd	%xmm9, -480(%rbp)
	vmovapd	%xmm4, -320(%rbp)
	vmovapd	%xmm11, -304(%rbp)
	vmovapd	%xmm10, -288(%rbp)
	vmovapd	%xmm13, -272(%rbp)
	vmovapd	%xmm12, -240(%rbp)
	vzeroupper
.LVL254:
	call	__muldc3
.LVL255:
	movq	-672(%rbp), %rdi
	movq	-656(%rbp), %rdx
	movq	-640(%rbp), %r11
	movq	-624(%rbp), %r10
	vunpcklpd	%xmm1, %xmm0, %xmm1
	movq	-608(%rbp), %r9
	movq	-592(%rbp), %r8
	movq	-576(%rbp), %rcx
	movq	-560(%rbp), %rsi
	vmovapd	-544(%rbp), %xmm8
	vmovapd	-512(%rbp), %xmm15
	vmovapd	-496(%rbp), %xmm7
	vmovapd	-480(%rbp), %xmm9
	vmovapd	-320(%rbp), %xmm4
	vmovapd	-304(%rbp), %xmm11
	vmovapd	-288(%rbp), %xmm10
	vmovapd	-272(%rbp), %xmm13
	vmovapd	-240(%rbp), %xmm12
	jmp	.L32
.L86:
	movq	%rdi, -544(%rbp)
	vmovsd	-432(%rbp), %xmm1
	vunpckhpd	%xmm2, %xmm2, %xmm3
	movq	%rdx, -528(%rbp)
	vmovsd	-416(%rbp), %xmm0
	movq	%r11, -512(%rbp)
	movq	%r10, -496(%rbp)
	movq	%r9, -480(%rbp)
	movq	%r8, -448(%rbp)
	movq	%rcx, -352(%rbp)
	movq	%rsi, -336(%rbp)
	vmovapd	%xmm11, -320(%rbp)
	vmovapd	%xmm10, -304(%rbp)
	vmovapd	%xmm4, -288(%rbp)
	vmovapd	%xmm13, -272(%rbp)
	vmovapd	%xmm12, -240(%rbp)
	vzeroupper
.LVL256:
	call	__muldc3
.LVL257:
	movq	-544(%rbp), %rdi
	movq	-528(%rbp), %rdx
	movq	-512(%rbp), %r11
	movq	-496(%rbp), %r10
	vunpcklpd	%xmm1, %xmm0, %xmm0
	movq	-480(%rbp), %r9
	movq	-448(%rbp), %r8
	movq	-352(%rbp), %rcx
	movq	-336(%rbp), %rsi
	vmovapd	-320(%rbp), %xmm11
	vmovapd	-304(%rbp), %xmm10
	vmovapd	-288(%rbp), %xmm4
	vmovapd	-272(%rbp), %xmm13
	vmovapd	-240(%rbp), %xmm12
	jmp	.L31
.L85:
	movq	%rdi, -448(%rbp)
	vmovsd	-400(%rbp), %xmm1
	vunpckhpd	%xmm2, %xmm2, %xmm3
	movq	%rdx, -432(%rbp)
	vmovsd	-464(%rbp), %xmm0
	movq	%r11, -416(%rbp)
	movq	%r10, -352(%rbp)
	movq	%r9, -336(%rbp)
	movq	%r8, -320(%rbp)
	movq	%rcx, -304(%rbp)
	movq	%rsi, -288(%rbp)
	vmovapd	%xmm13, -272(%rbp)
	vmovapd	%xmm12, -240(%rbp)
	vzeroupper
.LVL258:
	call	__muldc3
.LVL259:
	movq	-448(%rbp), %rdi
	movq	-432(%rbp), %rdx
	movq	-416(%rbp), %r11
	movq	-352(%rbp), %r10
	vunpcklpd	%xmm1, %xmm0, %xmm4
	movq	-336(%rbp), %r9
	movq	-320(%rbp), %r8
	movq	-304(%rbp), %rcx
	movq	-288(%rbp), %rsi
	vmovapd	-272(%rbp), %xmm13
	vmovapd	-240(%rbp), %xmm12
	jmp	.L30
.LVL260:
.L84:
	movq	%rax, -352(%rbp)
	vmovsd	-656(%rbp), %xmm0
	vunpckhpd	%xmm2, %xmm2, %xmm3
	movq	%r11, -336(%rbp)
	vmovsd	-416(%rbp), %xmm1
	movq	%r10, -320(%rbp)
	movq	%r9, -304(%rbp)
	movq	%rdx, -288(%rbp)
	movq	%r8, -272(%rbp)
	movq	%rcx, -256(%rbp)
	vmovapd	%xmm14, -240(%rbp)
	vzeroupper
.LVL261:
	call	__muldc3
.LVL262:
	.loc 1 236 13 is_stmt 0
	movl	$1171875, %edi
	.loc 1 251 3
	vmovapd	-240(%rbp), %xmm14
	vunpcklpd	%xmm1, %xmm0, %xmm1
	.loc 1 236 13
	salq	$12, %rdi
	addq	$48, %r14
	addq	$48, %r13
	.loc 1 251 3
	vaddpd	%xmm14, %xmm1, %xmm0
	movq	-304(%rbp), %r9
	.loc 1 236 13
	movq	-352(%rbp), %rax
	addq	$144, %r15
	movq	-256(%rbp), %rcx
	movq	-272(%rbp), %r8
	movq	%rdi, %rsi
	addq	$144, %rax
	movq	-288(%rbp), %rdx
	movq	-320(%rbp), %r10
	.loc 1 251 3
	vmovupd	%xmm0, 32(%r9,%rbx)
	.loc 1 236 19 is_stmt 1
.LVL263:
	.loc 1 236 13
	addq	$48, %rbx
.LVL264:
	movq	-336(%rbp), %r11
	cmpq	%rdi, %rbx
	jne	.L29
	jmp	.L28
.LVL265:
.L83:
	movq	%rax, -432(%rbp)
	vmovsd	-608(%rbp), %xmm1
	vunpckhpd	%xmm2, %xmm2, %xmm3
	movq	%r11, -400(%rbp)
	vmovsd	-528(%rbp), %xmm0
	movq	%r10, -352(%rbp)
	movq	%r9, -336(%rbp)
	movq	%rdx, -320(%rbp)
	movq	%r8, -304(%rbp)
	movq	%rcx, -288(%rbp)
	vmovapd	%xmm8, -272(%rbp)
	vmovapd	%xmm14, -256(%rbp)
	vmovapd	%xmm4, -240(%rbp)
	vzeroupper
.LVL266:
	call	__muldc3
.LVL267:
	movl	$1171875, %esi
	movq	-432(%rbp), %rax
	movq	-400(%rbp), %r11
	movq	-352(%rbp), %r10
	vunpcklpd	%xmm1, %xmm0, %xmm1
	salq	$12, %rsi
	movq	-336(%rbp), %r9
	movq	-320(%rbp), %rdx
	movq	-304(%rbp), %r8
	movq	-288(%rbp), %rcx
	vmovapd	-272(%rbp), %xmm8
	vmovapd	-256(%rbp), %xmm14
	vmovapd	-240(%rbp), %xmm4
	jmp	.L25
.L82:
	movq	%rax, -464(%rbp)
	vmovsd	-640(%rbp), %xmm1
	vmovsd	%xmm11, %xmm11, %xmm2
	movq	%r11, -448(%rbp)
	vmovsd	-624(%rbp), %xmm0
	movq	%r10, -432(%rbp)
	vmovsd	-400(%rbp), %xmm3
	movq	%r9, -352(%rbp)
	movq	%rdx, -336(%rbp)
	movq	%r8, -304(%rbp)
	movq	%rcx, -272(%rbp)
	vmovapd	%xmm8, -256(%rbp)
	vmovapd	%xmm4, -240(%rbp)
	vzeroupper
.LVL268:
	call	__muldc3
.LVL269:
	movl	$1171875, %esi
	movq	-464(%rbp), %rax
	movq	-448(%rbp), %r11
	movq	-432(%rbp), %r10
	vunpcklpd	%xmm1, %xmm0, %xmm14
	salq	$12, %rsi
	movq	-352(%rbp), %r9
	movq	-336(%rbp), %rdx
	movq	-304(%rbp), %r8
	movq	-272(%rbp), %rcx
	vmovapd	-256(%rbp), %xmm8
	vmovapd	-240(%rbp), %xmm4
	jmp	.L24
.L81:
	movq	%rax, -720(%rbp)
	vmovsd	-592(%rbp), %xmm1
	movq	%r11, -704(%rbp)
	vmovsd	-576(%rbp), %xmm0
	movq	%r10, -688(%rbp)
	vmovsd	-304(%rbp), %xmm3
	movq	%r9, -560(%rbp)
	vmovsd	-240(%rbp), %xmm2
	movq	%rdx, -544(%rbp)
	movq	%r8, -512(%rbp)
	movq	%rcx, -496(%rbp)
	vmovapd	%xmm8, -480(%rbp)
	vmovapd	%xmm7, -464(%rbp)
	vmovsd	%xmm11, -448(%rbp)
	vmovapd	%xmm6, -432(%rbp)
	vmovapd	%xmm14, -352(%rbp)
	vmovapd	%xmm15, -336(%rbp)
	vmovapd	%xmm5, -272(%rbp)
	vmovapd	%xmm4, -256(%rbp)
	vzeroupper
.LVL270:
	call	__muldc3
.LVL271:
	movl	$1171875, %esi
	movq	-720(%rbp), %rax
	movq	-704(%rbp), %r11
	movq	-688(%rbp), %r10
	vunpcklpd	%xmm1, %xmm0, %xmm1
	salq	$12, %rsi
	movq	-560(%rbp), %r9
	movq	-544(%rbp), %rdx
	movq	-512(%rbp), %r8
	movq	-496(%rbp), %rcx
	vmovapd	-480(%rbp), %xmm8
	vmovapd	-464(%rbp), %xmm7
	vmovsd	-448(%rbp), %xmm11
	vmovapd	-432(%rbp), %xmm6
	vmovapd	-352(%rbp), %xmm14
	vmovapd	-336(%rbp), %xmm15
	vmovapd	-272(%rbp), %xmm5
	vmovapd	-256(%rbp), %xmm4
	jmp	.L23
.L80:
	movq	%rax, -848(%rbp)
	vmovsd	-352(%rbp), %xmm1
	vunpckhpd	%xmm2, %xmm2, %xmm3
	movq	%r11, -800(%rbp)
	vmovsd	-560(%rbp), %xmm0
	movq	%r10, -784(%rbp)
	movq	%r9, -768(%rbp)
	movq	%rdx, -752(%rbp)
	movq	%r8, -736(%rbp)
	movq	%rcx, -720(%rbp)
	vmovapd	%xmm8, -704(%rbp)
	vmovapd	%xmm7, -688(%rbp)
	vmovsd	%xmm11, -544(%rbp)
	vmovapd	%xmm6, -512(%rbp)
	vmovapd	%xmm14, -496(%rbp)
	vmovapd	%xmm15, -480(%rbp)
	vmovapd	%xmm5, -464(%rbp)
	vmovapd	%xmm4, -448(%rbp)
	vmovapd	%xmm13, -432(%rbp)
	vmovapd	%xmm12, -336(%rbp)
	vzeroupper
.LVL272:
	call	__muldc3
.LVL273:
	movl	$1171875, %esi
	movq	-848(%rbp), %rax
	movq	-800(%rbp), %r11
	movq	-784(%rbp), %r10
	vunpcklpd	%xmm1, %xmm0, %xmm0
	salq	$12, %rsi
	movq	-768(%rbp), %r9
	movq	-752(%rbp), %rdx
	movq	-736(%rbp), %r8
	movq	-720(%rbp), %rcx
	vmovapd	-704(%rbp), %xmm8
	vmovapd	-688(%rbp), %xmm7
	vmovsd	-544(%rbp), %xmm11
	vmovapd	-512(%rbp), %xmm6
	vmovapd	-496(%rbp), %xmm14
	vmovapd	-480(%rbp), %xmm15
	vmovapd	-464(%rbp), %xmm5
	vmovapd	-448(%rbp), %xmm4
	vmovapd	-432(%rbp), %xmm13
	vmovapd	-336(%rbp), %xmm12
	jmp	.L22
.L79:
	movq	%rax, -912(%rbp)
	vmovsd	-544(%rbp), %xmm1
	vmovsd	%xmm6, %xmm6, %xmm2
	movq	%r11, -896(%rbp)
	vmovsd	-512(%rbp), %xmm0
	movq	%r10, -864(%rbp)
	vmovsd	-400(%rbp), %xmm3
	movq	%r9, -848(%rbp)
	movq	%rdx, -800(%rbp)
	movq	%r8, -784(%rbp)
	movq	%rcx, -768(%rbp)
	vmovapd	%xmm9, -752(%rbp)
	vmovapd	%xmm8, -736(%rbp)
	vmovapd	%xmm7, -720(%rbp)
	vmovapd	%xmm6, -704(%rbp)
	vmovapd	%xmm14, -688(%rbp)
	vmovapd	%xmm15, -496(%rbp)
	vmovapd	%xmm4, -480(%rbp)
	vmovapd	%xmm13, -464(%rbp)
	vmovapd	%xmm12, -448(%rbp)
	vmovsd	%xmm6, -432(%rbp)
	vzeroupper
.LVL274:
	call	__muldc3
.LVL275:
	movl	$1171875, %esi
	movq	-912(%rbp), %rax
	movq	-896(%rbp), %r11
	movq	-864(%rbp), %r10
	vunpcklpd	%xmm1, %xmm0, %xmm5
	salq	$12, %rsi
	movq	-848(%rbp), %r9
	movq	-800(%rbp), %rdx
	movq	-784(%rbp), %r8
	movq	-768(%rbp), %rcx
	vmovapd	-752(%rbp), %xmm9
	vmovapd	-736(%rbp), %xmm8
	vmovapd	-720(%rbp), %xmm7
	vmovapd	-704(%rbp), %xmm6
	vmovapd	-688(%rbp), %xmm14
	vmovapd	-496(%rbp), %xmm15
	vmovapd	-480(%rbp), %xmm4
	vmovapd	-464(%rbp), %xmm13
	vmovapd	-448(%rbp), %xmm12
	vmovsd	-432(%rbp), %xmm11
	jmp	.L21
.L78:
	movq	%rax, -928(%rbp)
	vmovsd	-432(%rbp), %xmm1
	movq	%r11, -912(%rbp)
	vmovsd	-400(%rbp), %xmm0
	movq	%r10, -896(%rbp)
	vmovsd	-304(%rbp), %xmm3
	movq	%r9, -864(%rbp)
	vmovsd	-240(%rbp), %xmm2
	movq	%rdx, -848(%rbp)
	movq	%r8, -800(%rbp)
	movq	%rcx, -784(%rbp)
	vmovapd	%xmm9, -768(%rbp)
	vmovapd	%xmm5, -752(%rbp)
	vmovapd	%xmm10, -736(%rbp)
	vmovapd	%xmm8, -720(%rbp)
	vmovapd	%xmm14, -704(%rbp)
	vmovapd	%xmm15, -688(%rbp)
	vmovapd	%xmm4, -496(%rbp)
	vmovapd	%xmm13, -480(%rbp)
	vmovapd	%xmm12, -464(%rbp)
	vmovapd	%xmm7, -448(%rbp)
	vzeroupper
.LVL276:
	call	__muldc3
.LVL277:
	movl	$1171875, %esi
	movq	-928(%rbp), %rax
	movq	-912(%rbp), %r11
	movq	-896(%rbp), %r10
	vunpcklpd	%xmm1, %xmm0, %xmm6
	salq	$12, %rsi
	movq	-864(%rbp), %r9
	movq	-848(%rbp), %rdx
	movq	-800(%rbp), %r8
	movq	-784(%rbp), %rcx
	vmovapd	-768(%rbp), %xmm9
	vmovapd	-752(%rbp), %xmm5
	vmovapd	-736(%rbp), %xmm10
	vmovapd	-720(%rbp), %xmm8
	vmovapd	-704(%rbp), %xmm14
	vmovapd	-688(%rbp), %xmm15
	vmovapd	-496(%rbp), %xmm4
	vmovapd	-480(%rbp), %xmm13
	vmovapd	-464(%rbp), %xmm12
	vmovapd	-448(%rbp), %xmm7
	jmp	.L20
.L77:
	movq	%rax, -928(%rbp)
	vmovsd	-496(%rbp), %xmm1
	vunpckhpd	%xmm2, %xmm2, %xmm3
	movq	%r11, -912(%rbp)
	vmovsd	-480(%rbp), %xmm0
	movq	%r10, -896(%rbp)
	movq	%r9, -864(%rbp)
	movq	%rdx, -848(%rbp)
	movq	%r8, -800(%rbp)
	movq	%rcx, -784(%rbp)
	vmovapd	%xmm9, -768(%rbp)
	vmovapd	%xmm5, -752(%rbp)
	vmovapd	%xmm10, -736(%rbp)
	vmovapd	%xmm6, -720(%rbp)
	vmovapd	%xmm11, -704(%rbp)
	vmovapd	%xmm8, -688(%rbp)
	vmovapd	%xmm14, -464(%rbp)
	vmovapd	%xmm15, -448(%rbp)
	vmovapd	%xmm4, -304(%rbp)
	vmovapd	%xmm12, -240(%rbp)
	vzeroupper
.LVL278:
	call	__muldc3
.LVL279:
	movl	$1171875, %esi
	movq	-928(%rbp), %rax
	movq	-912(%rbp), %r11
	movq	-896(%rbp), %r10
	vunpcklpd	%xmm1, %xmm0, %xmm7
	salq	$12, %rsi
	movq	-864(%rbp), %r9
	movq	-848(%rbp), %rdx
	movq	-800(%rbp), %r8
	movq	-784(%rbp), %rcx
	vmovapd	-768(%rbp), %xmm9
	vmovapd	-752(%rbp), %xmm5
	vmovapd	-736(%rbp), %xmm10
	vmovapd	-720(%rbp), %xmm6
	vmovapd	-704(%rbp), %xmm11
	vmovapd	-688(%rbp), %xmm8
	vmovapd	-464(%rbp), %xmm14
	vmovapd	-448(%rbp), %xmm15
	vmovapd	-304(%rbp), %xmm4
	vmovapd	-240(%rbp), %xmm12
	jmp	.L19
.L76:
	movq	%rax, -976(%rbp)
	vmovsd	-464(%rbp), %xmm1
	vunpckhpd	%xmm2, %xmm2, %xmm3
	movq	%r11, -960(%rbp)
	vmovsd	-448(%rbp), %xmm0
	movq	%r10, -944(%rbp)
	movq	%r9, -928(%rbp)
	movq	%rdx, -912(%rbp)
	movq	%r8, -896(%rbp)
	movq	%rcx, -864(%rbp)
	vmovapd	%xmm9, -848(%rbp)
	vmovapd	%xmm5, -800(%rbp)
	vmovapd	%xmm10, -784(%rbp)
	vmovapd	%xmm6, -768(%rbp)
	vmovapd	%xmm11, -752(%rbp)
	vmovapd	%xmm8, -736(%rbp)
	vmovapd	%xmm14, -720(%rbp)
	vmovapd	%xmm15, -704(%rbp)
	vmovapd	%xmm4, -688(%rbp)
	vzeroupper
.LVL280:
	call	__muldc3
.LVL281:
	movl	$1171875, %esi
	movq	-976(%rbp), %rax
	movq	-960(%rbp), %r11
	movq	-944(%rbp), %r10
	vunpcklpd	%xmm1, %xmm0, %xmm12
	salq	$12, %rsi
	movq	-928(%rbp), %r9
	movq	-912(%rbp), %rdx
	movq	-896(%rbp), %r8
	movq	-864(%rbp), %rcx
	vmovapd	-848(%rbp), %xmm9
	vmovapd	-800(%rbp), %xmm5
	vmovapd	-784(%rbp), %xmm10
	vmovapd	-768(%rbp), %xmm6
	vmovapd	-752(%rbp), %xmm11
	vmovapd	-736(%rbp), %xmm8
	vmovapd	-720(%rbp), %xmm14
	vmovapd	-704(%rbp), %xmm15
	vmovapd	-688(%rbp), %xmm4
	jmp	.L18
.L75:
	movq	%rax, -1024(%rbp)
	vmovsd	-416(%rbp), %xmm1
	vunpckhpd	%xmm2, %xmm2, %xmm3
	movq	%r11, -1008(%rbp)
	vmovsd	-656(%rbp), %xmm0
	movq	%r10, -992(%rbp)
	movq	%r9, -976(%rbp)
	movq	%rdx, -960(%rbp)
	movq	%r8, -944(%rbp)
	movq	%rcx, -928(%rbp)
	vmovapd	%xmm9, -912(%rbp)
	vmovapd	%xmm5, -896(%rbp)
	vmovapd	%xmm10, -864(%rbp)
	vmovapd	%xmm13, -848(%rbp)
	vmovapd	%xmm12, -800(%rbp)
	vmovapd	%xmm6, -784(%rbp)
	vmovapd	%xmm11, -768(%rbp)
	vmovapd	%xmm8, -752(%rbp)
	vmovapd	%xmm14, -736(%rbp)
	vmovapd	%xmm15, -720(%rbp)
	vmovapd	%xmm4, -704(%rbp)
	vmovapd	%xmm7, -688(%rbp)
	vzeroupper
.LVL282:
	call	__muldc3
.LVL283:
	movl	$1171875, %esi
	movq	-1024(%rbp), %rax
	movq	-1008(%rbp), %r11
	movq	-992(%rbp), %r10
	vunpcklpd	%xmm1, %xmm0, %xmm0
	salq	$12, %rsi
	movq	-976(%rbp), %r9
	movq	-960(%rbp), %rdx
	movq	-944(%rbp), %r8
	movq	-928(%rbp), %rcx
	vmovapd	-912(%rbp), %xmm9
	vmovapd	-896(%rbp), %xmm5
	vmovapd	-864(%rbp), %xmm10
	vmovapd	-848(%rbp), %xmm13
	vmovapd	-800(%rbp), %xmm12
	vmovapd	-784(%rbp), %xmm6
	vmovapd	-768(%rbp), %xmm11
	vmovapd	-752(%rbp), %xmm8
	vmovapd	-736(%rbp), %xmm14
	vmovapd	-720(%rbp), %xmm15
	vmovapd	-704(%rbp), %xmm4
	vmovapd	-688(%rbp), %xmm7
	jmp	.L17
.L74:
	movq	%rax, -960(%rbp)
	vmovsd	-608(%rbp), %xmm1
	vunpckhpd	%xmm2, %xmm2, %xmm3
	movq	%r11, -944(%rbp)
	vmovsd	-528(%rbp), %xmm0
	movq	%r10, -928(%rbp)
	movq	%r9, -912(%rbp)
	movq	%rdx, -896(%rbp)
	movq	%r8, -864(%rbp)
	movq	%rcx, -848(%rbp)
	vmovapd	%xmm9, -800(%rbp)
	vmovapd	%xmm5, -784(%rbp)
	vmovapd	%xmm10, -768(%rbp)
	vmovapd	%xmm13, -752(%rbp)
	vmovapd	%xmm12, -736(%rbp)
	vmovapd	%xmm6, -720(%rbp)
	vmovapd	%xmm11, -704(%rbp)
	vmovapd	%xmm7, -688(%rbp)
	vmovapd	%xmm14, -656(%rbp)
	vmovapd	%xmm15, -416(%rbp)
	vzeroupper
.LVL284:
	call	__muldc3
.LVL285:
	movl	$1171875, %esi
	movq	-960(%rbp), %rax
	movq	-944(%rbp), %r11
	movq	-928(%rbp), %r10
	vunpcklpd	%xmm1, %xmm0, %xmm0
	salq	$12, %rsi
	movq	-912(%rbp), %r9
	movq	-896(%rbp), %rdx
	movq	-864(%rbp), %r8
	movq	-848(%rbp), %rcx
	vmovapd	-800(%rbp), %xmm9
	vmovapd	-784(%rbp), %xmm5
	vmovapd	-768(%rbp), %xmm10
	vmovapd	-752(%rbp), %xmm13
	vmovapd	-736(%rbp), %xmm12
	vmovapd	-720(%rbp), %xmm6
	vmovapd	-704(%rbp), %xmm11
	vmovapd	-688(%rbp), %xmm7
	vmovapd	-656(%rbp), %xmm14
	vmovapd	-416(%rbp), %xmm15
	jmp	.L16
.L73:
	movq	%rax, -912(%rbp)
	vmovsd	-528(%rbp), %xmm1
	movq	%r11, -896(%rbp)
	vmovsd	-416(%rbp), %xmm0
	movq	%r10, -864(%rbp)
	vmovsd	-640(%rbp), %xmm3
	movq	%r9, -848(%rbp)
	vmovsd	-624(%rbp), %xmm2
	movq	%rdx, -800(%rbp)
	movq	%r8, -784(%rbp)
	movq	%rcx, -768(%rbp)
	vmovapd	%xmm9, -752(%rbp)
	vmovapd	%xmm5, -736(%rbp)
	vmovapd	%xmm10, -720(%rbp)
	vmovapd	%xmm13, -704(%rbp)
	vmovapd	%xmm12, -688(%rbp)
	vmovapd	%xmm6, -656(%rbp)
	vmovapd	%xmm11, -608(%rbp)
	vmovapd	%xmm14, -320(%rbp)
	vmovapd	%xmm15, -288(%rbp)
	vzeroupper
.LVL286:
	call	__muldc3
.LVL287:
	movl	$1171875, %esi
	movq	-912(%rbp), %rax
	movq	-896(%rbp), %r11
	movq	-864(%rbp), %r10
	vunpcklpd	%xmm1, %xmm0, %xmm7
	salq	$12, %rsi
	movq	-848(%rbp), %r9
	movq	-800(%rbp), %rdx
	movq	-784(%rbp), %r8
	movq	-768(%rbp), %rcx
	vmovapd	-752(%rbp), %xmm9
	vmovapd	-736(%rbp), %xmm5
	vmovapd	-720(%rbp), %xmm10
	vmovapd	-704(%rbp), %xmm13
	vmovapd	-688(%rbp), %xmm12
	vmovapd	-656(%rbp), %xmm6
	vmovapd	-608(%rbp), %xmm11
	vmovapd	-320(%rbp), %xmm14
	vmovapd	-288(%rbp), %xmm15
	jmp	.L15
.L72:
	movq	%rax, -928(%rbp)
	vmovsd	-320(%rbp), %xmm1
	movq	%r11, -912(%rbp)
	vmovsd	-288(%rbp), %xmm0
	movq	%r10, -896(%rbp)
	vmovsd	-592(%rbp), %xmm3
	movq	%r9, -864(%rbp)
	vmovsd	-576(%rbp), %xmm2
	movq	%rdx, -848(%rbp)
	movq	%r8, -800(%rbp)
	movq	%rcx, -784(%rbp)
	vmovapd	%xmm9, -768(%rbp)
	vmovapd	%xmm4, -752(%rbp)
	vmovapd	%xmm5, -736(%rbp)
	vmovapd	%xmm10, -720(%rbp)
	vmovapd	%xmm13, -704(%rbp)
	vmovapd	%xmm12, -688(%rbp)
	vmovapd	%xmm6, -656(%rbp)
	vmovapd	%xmm11, -640(%rbp)
	vmovapd	%xmm7, -624(%rbp)
	vmovapd	%xmm14, -608(%rbp)
	vzeroupper
.LVL288:
	call	__muldc3
.LVL289:
	movl	$1171875, %esi
	movq	-928(%rbp), %rax
	movq	-912(%rbp), %r11
	movq	-896(%rbp), %r10
	vunpcklpd	%xmm1, %xmm0, %xmm1
	salq	$12, %rsi
	movq	-864(%rbp), %r9
	movq	-848(%rbp), %rdx
	movq	-800(%rbp), %r8
	movq	-784(%rbp), %rcx
	vmovapd	-768(%rbp), %xmm9
	vmovapd	-752(%rbp), %xmm4
	vmovapd	-736(%rbp), %xmm5
	vmovapd	-720(%rbp), %xmm10
	vmovapd	-704(%rbp), %xmm13
	vmovapd	-688(%rbp), %xmm12
	vmovapd	-656(%rbp), %xmm6
	vmovapd	-640(%rbp), %xmm11
	vmovapd	-624(%rbp), %xmm7
	vmovapd	-608(%rbp), %xmm14
	jmp	.L14
.L71:
	movq	%rax, -896(%rbp)
	vmovsd	-352(%rbp), %xmm1
	vunpckhpd	%xmm2, %xmm2, %xmm3
	movq	%r11, -864(%rbp)
	vmovsd	-560(%rbp), %xmm0
	movq	%r10, -848(%rbp)
	movq	%r9, -800(%rbp)
	movq	%rdx, -784(%rbp)
	movq	%r8, -768(%rbp)
	movq	%rcx, -752(%rbp)
	vmovapd	%xmm9, -736(%rbp)
	vmovapd	%xmm8, -720(%rbp)
	vmovapd	%xmm15, -704(%rbp)
	vmovapd	%xmm4, -688(%rbp)
	vmovapd	%xmm5, -656(%rbp)
	vmovapd	%xmm10, -640(%rbp)
	vmovapd	%xmm13, -624(%rbp)
	vmovapd	%xmm12, -608(%rbp)
	vmovapd	%xmm6, -592(%rbp)
	vmovapd	%xmm11, -576(%rbp)
	vmovapd	%xmm7, -272(%rbp)
	vmovapd	%xmm14, -256(%rbp)
	vzeroupper
.LVL290:
	call	__muldc3
.LVL291:
	movl	$1171875, %esi
	movq	-896(%rbp), %rax
	movq	-864(%rbp), %r11
	movq	-848(%rbp), %r10
	vunpcklpd	%xmm1, %xmm0, %xmm1
	salq	$12, %rsi
	movq	-800(%rbp), %r9
	movq	-784(%rbp), %rdx
	movq	-768(%rbp), %r8
	movq	-752(%rbp), %rcx
	vmovapd	-736(%rbp), %xmm9
	vmovapd	-720(%rbp), %xmm8
	vmovapd	-704(%rbp), %xmm15
	vmovapd	-688(%rbp), %xmm4
	vmovapd	-656(%rbp), %xmm5
	vmovapd	-640(%rbp), %xmm10
	vmovapd	-624(%rbp), %xmm13
	vmovapd	-608(%rbp), %xmm12
	vmovapd	-592(%rbp), %xmm6
	vmovapd	-576(%rbp), %xmm11
	vmovapd	-272(%rbp), %xmm7
	vmovapd	-256(%rbp), %xmm14
	jmp	.L13
.L70:
	movq	%rax, -768(%rbp)
	vmovsd	-544(%rbp), %xmm1
	movq	%r11, -752(%rbp)
	vmovsd	-512(%rbp), %xmm0
	movq	%r10, -736(%rbp)
	vmovsd	-528(%rbp), %xmm3
	movq	%r9, -720(%rbp)
	vmovsd	-416(%rbp), %xmm2
	movq	%rdx, -704(%rbp)
	movq	%r8, -688(%rbp)
	movq	%rcx, -656(%rbp)
	vmovapd	%xmm8, -640(%rbp)
	vmovapd	%xmm15, -624(%rbp)
	vmovapd	%xmm5, -608(%rbp)
	vmovapd	%xmm10, -592(%rbp)
	vmovapd	%xmm13, -576(%rbp)
	vmovapd	%xmm12, -560(%rbp)
	vmovapd	%xmm6, -352(%rbp)
	vmovapd	%xmm11, -336(%rbp)
	vmovapd	%xmm7, -272(%rbp)
	vmovapd	%xmm14, -256(%rbp)
	vzeroupper
.LVL292:
	call	__muldc3
.LVL293:
	movl	$1171875, %esi
	movq	-768(%rbp), %rax
	movq	-752(%rbp), %r11
	movq	-736(%rbp), %r10
	vunpcklpd	%xmm1, %xmm0, %xmm4
	salq	$12, %rsi
	movq	-720(%rbp), %r9
	movq	-704(%rbp), %rdx
	movq	-688(%rbp), %r8
	movq	-656(%rbp), %rcx
	vmovapd	-640(%rbp), %xmm8
	vmovapd	-624(%rbp), %xmm15
	vmovapd	-608(%rbp), %xmm5
	vmovapd	-592(%rbp), %xmm10
	vmovapd	-576(%rbp), %xmm13
	vmovapd	-560(%rbp), %xmm12
	vmovapd	-352(%rbp), %xmm6
	vmovapd	-336(%rbp), %xmm11
	vmovapd	-272(%rbp), %xmm7
	vmovapd	-256(%rbp), %xmm14
	jmp	.L12
.L69:
	movq	%rax, -640(%rbp)
	vmovsd	-432(%rbp), %xmm1
	movq	%r11, -624(%rbp)
	vmovsd	-400(%rbp), %xmm0
	movq	%r10, -608(%rbp)
	vmovsd	-320(%rbp), %xmm3
	movq	%r9, -592(%rbp)
	vmovsd	-288(%rbp), %xmm2
	movq	%rdx, -576(%rbp)
	movq	%r8, -560(%rbp)
	movq	%rcx, -544(%rbp)
	vmovapd	%xmm8, -528(%rbp)
	vmovapd	%xmm15, -512(%rbp)
	vmovapd	%xmm4, -416(%rbp)
	vmovapd	%xmm13, -352(%rbp)
	vmovapd	%xmm12, -336(%rbp)
	vmovapd	%xmm6, -272(%rbp)
	vmovapd	%xmm11, -256(%rbp)
	vzeroupper
.LVL294:
	call	__muldc3
.LVL295:
	movl	$1171875, %esi
	movq	-640(%rbp), %rax
	movq	-624(%rbp), %r11
	movq	-608(%rbp), %r10
	vunpcklpd	%xmm1, %xmm0, %xmm1
	salq	$12, %rsi
	movq	-592(%rbp), %r9
	movq	-576(%rbp), %rdx
	movq	-560(%rbp), %r8
	movq	-544(%rbp), %rcx
	vmovapd	-528(%rbp), %xmm8
	vmovapd	-512(%rbp), %xmm15
	vmovapd	-416(%rbp), %xmm4
	vmovapd	-352(%rbp), %xmm13
	vmovapd	-336(%rbp), %xmm12
	vmovapd	-272(%rbp), %xmm6
	vmovapd	-256(%rbp), %xmm11
	jmp	.L11
.L68:
	movq	%rax, -512(%rbp)
	vmovsd	-496(%rbp), %xmm1
	vunpckhpd	%xmm2, %xmm2, %xmm3
	movq	%r11, -432(%rbp)
	vmovsd	-480(%rbp), %xmm0
	movq	%r10, -416(%rbp)
	movq	%r9, -400(%rbp)
	movq	%rdx, -352(%rbp)
	movq	%r8, -336(%rbp)
	movq	%rcx, -320(%rbp)
	vmovapd	%xmm4, -288(%rbp)
	vmovapd	%xmm13, -272(%rbp)
	vmovapd	%xmm12, -256(%rbp)
	vzeroupper
.LVL296:
	call	__muldc3
.LVL297:
	movl	$1171875, %esi
	movq	-512(%rbp), %rax
	movq	-432(%rbp), %r11
	movq	-416(%rbp), %r10
	vunpcklpd	%xmm1, %xmm0, %xmm1
	salq	$12, %rsi
	movq	-400(%rbp), %r9
	movq	-352(%rbp), %rdx
	movq	-336(%rbp), %r8
	movq	-320(%rbp), %rcx
	vmovapd	-288(%rbp), %xmm4
	vmovapd	-272(%rbp), %xmm13
	vmovapd	-256(%rbp), %xmm12
	jmp	.L10
.L67:
	movq	%rax, -400(%rbp)
	vmovsd	-464(%rbp), %xmm1
	vunpckhpd	%xmm2, %xmm2, %xmm3
	movq	%r11, -352(%rbp)
	vmovsd	-448(%rbp), %xmm0
	movq	%r10, -336(%rbp)
	movq	%r9, -320(%rbp)
	movq	%rdx, -304(%rbp)
	movq	%r8, -288(%rbp)
	movq	%rcx, -272(%rbp)
	vmovapd	%xmm13, -256(%rbp)
	vmovapd	%xmm12, -240(%rbp)
	vzeroupper
.LVL298:
	call	__muldc3
.LVL299:
	movl	$1171875, %esi
	movq	-400(%rbp), %rax
	movq	-352(%rbp), %r11
	movq	-336(%rbp), %r10
	vunpcklpd	%xmm1, %xmm0, %xmm4
	salq	$12, %rsi
	movq	-320(%rbp), %r9
	movq	-304(%rbp), %rdx
	movq	-288(%rbp), %r8
	movq	-272(%rbp), %rcx
	vmovapd	-256(%rbp), %xmm13
	vmovapd	-240(%rbp), %xmm12
	jmp	.L9
	.cfi_endproc
.LFE6408:
	.size	main, .-main
	.text
	.p2align 4
	.globl	double_MVM_non_macro
	.type	double_MVM_non_macro, @function
double_MVM_non_macro:
.LFB6409:
	.loc 1 350 1
	.cfi_startproc
.LVL300:
	.loc 1 351 2
	.loc 1 352 2
	.loc 1 356 2
.LBB965:
.LBB966:
	.loc 2 869 3
.LBE966:
.LBE965:
	.loc 1 357 2
.LBB967:
.LBB968:
	.loc 2 339 3
.LBE968:
.LBE967:
	.loc 1 350 1 is_stmt 0
	pushq	%rbp
	.cfi_def_cfa_offset 16
	.cfi_offset 6, -16
.LVL301:
	movq	%rsp, %rbp
	.cfi_def_cfa_register 6
	andq	$-32, %rsp
.LBB970:
.LBB971:
	.loc 2 869 10
	vmovapd	(%rcx), %ymm1
.LBE971:
.LBE970:
.LBB973:
.LBB974:
	.loc 2 339 20
	vpermilpd	$15, (%rdx), %ymm0
.LBE974:
.LBE973:
.LBB976:
.LBB977:
	vpermilpd	$15, 48(%rdx), %ymm3
.LBE977:
.LBE976:
.LBB979:
.LBB969:
	vpermilpd	$0, (%rdx), %ymm14
.LVL302:
.LBE969:
.LBE979:
	.loc 1 358 2 is_stmt 1
.LBB980:
.LBB975:
	.loc 2 339 3
.LBE975:
.LBE980:
	.loc 1 361 2
.LBB981:
.LBB982:
	.loc 2 893 3
.LBE982:
.LBE981:
	.loc 1 362 2
.LBB983:
.LBB984:
	.loc 2 339 3
.LBE984:
.LBE983:
.LBB986:
.LBB987:
	.loc 2 339 20 is_stmt 0
	vpermilpd	$5, %ymm1, %ymm10
.LBE987:
.LBE986:
.LBB989:
.LBB985:
	vpermilpd	$0, 48(%rdx), %ymm6
.LVL303:
.LBE985:
.LBE989:
	.loc 1 363 2 is_stmt 1
.LBB990:
.LBB978:
	.loc 2 339 3
.LBE978:
.LBE990:
	.loc 1 366 2
.LBB991:
.LBB992:
	.loc 2 869 3
.LBE992:
.LBE991:
	.loc 1 367 2
.LBB993:
.LBB994:
	.loc 2 339 3
.LBE994:
.LBE993:
.LBB996:
.LBB997:
	.loc 2 869 10 is_stmt 0
	vmovapd	(%r8), %ymm11
.LBE997:
.LBE996:
.LBB999:
.LBB1000:
	.loc 2 314 10
	vmulpd	%ymm10, %ymm0, %ymm2
.LBE1000:
.LBE999:
.LBB1002:
.LBB1003:
	.loc 2 339 20
	vpermilpd	$15, 96(%rdx), %ymm5
.LBE1003:
.LBE1002:
.LBB1005:
.LBB995:
	vpermilpd	$0, 96(%rdx), %ymm9
.LVL304:
.LBE995:
.LBE1005:
	.loc 1 368 2 is_stmt 1
.LBB1006:
.LBB1004:
	.loc 2 339 3
.LBE1004:
.LBE1006:
	.loc 1 371 2
.LBB1007:
.LBB972:
	.loc 2 869 3
.LBE972:
.LBE1007:
	.loc 1 372 2
.LBB1008:
.LBB988:
	.loc 2 339 3
.LBE988:
.LBE1008:
	.loc 1 375 2
.LBB1009:
.LBB998:
	.loc 2 869 3
.LBE998:
.LBE1009:
	.loc 1 376 2
.LBB1010:
.LBB1011:
	.loc 2 339 3
.LBE1011:
.LBE1010:
.LBB1013:
.LBB1014:
	.loc 2 314 10 is_stmt 0
	vmulpd	%ymm10, %ymm3, %ymm4
.LBE1014:
.LBE1013:
.LBB1016:
.LBB1012:
	.loc 2 339 20
	vpermilpd	$5, %ymm11, %ymm12
.LVL305:
.LBE1012:
.LBE1016:
	.loc 1 385 2 is_stmt 1
.LBB1017:
.LBB1001:
	.loc 2 314 3
.LBE1001:
.LBE1017:
	.loc 1 386 2
.LBB1018:
.LBB1019:
	.loc 3 241 3
.LBE1019:
.LBE1018:
.LBB1021:
.LBB1022:
	.loc 2 314 10 is_stmt 0
	vmulpd	%ymm12, %ymm0, %ymm0
.LVL306:
.LBE1022:
.LBE1021:
.LBB1024:
.LBB1025:
	vmulpd	%ymm12, %ymm3, %ymm3
.LVL307:
.LBE1025:
.LBE1024:
.LBB1027:
.LBB1028:
	vmulpd	%ymm10, %ymm5, %ymm10
.LVL308:
.LBE1028:
.LBE1027:
.LBB1030:
.LBB1031:
	vmulpd	%ymm12, %ymm5, %ymm5
.LVL309:
.LBE1031:
.LBE1030:
.LBB1033:
.LBB1020:
	.loc 3 241 19
	vfmaddsub231pd	%ymm1, %ymm14, %ymm2
.LVL310:
.LBE1020:
.LBE1033:
	.loc 1 389 2 is_stmt 1
.LBB1034:
.LBB1015:
	.loc 2 314 3
.LBE1015:
.LBE1034:
	.loc 1 390 2
.LBB1035:
.LBB1036:
	.loc 3 241 3
	.loc 3 241 19 is_stmt 0
	vfmaddsub231pd	%ymm1, %ymm6, %ymm4
.LVL311:
.LBE1036:
.LBE1035:
	.loc 1 394 2 is_stmt 1
.LBB1037:
.LBB1038:
	.loc 2 690 3
.LBE1038:
.LBE1037:
.LBB1040:
.LBB1041:
	.loc 3 241 19 is_stmt 0
	vfmaddsub231pd	%ymm11, %ymm14, %ymm0
.LBE1041:
.LBE1040:
.LBB1043:
.LBB1044:
	.loc 2 893 10
	vmovupd	16(%r8), %ymm14
.LVL312:
.LBE1044:
.LBE1043:
.LBB1046:
.LBB1047:
	.loc 3 241 19
	vfmaddsub231pd	%ymm11, %ymm6, %ymm3
.LBE1047:
.LBE1046:
.LBB1049:
.LBB1050:
	vfmaddsub132pd	%ymm9, %ymm10, %ymm1
.LVL313:
.LBE1050:
.LBE1049:
.LBB1052:
.LBB1053:
	vfmaddsub132pd	%ymm11, %ymm5, %ymm9
.LVL314:
.LBE1053:
.LBE1052:
.LBB1055:
.LBB1056:
	.loc 2 893 10
	vmovupd	112(%rdx), %ymm5
.LBE1056:
.LBE1055:
.LBB1058:
.LBB1039:
	.loc 2 690 20
	vperm2f128	$2, %ymm2, %ymm4, %ymm7
.LVL315:
.LBE1039:
.LBE1058:
	.loc 1 395 2 is_stmt 1
.LBB1059:
.LBB1060:
	.loc 2 690 3
	.loc 2 690 20 is_stmt 0
	vperm2f128	$1, %ymm2, %ymm2, %ymm2
.LVL316:
.LBE1060:
.LBE1059:
	.loc 1 397 2 is_stmt 1
.LBB1061:
.LBB1062:
	.loc 2 196 3
.LBE1062:
.LBE1061:
	.loc 1 398 2
.LBB1065:
.LBB1066:
	.loc 2 143 3
.LBE1066:
.LBE1065:
	.loc 1 401 2
.LBB1068:
.LBB1069:
	.loc 2 893 3
.LBE1069:
.LBE1068:
	.loc 1 402 2
.LBB1070:
.LBB1071:
	.loc 2 690 3
.LBE1071:
.LBE1070:
.LBB1074:
.LBB1063:
	.loc 2 196 20 is_stmt 0
	vblendpd	$12, %ymm4, %ymm2, %ymm4
.LBE1063:
.LBE1074:
.LBB1075:
.LBB1072:
	.loc 2 690 20
	vmovupd	16(%rdx), %ymm2
.LBE1072:
.LBE1075:
.LBB1076:
.LBB1064:
	.loc 2 196 20
	vmovapd	%ymm4, -32(%rsp)
.LVL317:
.LBE1064:
.LBE1076:
.LBB1077:
.LBB1078:
	.loc 2 893 10
	vmovupd	16(%rcx), %ymm4
.LBE1078:
.LBE1077:
.LBB1080:
.LBB1081:
	.loc 2 690 20
	vperm2f128	$2, %ymm0, %ymm3, %ymm6
.LVL318:
.LBE1081:
.LBE1080:
.LBB1083:
.LBB1084:
	vperm2f128	$1, %ymm0, %ymm0, %ymm0
.LBE1084:
.LBE1083:
.LBB1086:
.LBB1073:
	vperm2f128	$1, %ymm2, %ymm2, %ymm2
.LVL319:
.LBE1073:
.LBE1086:
	.loc 1 403 2 is_stmt 1
.LBB1087:
.LBB1088:
	.loc 2 869 3
.LBE1088:
.LBE1087:
	.loc 1 404 2
.LBB1089:
.LBB1090:
	.loc 2 196 3
.LBE1090:
.LBE1089:
.LBB1092:
.LBB1093:
	.loc 2 196 20 is_stmt 0
	vblendpd	$12, %ymm3, %ymm0, %ymm0
.LBE1093:
.LBE1092:
.LBB1095:
.LBB1067:
	.loc 2 143 10
	vaddpd	-32(%rsp), %ymm7, %ymm7
.LBE1067:
.LBE1095:
.LBB1096:
.LBB1097:
	.loc 2 690 20
	vperm2f128	$1, %ymm4, %ymm4, %ymm8
.LBE1097:
.LBE1096:
.LBB1099:
.LBB1091:
	.loc 2 196 20
	vblendpd	$12, 64(%rdx), %ymm2, %ymm2
.LVL320:
.LBE1091:
.LBE1099:
	.loc 1 406 2 is_stmt 1
.LBB1100:
.LBB1079:
	.loc 2 893 3
.LBE1079:
.LBE1100:
	.loc 1 407 2
.LBB1101:
.LBB1098:
	.loc 2 690 3
.LBE1098:
.LBE1101:
	.loc 1 408 2
.LBB1102:
.LBB1103:
	.loc 2 196 3
.LBE1103:
.LBE1102:
.LBB1105:
.LBB1106:
	.loc 2 690 20 is_stmt 0
	vperm2f128	$2, %ymm1, %ymm9, %ymm10
.LBE1106:
.LBE1105:
.LBB1108:
.LBB1104:
	.loc 2 196 20
	vblendpd	$12, %ymm4, %ymm8, %ymm4
.LVL321:
.LBE1104:
.LBE1108:
	.loc 1 410 2 is_stmt 1
.LBB1109:
.LBB1110:
	.loc 2 339 3
	.loc 2 339 20 is_stmt 0
	vpermilpd	$0, %ymm2, %ymm13
.LVL322:
.LBE1110:
.LBE1109:
	.loc 1 411 2 is_stmt 1
.LBB1111:
.LBB1112:
	.loc 2 339 3
	.loc 2 339 20 is_stmt 0
	vpermilpd	$15, %ymm2, %ymm2
.LVL323:
.LBE1112:
.LBE1111:
	.loc 1 412 2 is_stmt 1
.LBB1113:
.LBB1114:
	.loc 2 339 3
.LBE1114:
.LBE1113:
	.loc 1 414 2
.LBB1116:
.LBB1117:
	.loc 2 314 3
.LBE1117:
.LBE1116:
	.loc 1 415 2
.LBB1119:
.LBB1120:
	.loc 3 241 3
.LBE1120:
.LBE1119:
.LBB1122:
.LBB1115:
	.loc 2 339 20 is_stmt 0
	vpermilpd	$5, %ymm4, %ymm15
.LBE1115:
.LBE1122:
.LBB1123:
.LBB1124:
	.loc 2 196 20
	vblendpd	$12, %ymm14, %ymm8, %ymm8
.LVL324:
.LBE1124:
.LBE1123:
.LBB1126:
.LBB1127:
	.loc 2 690 20
	vperm2f128	$1, %ymm1, %ymm1, %ymm1
.LBE1127:
.LBE1126:
.LBB1129:
.LBB1118:
	.loc 2 314 10
	vmulpd	%ymm2, %ymm15, %ymm15
.LBE1118:
.LBE1129:
.LBB1130:
.LBB1131:
	.loc 2 196 20
	vblendpd	$12, %ymm9, %ymm1, %ymm1
.LBE1131:
.LBE1130:
.LBB1133:
.LBB1134:
	.loc 2 339 20
	vpermilpd	$5, %ymm8, %ymm9
.LBE1134:
.LBE1133:
.LBB1136:
.LBB1137:
	.loc 2 143 10
	vaddpd	%ymm1, %ymm10, %ymm1
.LBE1137:
.LBE1136:
.LBB1139:
.LBB1140:
	vaddpd	%ymm0, %ymm6, %ymm6
.LBE1140:
.LBE1139:
.LBB1142:
.LBB1121:
	.loc 3 241 19
	vfmaddsub132pd	%ymm13, %ymm15, %ymm4
.LVL325:
.LBE1121:
.LBE1142:
	.loc 1 418 2 is_stmt 1
.LBB1143:
.LBB1144:
	.loc 2 143 3
.LBE1144:
.LBE1143:
	.loc 1 423 2
.LBB1146:
.LBB1023:
	.loc 2 314 3
.LBE1023:
.LBE1146:
	.loc 1 424 2
.LBB1147:
.LBB1042:
	.loc 3 241 3
.LBE1042:
.LBE1147:
	.loc 1 427 2
.LBB1148:
.LBB1026:
	.loc 2 314 3
.LBE1026:
.LBE1148:
	.loc 1 428 2
.LBB1149:
.LBB1048:
	.loc 3 241 3
.LBE1048:
.LBE1149:
	.loc 1 432 2
.LBB1150:
.LBB1082:
	.loc 2 690 3
.LBE1082:
.LBE1150:
	.loc 1 433 2
.LBB1151:
.LBB1085:
	.loc 2 690 3
.LBE1085:
.LBE1151:
	.loc 1 435 2
.LBB1152:
.LBB1094:
	.loc 2 196 3
.LBE1094:
.LBE1152:
	.loc 1 436 2
.LBB1153:
.LBB1141:
	.loc 2 143 3
.LBE1141:
.LBE1153:
	.loc 1 439 2
.LBB1154:
.LBB1045:
	.loc 2 893 3
.LBE1045:
.LBE1154:
	.loc 1 440 2
.LBB1155:
.LBB1156:
	.loc 2 690 3
	.loc 2 690 20 is_stmt 0
	vperm2f128	$1, %ymm14, %ymm14, %ymm15
.LVL326:
.LBE1156:
.LBE1155:
	.loc 1 441 2 is_stmt 1
.LBB1157:
.LBB1158:
	.loc 2 196 3
	.loc 2 196 20 is_stmt 0
	vblendpd	$12, %ymm14, %ymm15, %ymm15
.LVL327:
.LBE1158:
.LBE1157:
	.loc 1 443 2 is_stmt 1
.LBB1159:
.LBB1160:
	.loc 2 339 3
.LBE1160:
.LBE1159:
	.loc 1 444 2
.LBB1162:
.LBB1163:
	.loc 2 314 3
.LBE1163:
.LBE1162:
	.loc 1 445 2
.LBB1165:
.LBB1166:
	.loc 3 241 3
.LBE1166:
.LBE1165:
.LBB1168:
.LBB1161:
	.loc 2 339 20 is_stmt 0
	vpermilpd	$5, %ymm15, %ymm3
.LVL328:
.LBE1161:
.LBE1168:
.LBB1169:
.LBB1164:
	.loc 2 314 10
	vmulpd	%ymm2, %ymm3, %ymm3
.LBE1164:
.LBE1169:
.LBB1170:
.LBB1171:
	.loc 2 690 20
	vperm2f128	$1, %ymm5, %ymm5, %ymm2
.LBE1171:
.LBE1170:
.LBB1173:
.LBB1174:
	.loc 2 196 20
	vblendpd	$12, %ymm5, %ymm2, %ymm2
.LBE1174:
.LBE1173:
.LBB1176:
.LBB1177:
	.loc 2 339 20
	vpermilpd	$0, %ymm2, %ymm5
.LBE1177:
.LBE1176:
.LBB1179:
.LBB1180:
	vpermilpd	$15, %ymm2, %ymm2
.LBE1180:
.LBE1179:
.LBB1182:
.LBB1145:
	.loc 2 143 10
	vaddpd	%ymm4, %ymm7, %ymm7
.LBE1145:
.LBE1182:
.LBB1183:
.LBB1184:
	.loc 2 314 10
	vmulpd	%ymm9, %ymm2, %ymm2
.LBE1184:
.LBE1183:
.LBB1186:
.LBB1167:
	.loc 3 241 19
	vfmaddsub231pd	%ymm15, %ymm13, %ymm3
.LVL329:
.LBE1167:
.LBE1186:
	.loc 1 448 2 is_stmt 1
.LBB1187:
.LBB1188:
	.loc 2 143 3
.LBE1188:
.LBE1187:
	.loc 1 455 2
.LBB1190:
.LBB1029:
	.loc 2 314 3
.LBE1029:
.LBE1190:
	.loc 1 456 2
.LBB1191:
.LBB1051:
	.loc 3 241 3
.LBE1051:
.LBE1191:
	.loc 1 461 2
.LBB1192:
.LBB1032:
	.loc 2 314 3
.LBE1032:
.LBE1192:
	.loc 1 462 2
.LBB1193:
.LBB1054:
	.loc 3 241 3
.LBE1054:
.LBE1193:
	.loc 1 466 2
.LBB1194:
.LBB1107:
	.loc 2 690 3
.LBE1107:
.LBE1194:
	.loc 1 467 2
.LBB1195:
.LBB1128:
	.loc 2 690 3
.LBE1128:
.LBE1195:
	.loc 1 469 2
.LBB1196:
.LBB1132:
	.loc 2 196 3
.LBE1132:
.LBE1196:
	.loc 1 470 2
.LBB1197:
.LBB1138:
	.loc 2 143 3
.LBE1138:
.LBE1197:
	.loc 1 473 2
.LBB1198:
.LBB1057:
	.loc 2 893 3
.LBE1057:
.LBE1198:
	.loc 1 474 2
.LBB1199:
.LBB1172:
	.loc 2 690 3
.LBE1172:
.LBE1199:
	.loc 1 475 2
.LBB1200:
.LBB1175:
	.loc 2 196 3
.LBE1175:
.LBE1200:
	.loc 1 476 2
.LBB1201:
.LBB1178:
	.loc 2 339 3
.LBE1178:
.LBE1201:
	.loc 1 477 2
.LBB1202:
.LBB1181:
	.loc 2 339 3
.LBE1181:
.LBE1202:
	.loc 1 479 2
.LBB1203:
.LBB1125:
	.loc 2 196 3
.LBE1125:
.LBE1203:
	.loc 1 480 2
.LBB1204:
.LBB1135:
	.loc 2 339 3
.LBE1135:
.LBE1204:
	.loc 1 482 2
.LBB1205:
.LBB1185:
	.loc 2 314 3
.LBE1185:
.LBE1205:
	.loc 1 483 2
.LBB1206:
.LBB1207:
	.loc 3 241 3
.LBE1207:
.LBE1206:
.LBB1209:
.LBB1210:
	.loc 2 899 21 is_stmt 0
	vmovupd	%ymm7, (%rdi)
.LVL330:
.LBE1210:
.LBE1209:
.LBB1212:
.LBB1208:
	.loc 3 241 19
	vfmaddsub231pd	%ymm8, %ymm5, %ymm2
.LVL331:
.LBE1208:
.LBE1212:
	.loc 1 485 2 is_stmt 1
.LBB1213:
.LBB1214:
	.loc 2 143 3
.LBE1214:
.LBE1213:
.LBB1216:
.LBB1189:
	.loc 2 143 10 is_stmt 0
	vaddpd	%ymm3, %ymm6, %ymm6
.LBE1189:
.LBE1216:
.LBB1217:
.LBB1215:
	vaddpd	%ymm2, %ymm1, %ymm1
.LVL332:
.LBE1215:
.LBE1217:
	.loc 1 487 2 is_stmt 1
.LBB1218:
.LBB1219:
	.loc 2 1457 3
.LBE1219:
.LBE1218:
	.loc 1 488 2
.LBB1220:
.LBB1221:
	.loc 2 520 3
.LBE1221:
.LBE1220:
	.loc 1 493 2
.LBB1222:
.LBB1211:
	.loc 2 899 3
.LBE1211:
.LBE1222:
	.loc 1 494 2
.LBB1223:
.LBB1224:
	.loc 4 166 3
	.loc 4 166 19 is_stmt 0
	vmovapd	%xmm1, 192(%rdi)
.LVL333:
.LBE1224:
.LBE1223:
	.loc 1 496 2 is_stmt 1
.LBB1225:
.LBB1226:
	.loc 2 899 3
.LBE1226:
.LBE1225:
.LBB1228:
.LBB1229:
	.loc 4 166 19 is_stmt 0
	vextractf128	$0x1, %ymm1, 192(%rsi)
.LVL334:
.LBE1229:
.LBE1228:
.LBB1231:
.LBB1227:
	.loc 2 899 21
	vmovupd	%ymm6, (%rsi)
.LVL335:
.LBE1227:
.LBE1231:
	.loc 1 497 2 is_stmt 1
.LBB1232:
.LBB1230:
	.loc 4 166 3
	vzeroupper
.LVL336:
.LBE1230:
.LBE1232:
	.loc 1 498 1 is_stmt 0
	leave
	.cfi_def_cfa 7, 8
	ret
	.cfi_endproc
.LFE6409:
	.size	double_MVM_non_macro, .-double_MVM_non_macro
	.section	.rodata.cst8,"aM",@progbits,8
	.align 8
.LC1:
	.long	0
	.long	1093567616
	.align 8
.LC5:
	.long	-1598689907
	.long	1051772663
	.section	.rodata.cst16,"aM",@progbits,16
	.align 16
.LC8:
	.long	-1
	.long	2147483647
	.long	0
	.long	0
	.section	.rodata.cst8
	.align 8
.LC9:
	.long	-1629006314
	.long	1020396463
	.text
.Letext0:
	.file 5 "/home/mrahman/spack/opt/spack/linux-centos7-haswell/gcc-4.8.5/gcc-12.1.0-rfwstyfbaftyze73vaufakvxclc3eqpm/lib/gcc/x86_64-pc-linux-gnu/12.1.0/include/stddef.h"
	.file 6 "/usr/include/bits/types.h"
	.file 7 "/usr/include/time.h"
	.file 8 "/usr/include/bits/time.h"
	.file 9 "/usr/include/sys/time.h"
	.file 10 "/usr/include/bits/sched.h"
	.file 11 "suN_types.h"
	.file 12 "memory.h"
	.file 13 "error.h"
	.file 14 "logger.h"
	.file 15 "header.h"
	.file 16 "/home/mrahman/spack/opt/spack/linux-centos7-haswell/gcc-4.8.5/gcc-12.1.0-rfwstyfbaftyze73vaufakvxclc3eqpm/lib/gcc/x86_64-pc-linux-gnu/12.1.0/include/omp.h"
	.file 17 "/usr/include/sched.h"
	.file 18 "<built-in>"
	.section	.note.GNU-stack,"",@progbits
