	.file	"avx_complex_vec_align_load.c"
	.text
.Ltext0:
	.file 1 "avx_complex_vec_align_load.c"
	.section	.rodata.str1.8,"aMS",@progbits,1
	.align 8
.LC0:
	.string	"WARNING: Could not set CPU Affinity, continuing..."
	.align 8
.LC2:
	.string	"CPU time (clock)                = %12.4g sec\n"
	.section	.rodata.str1.1,"aMS",@progbits,1
.LC3:
	.string	"MVM_MACRO"
	.section	.rodata.str1.8
	.align 8
.LC4:
	.string	"wall clock time (omp_get_wtime) = %12.4g sec\n"
	.align 8
.LC6:
	.string	"wall clock time (gettimeofday)  = %12.4g sec\n\n"
	.section	.rodata.str1.1
.LC7:
	.string	"THETA_T_MULTIPLY"
	.section	.rodata.str1.8
	.align 8
.LC10:
	.string	" are not equal ==> Test Failed!"
	.align 8
.LC11:
	.string	"First Vector in double_MVM_macro and theta_T_multiply"
	.align 8
.LC12:
	.string	" are not equal ==>Test Failed!"
	.align 8
.LC13:
	.string	"Second Vector in double_MVM_macro and theta_T_multiply"
	.section	.text.startup,"ax",@progbits
	.p2align 4
	.globl	main
	.type	main, @function
main:
.LFB6408:
	.loc 1 158 1
	.cfi_startproc
	.loc 1 159 2
	.loc 1 160 2
.LVL0:
	.loc 1 161 2
	.loc 1 162 2
	.loc 1 163 2
	.loc 1 164 2
	.loc 1 165 2
	.loc 1 168 1
	.loc 1 169 1
	.loc 1 171 5
	.loc 1 176 1
	.loc 1 177 1
	.loc 1 177 1
	.loc 1 158 1 is_stmt 0
	leaq	8(%rsp), %r10
	.cfi_def_cfa 10, 0
	andq	$-32, %rsp
	.loc 1 177 1
	xorl	%eax, %eax
	movl	$15, %ecx
	.loc 1 158 1
	pushq	-8(%r10)
	.loc 1 179 4
	movl	$128, %esi
	.loc 1 158 1
	pushq	%rbp
	movq	%rsp, %rbp
	.cfi_escape 0x10,0x6,0x2,0x76,0
	pushq	%r15
	pushq	%r14
	.loc 1 177 1
	leaq	-168(%rbp), %rdx
	.loc 1 158 1
	pushq	%r13
	.loc 1 177 1
	movq	%rdx, %rdi
	.loc 1 179 4
	leaq	-176(%rbp), %rdx
	.loc 1 158 1
	pushq	%r12
	pushq	%r10
	.cfi_escape 0xf,0x3,0x76,0x58,0x6
	.cfi_escape 0x10,0xf,0x2,0x76,0x78
	.cfi_escape 0x10,0xe,0x2,0x76,0x70
	.cfi_escape 0x10,0xd,0x2,0x76,0x68
	.cfi_escape 0x10,0xc,0x2,0x76,0x60
	pushq	%rbx
	subq	$896, %rsp
	.cfi_escape 0x10,0x3,0x2,0x76,0x50
.LBB443:
	.loc 1 178 1
	movq	$1, -176(%rbp)
.LBE443:
	.loc 1 177 1
	rep stosq
	.loc 1 177 1 is_stmt 1
	.loc 1 178 1
.LBB444:
	.loc 1 178 1
.LVL1:
	.loc 1 178 1
.LBE444:
	.loc 1 179 1
	.loc 1 179 4 is_stmt 0
	xorl	%edi, %edi
	call	sched_setaffinity
.LVL2:
	.loc 1 179 3
	cmpl	$-1, %eax
	je	.L68
.L2:
	.loc 1 182 2 is_stmt 1
	.loc 1 183 2
	.loc 1 186 3
	.loc 1 187 9 is_stmt 0
	movabsq	$4800000000, %rbx
	.loc 1 186 8
	movl	$8, %esi
	movabsq	$14400000000, %rdi
	call	amalloc
.LVL3:
	.loc 1 187 9
	movq	%rbx, %rdi
	movl	$8, %esi
	.loc 1 186 8
	movq	%rax, %r15
	movq	%rax, -368(%rbp)
.LVL4:
	.loc 1 187 3 is_stmt 1
	.loc 1 187 9 is_stmt 0
	call	amalloc
.LVL5:
	.loc 1 188 10
	movq	%rbx, %rdi
	movl	$8, %esi
	movq	%r15, %r14
	.loc 1 187 9
	movq	%rax, -256(%rbp)
.LVL6:
	.loc 1 188 3 is_stmt 1
	.loc 1 188 10 is_stmt 0
	call	amalloc
.LVL7:
	.loc 1 189 9
	movq	%rbx, %rdi
	movl	$8, %esi
	.loc 1 188 10
	movq	%rax, -240(%rbp)
.LVL8:
	.loc 1 189 3 is_stmt 1
	.loc 1 189 9 is_stmt 0
	call	amalloc
.LVL9:
	.loc 1 190 10
	movq	%rbx, %rdi
	movl	$8, %esi
	.loc 1 189 9
	movq	%rax, -320(%rbp)
.LVL10:
	.loc 1 190 3 is_stmt 1
	.loc 1 190 10 is_stmt 0
	call	amalloc
.LVL11:
	.loc 1 191 10
	movq	%rbx, %rdi
	movl	$8, %esi
	.loc 1 190 10
	movq	%rax, -344(%rbp)
.LVL12:
	.loc 1 191 3 is_stmt 1
	.loc 1 191 10 is_stmt 0
	call	amalloc
.LVL13:
	.loc 1 192 10
	movq	%rbx, %rdi
	movl	$8, %esi
	.loc 1 191 10
	movq	%rax, -664(%rbp)
.LVL14:
	.loc 1 192 3 is_stmt 1
	.loc 1 192 10 is_stmt 0
	call	amalloc
.LVL15:
	.loc 1 193 10
	movq	%rbx, %rdi
	movl	$8, %esi
	.loc 1 192 10
	movq	%rax, -672(%rbp)
.LVL16:
	.loc 1 193 3 is_stmt 1
	.loc 1 193 10 is_stmt 0
	call	amalloc
.LVL17:
	.loc 1 194 10
	movq	%rbx, %rdi
	movl	$8, %esi
	leaq	144(%r15), %rbx
	.loc 1 193 10
	movq	%rax, -352(%rbp)
.LVL18:
	.loc 1 194 3 is_stmt 1
	movabsq	$14400000144, %r15
.LVL19:
	.loc 1 194 10 is_stmt 0
	call	amalloc
.LVL20:
	movq	-256(%rbp), %r9
	movq	-240(%rbp), %r10
	addq	%r14, %r15
	movq	%rax, -360(%rbp)
.LVL21:
	.loc 1 203 3 is_stmt 1
	.loc 1 203 13
	movq	%r9, -240(%rbp)
.LVL22:
	.loc 1 194 10 is_stmt 0
	movq	%r10, %r13
	movq	%r9, %r12
	movq	%r14, -256(%rbp)
.LVL23:
	movq	%r10, -272(%rbp)
	movq	%r9, -288(%rbp)
	movq	%r10, -304(%rbp)
.LVL24:
	.p2align 4,,10
	.p2align 3
.L3:
	.loc 1 205 15 is_stmt 1
	.loc 1 208 12 is_stmt 0
	xorl	%r14d, %r14d
.LVL25:
.L4:
	.loc 1 207 7 is_stmt 1 discriminator 3
	.loc 1 207 23 is_stmt 0 discriminator 3
	movl	$5, %edi
	call	my_rand
.LVL26:
	.loc 1 208 24 discriminator 3
	movl	$5, %edi
	.loc 1 207 21 discriminator 3
	vunpcklpd	%xmm1, %xmm0, %xmm1
	vmovupd	%xmm1, (%r12,%r14)
	.loc 1 208 7 is_stmt 1 discriminator 3
	.loc 1 208 24 is_stmt 0 discriminator 3
	call	my_rand
.LVL27:
	.loc 1 208 22 discriminator 3
	vunpcklpd	%xmm1, %xmm0, %xmm1
	vmovupd	%xmm1, 0(%r13,%r14)
	.loc 1 205 20 is_stmt 1 discriminator 3
.LVL28:
	.loc 1 205 15 discriminator 3
	addq	$16, %r14
.LVL29:
	cmpq	$48, %r14
	jne	.L4
	leaq	-144(%rbx), %r14
.LVL30:
	.p2align 4,,10
	.p2align 3
.L5:
	.loc 1 213 7 discriminator 3
	.loc 1 213 22 is_stmt 0 discriminator 3
	movl	$5, %edi
	.loc 1 211 15 discriminator 3
	addq	$16, %r14
.LVL31:
	.loc 1 213 22 discriminator 3
	call	my_rand
.LVL32:
	.loc 1 213 20 discriminator 3
	vunpcklpd	%xmm1, %xmm0, %xmm1
	vmovupd	%xmm1, -16(%r14)
	.loc 1 211 20 is_stmt 1 discriminator 3
.LVL33:
	.loc 1 211 15 discriminator 3
	cmpq	%rbx, %r14
	jne	.L5
	.loc 1 203 19 discriminator 2
.LVL34:
	.loc 1 203 13 discriminator 2
	leaq	144(%r14), %rbx
	addq	$48, %r12
	addq	$48, %r13
	cmpq	%r15, %rbx
	jne	.L3
	movq	-240(%rbp), %rcx
	movq	-256(%rbp), %r14
.LVL35:
	xorl	%eax, %eax
	.loc 1 222 11 is_stmt 0
	movabsq	$4800000000, %rsi
	movq	-272(%rbp), %r8
	movq	-288(%rbp), %r9
	movq	-304(%rbp), %r10
	movq	-320(%rbp), %r11
	movq	-368(%rbp), %rdx
	movq	-344(%rbp), %rdi
.LVL36:
	.p2align 4,,10
	.p2align 3
.L6:
	.loc 1 224 3 is_stmt 1 discriminator 3
.LBB445:
	.loc 1 224 3 discriminator 3
	.loc 1 224 3 discriminator 3
	.loc 1 224 3 discriminator 3
.LBB446:
.LBB447:
	.file 2 "/home/mrahman/spack/opt/spack/linux-centos7-haswell/gcc-4.8.5/gcc-12.1.0-rfwstyfbaftyze73vaufakvxclc3eqpm/lib/gcc/x86_64-pc-linux-gnu/12.1.0/include/avxintrin.h"
	.loc 2 869 3 discriminator 3
.LBE447:
.LBE446:
	.loc 1 224 3 discriminator 3
.LBB448:
.LBB449:
	.loc 2 339 3 discriminator 3
.LBE449:
.LBE448:
.LBB451:
.LBB452:
	.loc 2 869 10 is_stmt 0 discriminator 3
	vmovapd	(%r9,%rax), %ymm1
.LBE452:
.LBE451:
.LBB454:
.LBB455:
	.loc 2 339 20 discriminator 3
	vpermilpd	$15, (%rdx), %ymm0
.LBE455:
.LBE454:
.LBE445:
	.loc 1 222 11 discriminator 3
	addq	$144, %rdx
.LVL37:
.LBB710:
.LBB457:
.LBB458:
	.loc 2 339 20 discriminator 3
	vpermilpd	$15, -96(%rdx), %ymm4
.LBE458:
.LBE457:
.LBB460:
.LBB461:
	vpermilpd	$0, -96(%rdx), %ymm13
.LBE461:
.LBE460:
.LBB463:
.LBB464:
	vpermilpd	$5, %ymm1, %ymm10
.LBE464:
.LBE463:
.LBB466:
.LBB467:
	vpermilpd	$15, -48(%rdx), %ymm6
.LBE467:
.LBE466:
.LBB469:
.LBB450:
	vpermilpd	$0, -144(%rdx), %ymm14
.LVL38:
.LBE450:
.LBE469:
	.loc 1 224 3 is_stmt 1 discriminator 3
.LBB470:
.LBB456:
	.loc 2 339 3 discriminator 3
.LBE456:
.LBE470:
	.loc 1 224 3 discriminator 3
.LBB471:
.LBB472:
	.loc 2 893 3 discriminator 3
.LBE472:
.LBE471:
	.loc 1 224 3 discriminator 3
.LBB473:
.LBB462:
	.loc 2 339 3 discriminator 3
.LBE462:
.LBE473:
	.loc 1 224 3 discriminator 3
.LBB474:
.LBB459:
	.loc 2 339 3 discriminator 3
.LBE459:
.LBE474:
	.loc 1 224 3 discriminator 3
.LBB475:
.LBB476:
	.loc 2 869 3 discriminator 3
.LBE476:
.LBE475:
	.loc 1 224 3 discriminator 3
.LBB477:
.LBB478:
	.loc 2 339 3 discriminator 3
.LBE478:
.LBE477:
.LBB480:
.LBB481:
	.loc 2 314 10 is_stmt 0 discriminator 3
	vmulpd	%ymm10, %ymm0, %ymm3
.LBE481:
.LBE480:
.LBB483:
.LBB484:
	.loc 2 690 20 discriminator 3
	vmovupd	-128(%rdx), %ymm5
.LBE484:
.LBE483:
.LBB486:
.LBB487:
	.loc 2 339 20 discriminator 3
	vpermilpd	$5, (%r10,%rax), %ymm11
.LBE487:
.LBE486:
.LBB489:
.LBB490:
	.loc 2 314 10 discriminator 3
	vmulpd	%ymm10, %ymm4, %ymm2
.LBE490:
.LBE489:
.LBB492:
.LBB479:
	.loc 2 339 20 discriminator 3
	vpermilpd	$0, -48(%rdx), %ymm9
.LVL39:
.LBE479:
.LBE492:
	.loc 1 224 3 is_stmt 1 discriminator 3
.LBB493:
.LBB468:
	.loc 2 339 3 discriminator 3
.LBE468:
.LBE493:
	.loc 1 224 3 discriminator 3
.LBB494:
.LBB453:
	.loc 2 869 3 discriminator 3
.LBE453:
.LBE494:
	.loc 1 224 3 discriminator 3
.LBB495:
.LBB465:
	.loc 2 339 3 discriminator 3
.LBE465:
.LBE495:
	.loc 1 224 3 discriminator 3
.LBB496:
.LBB497:
	.loc 2 869 3 discriminator 3
.LBE497:
.LBE496:
	.loc 1 224 3 discriminator 3
.LBB498:
.LBB488:
	.loc 2 339 3 discriminator 3
.LBE488:
.LBE498:
	.loc 1 224 3 discriminator 3
.LBB499:
.LBB482:
	.loc 2 314 3 discriminator 3
.LBE482:
.LBE499:
	.loc 1 224 3 discriminator 3
.LBB500:
.LBB501:
	.file 3 "/home/mrahman/spack/opt/spack/linux-centos7-haswell/gcc-4.8.5/gcc-12.1.0-rfwstyfbaftyze73vaufakvxclc3eqpm/lib/gcc/x86_64-pc-linux-gnu/12.1.0/include/fmaintrin.h"
	.loc 3 241 3 discriminator 3
.LBE501:
.LBE500:
.LBB503:
.LBB504:
	.loc 2 314 10 is_stmt 0 discriminator 3
	vmulpd	%ymm10, %ymm6, %ymm10
.LVL40:
.LBE504:
.LBE503:
.LBB506:
.LBB507:
	vmulpd	%ymm11, %ymm6, %ymm6
.LVL41:
.LBE507:
.LBE506:
.LBB509:
.LBB510:
	vmulpd	%ymm11, %ymm4, %ymm4
.LVL42:
.LBE510:
.LBE509:
.LBB512:
.LBB513:
	vmulpd	%ymm11, %ymm0, %ymm0
.LVL43:
.LBE513:
.LBE512:
.LBB515:
.LBB502:
	.loc 3 241 19 discriminator 3
	vfmaddsub231pd	%ymm1, %ymm14, %ymm3
.LVL44:
.LBE502:
.LBE515:
	.loc 1 224 3 is_stmt 1 discriminator 3
.LBB516:
.LBB491:
	.loc 2 314 3 discriminator 3
.LBE491:
.LBE516:
	.loc 1 224 3 discriminator 3
.LBB517:
.LBB518:
	.loc 3 241 3 discriminator 3
	.loc 3 241 19 is_stmt 0 discriminator 3
	vfmaddsub231pd	%ymm1, %ymm13, %ymm2
.LVL45:
.LBE518:
.LBE517:
	.loc 1 224 3 is_stmt 1 discriminator 3
.LBB519:
.LBB520:
	.loc 2 690 3 discriminator 3
.LBE520:
.LBE519:
.LBB522:
.LBB523:
	.loc 3 241 19 is_stmt 0 discriminator 3
	vfmaddsub231pd	(%r10,%rax), %ymm14, %ymm0
.LBE523:
.LBE522:
.LBB525:
.LBB526:
	.loc 2 893 10 discriminator 3
	vmovupd	16(%r10,%rax), %ymm14
.LVL46:
.LBE526:
.LBE525:
.LBB528:
.LBB529:
	.loc 3 241 19 discriminator 3
	vfmaddsub132pd	%ymm9, %ymm10, %ymm1
.LVL47:
.LBE529:
.LBE528:
.LBB531:
.LBB532:
	vfmaddsub132pd	(%r10,%rax), %ymm6, %ymm9
.LVL48:
.LBE532:
.LBE531:
.LBB534:
.LBB535:
	vfmaddsub132pd	(%r10,%rax), %ymm4, %ymm13
.LVL49:
.LBE535:
.LBE534:
.LBB537:
.LBB521:
	.loc 2 690 20 discriminator 3
	vperm2f128	$2, %ymm3, %ymm2, %ymm7
.LVL50:
.LBE521:
.LBE537:
	.loc 1 224 3 is_stmt 1 discriminator 3
.LBB538:
.LBB539:
	.loc 2 690 3 discriminator 3
	.loc 2 690 20 is_stmt 0 discriminator 3
	vperm2f128	$1, %ymm3, %ymm3, %ymm3
.LVL51:
.LBE539:
.LBE538:
	.loc 1 224 3 is_stmt 1 discriminator 3
.LBB540:
.LBB541:
	.loc 2 196 3 discriminator 3
	.loc 2 196 20 is_stmt 0 discriminator 3
	vblendpd	$12, %ymm2, %ymm3, %ymm3
.LVL52:
.LBE541:
.LBE540:
	.loc 1 224 3 is_stmt 1 discriminator 3
.LBB542:
.LBB543:
	.loc 2 143 3 discriminator 3
.LBE543:
.LBE542:
	.loc 1 224 3 discriminator 3
.LBB545:
.LBB546:
	.loc 2 893 3 discriminator 3
.LBE546:
.LBE545:
	.loc 1 224 3 discriminator 3
.LBB547:
.LBB485:
	.loc 2 690 3 discriminator 3
	.loc 2 690 20 is_stmt 0 discriminator 3
	vperm2f128	$1, %ymm5, %ymm5, %ymm2
.LVL53:
.LBE485:
.LBE547:
	.loc 1 224 3 is_stmt 1 discriminator 3
.LBB548:
.LBB549:
	.loc 2 869 3 discriminator 3
.LBE549:
.LBE548:
	.loc 1 224 3 discriminator 3
.LBB550:
.LBB551:
	.loc 2 196 3 discriminator 3
.LBE551:
.LBE550:
.LBB553:
.LBB554:
	.loc 2 893 10 is_stmt 0 discriminator 3
	vmovupd	16(%r9,%rax), %ymm5
.LBE554:
.LBE553:
.LBB556:
.LBB557:
	.loc 2 690 20 discriminator 3
	vperm2f128	$2, %ymm1, %ymm9, %ymm6
.LBE557:
.LBE556:
.LBB559:
.LBB560:
	vperm2f128	$1, %ymm1, %ymm1, %ymm1
.LBE560:
.LBE559:
.LBB562:
.LBB552:
	.loc 2 196 20 discriminator 3
	vblendpd	$12, -80(%rdx), %ymm2, %ymm2
.LVL54:
.LBE552:
.LBE562:
	.loc 1 224 3 is_stmt 1 discriminator 3
.LBB563:
.LBB555:
	.loc 2 893 3 discriminator 3
.LBE555:
.LBE563:
	.loc 1 224 3 discriminator 3
.LBB564:
.LBB565:
	.loc 2 690 3 discriminator 3
.LBE565:
.LBE564:
.LBB567:
.LBB568:
	.loc 2 690 20 is_stmt 0 discriminator 3
	vperm2f128	$2, %ymm0, %ymm13, %ymm4
.LBE568:
.LBE567:
.LBB570:
.LBB566:
	vperm2f128	$1, %ymm5, %ymm5, %ymm8
.LVL55:
.LBE566:
.LBE570:
	.loc 1 224 3 is_stmt 1 discriminator 3
.LBB571:
.LBB572:
	.loc 2 196 3 discriminator 3
.LBE572:
.LBE571:
.LBB574:
.LBB575:
	.loc 2 339 20 is_stmt 0 discriminator 3
	vpermilpd	$0, %ymm2, %ymm12
.LBE575:
.LBE574:
.LBB577:
.LBB578:
	vpermilpd	$15, %ymm2, %ymm2
.LVL56:
.LBE578:
.LBE577:
.LBB580:
.LBB573:
	.loc 2 196 20 discriminator 3
	vblendpd	$12, %ymm5, %ymm8, %ymm5
.LVL57:
.LBE573:
.LBE580:
	.loc 1 224 3 is_stmt 1 discriminator 3
.LBB581:
.LBB576:
	.loc 2 339 3 discriminator 3
.LBE576:
.LBE581:
	.loc 1 224 3 discriminator 3
.LBB582:
.LBB579:
	.loc 2 339 3 discriminator 3
.LBE579:
.LBE582:
	.loc 1 224 3 discriminator 3
.LBB583:
.LBB584:
	.loc 2 339 3 discriminator 3
.LBE584:
.LBE583:
	.loc 1 224 3 discriminator 3
.LBB586:
.LBB587:
	.loc 2 314 3 discriminator 3
.LBE587:
.LBE586:
	.loc 1 224 3 discriminator 3
.LBB589:
.LBB590:
	.loc 3 241 3 discriminator 3
.LBE590:
.LBE589:
.LBB592:
.LBB593:
	.loc 2 196 20 is_stmt 0 discriminator 3
	vblendpd	$12, %ymm9, %ymm1, %ymm1
.LBE593:
.LBE592:
.LBB595:
.LBB596:
	.loc 2 690 20 discriminator 3
	vperm2f128	$1, %ymm0, %ymm0, %ymm0
.LBE596:
.LBE595:
.LBB598:
.LBB599:
	.loc 2 893 10 discriminator 3
	vmovupd	-32(%rdx), %ymm9
.LBE599:
.LBE598:
.LBB601:
.LBB585:
	.loc 2 339 20 discriminator 3
	vpermilpd	$5, %ymm5, %ymm15
.LBE585:
.LBE601:
.LBB602:
.LBB603:
	.loc 2 196 20 discriminator 3
	vblendpd	$12, %ymm13, %ymm0, %ymm0
.LBE603:
.LBE602:
.LBB605:
.LBB606:
	vblendpd	$12, %ymm14, %ymm8, %ymm8
.LVL58:
.LBE606:
.LBE605:
.LBB608:
.LBB588:
	.loc 2 314 10 discriminator 3
	vmulpd	%ymm2, %ymm15, %ymm15
.LBE588:
.LBE608:
.LBB609:
.LBB610:
	.loc 2 339 20 discriminator 3
	vpermilpd	$5, %ymm8, %ymm10
.LBE610:
.LBE609:
.LBB612:
.LBB613:
	.loc 2 143 10 discriminator 3
	vaddpd	%ymm1, %ymm6, %ymm1
.LBE613:
.LBE612:
.LBB615:
.LBB544:
	vaddpd	%ymm3, %ymm7, %ymm7
.LVL59:
.LBE544:
.LBE615:
.LBB616:
.LBB617:
	vaddpd	%ymm0, %ymm4, %ymm4
.LBE617:
.LBE616:
.LBB619:
.LBB591:
	.loc 3 241 19 discriminator 3
	vfmaddsub132pd	%ymm12, %ymm15, %ymm5
.LVL60:
.LBE591:
.LBE619:
	.loc 1 224 3 is_stmt 1 discriminator 3
.LBB620:
.LBB621:
	.loc 2 143 3 discriminator 3
.LBE621:
.LBE620:
	.loc 1 224 3 discriminator 3
.LBB623:
.LBB514:
	.loc 2 314 3 discriminator 3
.LBE514:
.LBE623:
	.loc 1 224 3 discriminator 3
.LBB624:
.LBB524:
	.loc 3 241 3 discriminator 3
.LBE524:
.LBE624:
	.loc 1 224 3 discriminator 3
.LBB625:
.LBB511:
	.loc 2 314 3 discriminator 3
.LBE511:
.LBE625:
	.loc 1 224 3 discriminator 3
.LBB626:
.LBB536:
	.loc 3 241 3 discriminator 3
.LBE536:
.LBE626:
	.loc 1 224 3 discriminator 3
.LBB627:
.LBB569:
	.loc 2 690 3 discriminator 3
.LBE569:
.LBE627:
	.loc 1 224 3 discriminator 3
.LBB628:
.LBB597:
	.loc 2 690 3 discriminator 3
.LBE597:
.LBE628:
	.loc 1 224 3 discriminator 3
.LBB629:
.LBB604:
	.loc 2 196 3 discriminator 3
.LBE604:
.LBE629:
	.loc 1 224 3 discriminator 3
.LBB630:
.LBB618:
	.loc 2 143 3 discriminator 3
.LBE618:
.LBE630:
	.loc 1 224 3 discriminator 3
.LBB631:
.LBB527:
	.loc 2 893 3 discriminator 3
.LBE527:
.LBE631:
	.loc 1 224 3 discriminator 3
.LBB632:
.LBB633:
	.loc 2 690 3 discriminator 3
	.loc 2 690 20 is_stmt 0 discriminator 3
	vperm2f128	$1, %ymm14, %ymm14, %ymm15
.LVL61:
.LBE633:
.LBE632:
	.loc 1 224 3 is_stmt 1 discriminator 3
.LBB634:
.LBB635:
	.loc 2 196 3 discriminator 3
	.loc 2 196 20 is_stmt 0 discriminator 3
	vblendpd	$12, %ymm14, %ymm15, %ymm15
.LVL62:
.LBE635:
.LBE634:
	.loc 1 224 3 is_stmt 1 discriminator 3
.LBB636:
.LBB637:
	.loc 2 339 3 discriminator 3
.LBE637:
.LBE636:
	.loc 1 224 3 discriminator 3
.LBB639:
.LBB640:
	.loc 2 314 3 discriminator 3
.LBE640:
.LBE639:
	.loc 1 224 3 discriminator 3
.LBB642:
.LBB643:
	.loc 3 241 3 discriminator 3
.LBE643:
.LBE642:
.LBB645:
.LBB638:
	.loc 2 339 20 is_stmt 0 discriminator 3
	vpermilpd	$5, %ymm15, %ymm13
.LVL63:
.LBE638:
.LBE645:
.LBB646:
.LBB641:
	.loc 2 314 10 discriminator 3
	vmulpd	%ymm2, %ymm13, %ymm13
.LBE641:
.LBE646:
.LBB647:
.LBB648:
	.loc 2 690 20 discriminator 3
	vperm2f128	$1, %ymm9, %ymm9, %ymm2
.LBE648:
.LBE647:
.LBB650:
.LBB651:
	.loc 2 196 20 discriminator 3
	vblendpd	$12, %ymm9, %ymm2, %ymm2
.LBE651:
.LBE650:
.LBB653:
.LBB654:
	.loc 2 339 20 discriminator 3
	vpermilpd	$0, %ymm2, %ymm9
.LBE654:
.LBE653:
.LBB656:
.LBB657:
	vpermilpd	$15, %ymm2, %ymm2
.LBE657:
.LBE656:
.LBB659:
.LBB622:
	.loc 2 143 10 discriminator 3
	vaddpd	%ymm5, %ymm7, %ymm7
.LBE622:
.LBE659:
.LBB660:
.LBB661:
	.loc 2 314 10 discriminator 3
	vmulpd	%ymm10, %ymm2, %ymm2
.LBE661:
.LBE660:
.LBB663:
.LBB644:
	.loc 3 241 19 discriminator 3
	vfmaddsub231pd	%ymm15, %ymm12, %ymm13
.LVL64:
.LBE644:
.LBE663:
	.loc 1 224 3 is_stmt 1 discriminator 3
.LBB664:
.LBB665:
	.loc 2 143 3 discriminator 3
.LBE665:
.LBE664:
	.loc 1 224 3 discriminator 3
.LBB667:
.LBB505:
	.loc 2 314 3 discriminator 3
.LBE505:
.LBE667:
	.loc 1 224 3 discriminator 3
.LBB668:
.LBB530:
	.loc 3 241 3 discriminator 3
.LBE530:
.LBE668:
	.loc 1 224 3 discriminator 3
.LBB669:
.LBB508:
	.loc 2 314 3 discriminator 3
.LBE508:
.LBE669:
	.loc 1 224 3 discriminator 3
.LBB670:
.LBB533:
	.loc 3 241 3 discriminator 3
.LBE533:
.LBE670:
	.loc 1 224 3 discriminator 3
.LBB671:
.LBB558:
	.loc 2 690 3 discriminator 3
.LBE558:
.LBE671:
	.loc 1 224 3 discriminator 3
.LBB672:
.LBB561:
	.loc 2 690 3 discriminator 3
.LBE561:
.LBE672:
	.loc 1 224 3 discriminator 3
.LBB673:
.LBB594:
	.loc 2 196 3 discriminator 3
.LBE594:
.LBE673:
	.loc 1 224 3 discriminator 3
.LBB674:
.LBB614:
	.loc 2 143 3 discriminator 3
.LBE614:
.LBE674:
	.loc 1 224 3 discriminator 3
.LBB675:
.LBB600:
	.loc 2 893 3 discriminator 3
.LBE600:
.LBE675:
	.loc 1 224 3 discriminator 3
.LBB676:
.LBB649:
	.loc 2 690 3 discriminator 3
.LBE649:
.LBE676:
	.loc 1 224 3 discriminator 3
.LBB677:
.LBB652:
	.loc 2 196 3 discriminator 3
.LBE652:
.LBE677:
	.loc 1 224 3 discriminator 3
.LBB678:
.LBB655:
	.loc 2 339 3 discriminator 3
.LBE655:
.LBE678:
	.loc 1 224 3 discriminator 3
.LBB679:
.LBB658:
	.loc 2 339 3 discriminator 3
.LBE658:
.LBE679:
	.loc 1 224 3 discriminator 3
.LBB680:
.LBB607:
	.loc 2 196 3 discriminator 3
.LBE607:
.LBE680:
	.loc 1 224 3 discriminator 3
.LBB681:
.LBB611:
	.loc 2 339 3 discriminator 3
.LBE611:
.LBE681:
	.loc 1 224 3 discriminator 3
.LBB682:
.LBB662:
	.loc 2 314 3 discriminator 3
.LBE662:
.LBE682:
	.loc 1 224 3 discriminator 3
.LBB683:
.LBB684:
	.loc 3 241 3 discriminator 3
.LBE684:
.LBE683:
.LBB686:
.LBB687:
	.loc 2 899 21 is_stmt 0 discriminator 3
	vmovupd	%ymm7, (%r11,%rax)
.LVL65:
.LBE687:
.LBE686:
.LBB689:
.LBB685:
	.loc 3 241 19 discriminator 3
	vfmaddsub231pd	%ymm8, %ymm9, %ymm2
.LVL66:
.LBE685:
.LBE689:
	.loc 1 224 3 is_stmt 1 discriminator 3
.LBB690:
.LBB691:
	.loc 2 143 3 discriminator 3
.LBE691:
.LBE690:
.LBB693:
.LBB666:
	.loc 2 143 10 is_stmt 0 discriminator 3
	vaddpd	%ymm13, %ymm4, %ymm4
.LBE666:
.LBE693:
.LBB694:
.LBB692:
	vaddpd	%ymm2, %ymm1, %ymm1
.LVL67:
.LBE692:
.LBE694:
	.loc 1 224 3 is_stmt 1 discriminator 3
.LBB695:
.LBB696:
	.loc 2 1457 3 discriminator 3
.LBE696:
.LBE695:
	.loc 1 224 3 discriminator 3
.LBB697:
.LBB698:
	.loc 2 520 3 discriminator 3
.LBE698:
.LBE697:
	.loc 1 224 3 discriminator 3
.LBB699:
.LBB688:
	.loc 2 899 3 discriminator 3
.LBE688:
.LBE699:
	.loc 1 224 3 discriminator 3
.LBB700:
.LBB701:
	.file 4 "/home/mrahman/spack/opt/spack/linux-centos7-haswell/gcc-4.8.5/gcc-12.1.0-rfwstyfbaftyze73vaufakvxclc3eqpm/lib/gcc/x86_64-pc-linux-gnu/12.1.0/include/emmintrin.h"
	.loc 4 166 3 discriminator 3
	.loc 4 166 19 is_stmt 0 discriminator 3
	vmovapd	%xmm1, 32(%r11,%rax)
.LVL68:
.LBE701:
.LBE700:
	.loc 1 224 3 is_stmt 1 discriminator 3
.LBB702:
.LBB703:
	.loc 2 899 3 discriminator 3
.LBE703:
.LBE702:
.LBB705:
.LBB706:
	.loc 4 166 19 is_stmt 0 discriminator 3
	vextractf128	$0x1, %ymm1, 32(%rdi,%rax)
.LVL69:
.LBE706:
.LBE705:
.LBB708:
.LBB704:
	.loc 2 899 21 discriminator 3
	vmovupd	%ymm4, (%rdi,%rax)
.LVL70:
.LBE704:
.LBE708:
	.loc 1 224 3 is_stmt 1 discriminator 3
.LBB709:
.LBB707:
	.loc 4 166 3 discriminator 3
.LBE707:
.LBE709:
.LBE710:
	.loc 1 224 3 discriminator 3
	.loc 1 222 17 discriminator 3
	.loc 1 222 11 discriminator 3
	addq	$48, %rax
.LVL71:
	cmpq	%rsi, %rax
	jne	.L6
	.loc 1 229 3 is_stmt 0
	movq	%rcx, -320(%rbp)
.LVL72:
	xorl	%esi, %esi
	leaq	-224(%rbp), %rdi
.LVL73:
	movq	%r8, -304(%rbp)
	movq	%r9, -288(%rbp)
	movq	%r10, -272(%rbp)
	movq	%r11, -256(%rbp)
	.loc 1 229 3 is_stmt 1
	vzeroupper
.LVL74:
	call	gettimeofday
.LVL75:
	.loc 1 231 5
	.loc 1 231 9 is_stmt 0
	call	omp_get_wtime
.LVL76:
	vmovsd	%xmm0, -240(%rbp)
.LVL77:
	.loc 1 233 3 is_stmt 1
	.loc 1 233 6 is_stmt 0
	call	clock
.LVL78:
	movq	-368(%rbp), %rdx
	.loc 1 235 11
	movq	-320(%rbp), %rcx
	movabsq	$4800000000, %rsi
	movq	-304(%rbp), %r8
	movq	-288(%rbp), %r9
	.loc 1 233 6
	movq	%rax, %rbx
.LVL79:
	.loc 1 235 1 is_stmt 1
	.loc 1 235 11
	.loc 1 233 6 is_stmt 0
	xorl	%eax, %eax
.LVL80:
	.loc 1 235 11
	movq	-272(%rbp), %r10
	movq	-256(%rbp), %r11
	movq	-344(%rbp), %rdi
.LVL81:
	.p2align 4,,10
	.p2align 3
.L7:
	.loc 1 237 3 is_stmt 1 discriminator 3
#APP
# 237 "avx_complex_vec_align_load.c" 1
	# LLVM-MCA-BEGIN double_MVM_macro
# 0 "" 2
	.loc 1 238 7 discriminator 3
#NO_APP
.LBB711:
	.loc 1 238 7 discriminator 3
	.loc 1 238 7 discriminator 3
	.loc 1 238 7 discriminator 3
.LVL82:
.LBB712:
.LBB713:
	.loc 2 869 3 discriminator 3
.LBE713:
.LBE712:
	.loc 1 238 7 discriminator 3
.LBB714:
.LBB715:
	.loc 2 339 3 discriminator 3
.LBE715:
.LBE714:
.LBB717:
.LBB718:
	.loc 2 869 10 is_stmt 0 discriminator 3
	vmovapd	(%r9,%rax), %ymm1
.LBE718:
.LBE717:
.LBB720:
.LBB721:
	.loc 2 339 20 discriminator 3
	vpermilpd	$15, (%rdx), %ymm0
.LBE721:
.LBE720:
.LBB723:
.LBB724:
	vpermilpd	$15, 48(%rdx), %ymm4
.LBE724:
.LBE723:
.LBB726:
.LBB716:
	vpermilpd	$0, (%rdx), %ymm14
.LVL83:
.LBE716:
.LBE726:
	.loc 1 238 7 is_stmt 1 discriminator 3
.LBB727:
.LBB722:
	.loc 2 339 3 discriminator 3
.LBE722:
.LBE727:
	.loc 1 238 7 discriminator 3
.LBB728:
.LBB729:
	.loc 2 893 3 discriminator 3
.LBE729:
.LBE728:
	.loc 1 238 7 discriminator 3
.LBB730:
.LBB731:
	.loc 2 339 3 discriminator 3
.LBE731:
.LBE730:
.LBB733:
.LBB734:
	.loc 2 339 20 is_stmt 0 discriminator 3
	vpermilpd	$5, %ymm1, %ymm10
.LBE734:
.LBE733:
.LBB736:
.LBB732:
	vpermilpd	$0, 48(%rdx), %ymm13
.LVL84:
.LBE732:
.LBE736:
	.loc 1 238 7 is_stmt 1 discriminator 3
.LBB737:
.LBB725:
	.loc 2 339 3 discriminator 3
.LBE725:
.LBE737:
	.loc 1 238 7 discriminator 3
.LBB738:
.LBB739:
	.loc 2 869 3 discriminator 3
.LBE739:
.LBE738:
	.loc 1 238 7 discriminator 3
.LBB740:
.LBB741:
	.loc 2 339 3 discriminator 3
.LBE741:
.LBE740:
.LBB743:
.LBB744:
	.loc 2 339 20 is_stmt 0 discriminator 3
	vpermilpd	$15, 96(%rdx), %ymm6
.LBE744:
.LBE743:
.LBB746:
.LBB747:
	.loc 2 314 10 discriminator 3
	vmulpd	%ymm10, %ymm0, %ymm3
.LBE747:
.LBE746:
.LBB749:
.LBB750:
	.loc 2 690 20 discriminator 3
	vmovupd	16(%rdx), %ymm5
.LBE750:
.LBE749:
.LBB752:
.LBB753:
	.loc 2 339 20 discriminator 3
	vpermilpd	$5, (%r10,%rax), %ymm11
.LBE753:
.LBE752:
.LBB755:
.LBB756:
	.loc 2 314 10 discriminator 3
	vmulpd	%ymm10, %ymm4, %ymm2
.LBE756:
.LBE755:
.LBB758:
.LBB742:
	.loc 2 339 20 discriminator 3
	vpermilpd	$0, 96(%rdx), %ymm9
.LVL85:
.LBE742:
.LBE758:
	.loc 1 238 7 is_stmt 1 discriminator 3
.LBB759:
.LBB745:
	.loc 2 339 3 discriminator 3
.LBE745:
.LBE759:
	.loc 1 238 7 discriminator 3
.LBB760:
.LBB719:
	.loc 2 869 3 discriminator 3
.LBE719:
.LBE760:
	.loc 1 238 7 discriminator 3
.LBB761:
.LBB735:
	.loc 2 339 3 discriminator 3
.LBE735:
.LBE761:
	.loc 1 238 7 discriminator 3
.LBB762:
.LBB763:
	.loc 2 869 3 discriminator 3
.LBE763:
.LBE762:
	.loc 1 238 7 discriminator 3
.LBB764:
.LBB754:
	.loc 2 339 3 discriminator 3
.LBE754:
.LBE764:
	.loc 1 238 7 discriminator 3
.LBB765:
.LBB748:
	.loc 2 314 3 discriminator 3
.LBE748:
.LBE765:
	.loc 1 238 7 discriminator 3
.LBB766:
.LBB767:
	.loc 3 241 3 discriminator 3
.LBE767:
.LBE766:
.LBB769:
.LBB770:
	.loc 2 314 10 is_stmt 0 discriminator 3
	vmulpd	%ymm10, %ymm6, %ymm10
.LVL86:
.LBE770:
.LBE769:
.LBB772:
.LBB773:
	vmulpd	%ymm11, %ymm6, %ymm6
.LVL87:
.LBE773:
.LBE772:
.LBB775:
.LBB776:
	vmulpd	%ymm11, %ymm4, %ymm4
.LVL88:
.LBE776:
.LBE775:
.LBB778:
.LBB779:
	vmulpd	%ymm11, %ymm0, %ymm0
.LVL89:
.LBE779:
.LBE778:
.LBB781:
.LBB768:
	.loc 3 241 19 discriminator 3
	vfmaddsub231pd	%ymm1, %ymm14, %ymm3
.LVL90:
.LBE768:
.LBE781:
	.loc 1 238 7 is_stmt 1 discriminator 3
.LBB782:
.LBB757:
	.loc 2 314 3 discriminator 3
.LBE757:
.LBE782:
	.loc 1 238 7 discriminator 3
.LBB783:
.LBB784:
	.loc 3 241 3 discriminator 3
	.loc 3 241 19 is_stmt 0 discriminator 3
	vfmaddsub231pd	%ymm1, %ymm13, %ymm2
.LVL91:
.LBE784:
.LBE783:
	.loc 1 238 7 is_stmt 1 discriminator 3
.LBB785:
.LBB786:
	.loc 2 690 3 discriminator 3
.LBE786:
.LBE785:
.LBB788:
.LBB789:
	.loc 3 241 19 is_stmt 0 discriminator 3
	vfmaddsub231pd	(%r10,%rax), %ymm14, %ymm0
.LBE789:
.LBE788:
.LBB791:
.LBB792:
	.loc 2 893 10 discriminator 3
	vmovupd	16(%r10,%rax), %ymm14
.LVL92:
.LBE792:
.LBE791:
.LBB794:
.LBB795:
	.loc 3 241 19 discriminator 3
	vfmaddsub132pd	%ymm9, %ymm10, %ymm1
.LVL93:
.LBE795:
.LBE794:
.LBB797:
.LBB798:
	vfmaddsub132pd	(%r10,%rax), %ymm6, %ymm9
.LVL94:
.LBE798:
.LBE797:
.LBB800:
.LBB801:
	vfmaddsub132pd	(%r10,%rax), %ymm4, %ymm13
.LVL95:
.LBE801:
.LBE800:
.LBB803:
.LBB787:
	.loc 2 690 20 discriminator 3
	vperm2f128	$2, %ymm3, %ymm2, %ymm7
.LVL96:
.LBE787:
.LBE803:
	.loc 1 238 7 is_stmt 1 discriminator 3
.LBB804:
.LBB805:
	.loc 2 690 3 discriminator 3
	.loc 2 690 20 is_stmt 0 discriminator 3
	vperm2f128	$1, %ymm3, %ymm3, %ymm3
.LVL97:
.LBE805:
.LBE804:
	.loc 1 238 7 is_stmt 1 discriminator 3
.LBB806:
.LBB807:
	.loc 2 196 3 discriminator 3
	.loc 2 196 20 is_stmt 0 discriminator 3
	vblendpd	$12, %ymm2, %ymm3, %ymm3
.LVL98:
.LBE807:
.LBE806:
	.loc 1 238 7 is_stmt 1 discriminator 3
.LBB808:
.LBB809:
	.loc 2 143 3 discriminator 3
.LBE809:
.LBE808:
	.loc 1 238 7 discriminator 3
.LBB811:
.LBB812:
	.loc 2 893 3 discriminator 3
.LBE812:
.LBE811:
	.loc 1 238 7 discriminator 3
.LBB813:
.LBB751:
	.loc 2 690 3 discriminator 3
	.loc 2 690 20 is_stmt 0 discriminator 3
	vperm2f128	$1, %ymm5, %ymm5, %ymm2
.LVL99:
.LBE751:
.LBE813:
	.loc 1 238 7 is_stmt 1 discriminator 3
.LBB814:
.LBB815:
	.loc 2 869 3 discriminator 3
.LBE815:
.LBE814:
	.loc 1 238 7 discriminator 3
.LBB816:
.LBB817:
	.loc 2 196 3 discriminator 3
.LBE817:
.LBE816:
.LBB819:
.LBB820:
	.loc 2 893 10 is_stmt 0 discriminator 3
	vmovupd	16(%r9,%rax), %ymm5
.LBE820:
.LBE819:
.LBB822:
.LBB823:
	.loc 2 690 20 discriminator 3
	vperm2f128	$2, %ymm1, %ymm9, %ymm6
.LBE823:
.LBE822:
.LBB825:
.LBB826:
	vperm2f128	$1, %ymm1, %ymm1, %ymm1
.LBE826:
.LBE825:
.LBB828:
.LBB818:
	.loc 2 196 20 discriminator 3
	vblendpd	$12, 64(%rdx), %ymm2, %ymm2
.LVL100:
.LBE818:
.LBE828:
	.loc 1 238 7 is_stmt 1 discriminator 3
.LBB829:
.LBB821:
	.loc 2 893 3 discriminator 3
.LBE821:
.LBE829:
	.loc 1 238 7 discriminator 3
.LBB830:
.LBB831:
	.loc 2 690 3 discriminator 3
.LBE831:
.LBE830:
.LBB833:
.LBB834:
	.loc 2 690 20 is_stmt 0 discriminator 3
	vperm2f128	$2, %ymm0, %ymm13, %ymm4
.LBE834:
.LBE833:
.LBB836:
.LBB832:
	vperm2f128	$1, %ymm5, %ymm5, %ymm8
.LVL101:
.LBE832:
.LBE836:
	.loc 1 238 7 is_stmt 1 discriminator 3
.LBB837:
.LBB838:
	.loc 2 196 3 discriminator 3
.LBE838:
.LBE837:
.LBB840:
.LBB841:
	.loc 2 339 20 is_stmt 0 discriminator 3
	vpermilpd	$0, %ymm2, %ymm12
.LBE841:
.LBE840:
.LBB843:
.LBB844:
	vpermilpd	$15, %ymm2, %ymm2
.LVL102:
.LBE844:
.LBE843:
.LBB846:
.LBB839:
	.loc 2 196 20 discriminator 3
	vblendpd	$12, %ymm5, %ymm8, %ymm5
.LVL103:
.LBE839:
.LBE846:
	.loc 1 238 7 is_stmt 1 discriminator 3
.LBB847:
.LBB842:
	.loc 2 339 3 discriminator 3
.LBE842:
.LBE847:
	.loc 1 238 7 discriminator 3
.LBB848:
.LBB845:
	.loc 2 339 3 discriminator 3
.LBE845:
.LBE848:
	.loc 1 238 7 discriminator 3
.LBB849:
.LBB850:
	.loc 2 339 3 discriminator 3
.LBE850:
.LBE849:
	.loc 1 238 7 discriminator 3
.LBB852:
.LBB853:
	.loc 2 314 3 discriminator 3
.LBE853:
.LBE852:
	.loc 1 238 7 discriminator 3
.LBB855:
.LBB856:
	.loc 3 241 3 discriminator 3
.LBE856:
.LBE855:
.LBB858:
.LBB859:
	.loc 2 196 20 is_stmt 0 discriminator 3
	vblendpd	$12, %ymm9, %ymm1, %ymm1
.LBE859:
.LBE858:
.LBB861:
.LBB862:
	.loc 2 690 20 discriminator 3
	vperm2f128	$1, %ymm0, %ymm0, %ymm0
.LBE862:
.LBE861:
.LBB864:
.LBB865:
	.loc 2 893 10 discriminator 3
	vmovupd	112(%rdx), %ymm9
.LBE865:
.LBE864:
.LBB867:
.LBB851:
	.loc 2 339 20 discriminator 3
	vpermilpd	$5, %ymm5, %ymm15
.LBE851:
.LBE867:
.LBB868:
.LBB869:
	.loc 2 196 20 discriminator 3
	vblendpd	$12, %ymm13, %ymm0, %ymm0
.LBE869:
.LBE868:
.LBB871:
.LBB872:
	vblendpd	$12, %ymm14, %ymm8, %ymm8
.LVL104:
.LBE872:
.LBE871:
.LBB874:
.LBB854:
	.loc 2 314 10 discriminator 3
	vmulpd	%ymm2, %ymm15, %ymm15
.LBE854:
.LBE874:
.LBB875:
.LBB876:
	.loc 2 339 20 discriminator 3
	vpermilpd	$5, %ymm8, %ymm10
.LBE876:
.LBE875:
.LBB878:
.LBB879:
	.loc 2 143 10 discriminator 3
	vaddpd	%ymm1, %ymm6, %ymm1
.LBE879:
.LBE878:
.LBB881:
.LBB810:
	vaddpd	%ymm3, %ymm7, %ymm7
.LVL105:
.LBE810:
.LBE881:
.LBB882:
.LBB883:
	vaddpd	%ymm0, %ymm4, %ymm4
.LBE883:
.LBE882:
.LBB885:
.LBB857:
	.loc 3 241 19 discriminator 3
	vfmaddsub132pd	%ymm12, %ymm15, %ymm5
.LVL106:
.LBE857:
.LBE885:
	.loc 1 238 7 is_stmt 1 discriminator 3
.LBB886:
.LBB887:
	.loc 2 143 3 discriminator 3
.LBE887:
.LBE886:
	.loc 1 238 7 discriminator 3
.LBB889:
.LBB780:
	.loc 2 314 3 discriminator 3
.LBE780:
.LBE889:
	.loc 1 238 7 discriminator 3
.LBB890:
.LBB790:
	.loc 3 241 3 discriminator 3
.LBE790:
.LBE890:
	.loc 1 238 7 discriminator 3
.LBB891:
.LBB777:
	.loc 2 314 3 discriminator 3
.LBE777:
.LBE891:
	.loc 1 238 7 discriminator 3
.LBB892:
.LBB802:
	.loc 3 241 3 discriminator 3
.LBE802:
.LBE892:
	.loc 1 238 7 discriminator 3
.LBB893:
.LBB835:
	.loc 2 690 3 discriminator 3
.LBE835:
.LBE893:
	.loc 1 238 7 discriminator 3
.LBB894:
.LBB863:
	.loc 2 690 3 discriminator 3
.LBE863:
.LBE894:
	.loc 1 238 7 discriminator 3
.LBB895:
.LBB870:
	.loc 2 196 3 discriminator 3
.LBE870:
.LBE895:
	.loc 1 238 7 discriminator 3
.LBB896:
.LBB884:
	.loc 2 143 3 discriminator 3
.LBE884:
.LBE896:
	.loc 1 238 7 discriminator 3
.LBB897:
.LBB793:
	.loc 2 893 3 discriminator 3
.LBE793:
.LBE897:
	.loc 1 238 7 discriminator 3
.LBB898:
.LBB899:
	.loc 2 690 3 discriminator 3
	.loc 2 690 20 is_stmt 0 discriminator 3
	vperm2f128	$1, %ymm14, %ymm14, %ymm15
.LVL107:
.LBE899:
.LBE898:
	.loc 1 238 7 is_stmt 1 discriminator 3
.LBB900:
.LBB901:
	.loc 2 196 3 discriminator 3
	.loc 2 196 20 is_stmt 0 discriminator 3
	vblendpd	$12, %ymm14, %ymm15, %ymm15
.LVL108:
.LBE901:
.LBE900:
	.loc 1 238 7 is_stmt 1 discriminator 3
.LBB902:
.LBB903:
	.loc 2 339 3 discriminator 3
.LBE903:
.LBE902:
	.loc 1 238 7 discriminator 3
.LBB905:
.LBB906:
	.loc 2 314 3 discriminator 3
.LBE906:
.LBE905:
	.loc 1 238 7 discriminator 3
.LBB908:
.LBB909:
	.loc 3 241 3 discriminator 3
.LBE909:
.LBE908:
.LBB911:
.LBB904:
	.loc 2 339 20 is_stmt 0 discriminator 3
	vpermilpd	$5, %ymm15, %ymm13
.LVL109:
.LBE904:
.LBE911:
.LBB912:
.LBB907:
	.loc 2 314 10 discriminator 3
	vmulpd	%ymm2, %ymm13, %ymm13
.LBE907:
.LBE912:
.LBB913:
.LBB914:
	.loc 2 690 20 discriminator 3
	vperm2f128	$1, %ymm9, %ymm9, %ymm2
.LBE914:
.LBE913:
.LBB916:
.LBB917:
	.loc 2 196 20 discriminator 3
	vblendpd	$12, %ymm9, %ymm2, %ymm2
.LBE917:
.LBE916:
.LBB919:
.LBB920:
	.loc 2 339 20 discriminator 3
	vpermilpd	$0, %ymm2, %ymm9
.LBE920:
.LBE919:
.LBB922:
.LBB923:
	vpermilpd	$15, %ymm2, %ymm2
.LBE923:
.LBE922:
.LBB925:
.LBB888:
	.loc 2 143 10 discriminator 3
	vaddpd	%ymm5, %ymm7, %ymm7
.LBE888:
.LBE925:
.LBB926:
.LBB927:
	.loc 2 314 10 discriminator 3
	vmulpd	%ymm10, %ymm2, %ymm2
.LBE927:
.LBE926:
.LBB929:
.LBB910:
	.loc 3 241 19 discriminator 3
	vfmaddsub231pd	%ymm15, %ymm12, %ymm13
.LVL110:
.LBE910:
.LBE929:
	.loc 1 238 7 is_stmt 1 discriminator 3
.LBB930:
.LBB931:
	.loc 2 143 3 discriminator 3
.LBE931:
.LBE930:
	.loc 1 238 7 discriminator 3
.LBB933:
.LBB771:
	.loc 2 314 3 discriminator 3
.LBE771:
.LBE933:
	.loc 1 238 7 discriminator 3
.LBB934:
.LBB796:
	.loc 3 241 3 discriminator 3
.LBE796:
.LBE934:
	.loc 1 238 7 discriminator 3
.LBB935:
.LBB774:
	.loc 2 314 3 discriminator 3
.LBE774:
.LBE935:
	.loc 1 238 7 discriminator 3
.LBB936:
.LBB799:
	.loc 3 241 3 discriminator 3
.LBE799:
.LBE936:
	.loc 1 238 7 discriminator 3
.LBB937:
.LBB824:
	.loc 2 690 3 discriminator 3
.LBE824:
.LBE937:
	.loc 1 238 7 discriminator 3
.LBB938:
.LBB827:
	.loc 2 690 3 discriminator 3
.LBE827:
.LBE938:
	.loc 1 238 7 discriminator 3
.LBB939:
.LBB860:
	.loc 2 196 3 discriminator 3
.LBE860:
.LBE939:
	.loc 1 238 7 discriminator 3
.LBB940:
.LBB880:
	.loc 2 143 3 discriminator 3
.LBE880:
.LBE940:
	.loc 1 238 7 discriminator 3
.LBB941:
.LBB866:
	.loc 2 893 3 discriminator 3
.LBE866:
.LBE941:
	.loc 1 238 7 discriminator 3
.LBB942:
.LBB915:
	.loc 2 690 3 discriminator 3
.LBE915:
.LBE942:
	.loc 1 238 7 discriminator 3
.LBB943:
.LBB918:
	.loc 2 196 3 discriminator 3
.LBE918:
.LBE943:
	.loc 1 238 7 discriminator 3
.LBB944:
.LBB921:
	.loc 2 339 3 discriminator 3
.LBE921:
.LBE944:
	.loc 1 238 7 discriminator 3
.LBB945:
.LBB924:
	.loc 2 339 3 discriminator 3
.LBE924:
.LBE945:
	.loc 1 238 7 discriminator 3
.LBB946:
.LBB873:
	.loc 2 196 3 discriminator 3
.LBE873:
.LBE946:
	.loc 1 238 7 discriminator 3
.LBB947:
.LBB877:
	.loc 2 339 3 discriminator 3
.LBE877:
.LBE947:
	.loc 1 238 7 discriminator 3
.LBB948:
.LBB928:
	.loc 2 314 3 discriminator 3
.LBE928:
.LBE948:
	.loc 1 238 7 discriminator 3
.LBB949:
.LBB950:
	.loc 3 241 3 discriminator 3
.LBE950:
.LBE949:
.LBB952:
.LBB953:
	.loc 2 899 21 is_stmt 0 discriminator 3
	vmovupd	%ymm7, (%r11,%rax)
.LVL111:
.LBE953:
.LBE952:
.LBB955:
.LBB951:
	.loc 3 241 19 discriminator 3
	vfmaddsub231pd	%ymm8, %ymm9, %ymm2
.LVL112:
.LBE951:
.LBE955:
	.loc 1 238 7 is_stmt 1 discriminator 3
.LBB956:
.LBB957:
	.loc 2 143 3 discriminator 3
.LBE957:
.LBE956:
.LBB959:
.LBB932:
	.loc 2 143 10 is_stmt 0 discriminator 3
	vaddpd	%ymm13, %ymm4, %ymm4
.LBE932:
.LBE959:
.LBB960:
.LBB958:
	vaddpd	%ymm2, %ymm1, %ymm1
.LVL113:
.LBE958:
.LBE960:
	.loc 1 238 7 is_stmt 1 discriminator 3
.LBB961:
.LBB962:
	.loc 2 1457 3 discriminator 3
.LBE962:
.LBE961:
	.loc 1 238 7 discriminator 3
.LBB963:
.LBB964:
	.loc 2 520 3 discriminator 3
.LBE964:
.LBE963:
	.loc 1 238 7 discriminator 3
.LBB965:
.LBB954:
	.loc 2 899 3 discriminator 3
.LBE954:
.LBE965:
	.loc 1 238 7 discriminator 3
.LBB966:
.LBB967:
	.loc 4 166 3 discriminator 3
	.loc 4 166 19 is_stmt 0 discriminator 3
	vmovapd	%xmm1, 32(%r11,%rax)
.LVL114:
.LBE967:
.LBE966:
	.loc 1 238 7 is_stmt 1 discriminator 3
.LBB968:
.LBB969:
	.loc 2 899 3 discriminator 3
.LBE969:
.LBE968:
.LBB971:
.LBB972:
	.loc 4 166 19 is_stmt 0 discriminator 3
	vextractf128	$0x1, %ymm1, 32(%rdi,%rax)
.LVL115:
.LBE972:
.LBE971:
.LBB974:
.LBB970:
	.loc 2 899 21 discriminator 3
	vmovupd	%ymm4, (%rdi,%rax)
.LVL116:
.LBE970:
.LBE974:
	.loc 1 238 7 is_stmt 1 discriminator 3
.LBB975:
.LBB973:
	.loc 4 166 3 discriminator 3
.LBE973:
.LBE975:
.LBE711:
	.loc 1 238 7 discriminator 3
	.loc 1 240 3 discriminator 3
#APP
# 240 "avx_complex_vec_align_load.c" 1
	# LLVM-MCA-END
# 0 "" 2
	.loc 1 235 17 discriminator 3
.LVL117:
	.loc 1 235 11 discriminator 3
#NO_APP
	addq	$48, %rax
.LVL118:
	addq	$144, %rdx
	cmpq	%rsi, %rax
	jne	.L7
	movq	%rcx, -320(%rbp)
	movq	%r8, -304(%rbp)
	movq	%r9, -288(%rbp)
	movq	%r10, -272(%rbp)
	movq	%r11, -256(%rbp)
	.loc 1 243 1
	.loc 1 243 4 is_stmt 0
	vzeroupper
.LVL119:
	call	clock
.LVL120:
	movq	%rax, %r12
.LVL121:
	.loc 1 245 5 is_stmt 1
	.loc 1 245 9 is_stmt 0
	call	omp_get_wtime
.LVL122:
	.loc 1 247 3
	xorl	%esi, %esi
	leaq	-208(%rbp), %rdi
	.loc 1 250 80
	subq	%rbx, %r12
.LVL123:
	.loc 1 245 9
	vmovq	%xmm0, %r13
.LVL124:
	.loc 1 247 3 is_stmt 1
	call	gettimeofday
.LVL125:
	.loc 1 248 3
	leaq	-224(%rbp), %rdx
	leaq	-208(%rbp), %rsi
	leaq	-192(%rbp), %rdi
	call	timeval_subtract
.LVL126:
	.loc 1 250 5
	vxorpd	%xmm7, %xmm7, %xmm7
	movl	$.LC2, %edx
	xorl	%esi, %esi
	movl	$.LC3, %edi
	vcvtsi2sdq	%r12, %xmm7, %xmm0
	movl	$1, %eax
	vdivsd	.LC1(%rip), %xmm0, %xmm0
	call	lprintf
.LVL127:
	.loc 1 252 5
	vmovq	%r13, %xmm6
	movl	$.LC4, %edx
	xorl	%esi, %esi
	vsubsd	-240(%rbp), %xmm6, %xmm0
	movl	$.LC3, %edi
	movl	$1, %eax
	call	lprintf
.LVL128:
	.loc 1 254 5
	.loc 1 254 111 is_stmt 0
	vxorpd	%xmm7, %xmm7, %xmm7
	.loc 1 254 5
	movl	$.LC6, %edx
	xorl	%esi, %esi
	.loc 1 254 111
	vcvtsi2sdq	-184(%rbp), %xmm7, %xmm0
	.loc 1 254 5
	movl	$.LC3, %edi
	movl	$1, %eax
	vcvtsi2sdq	-192(%rbp), %xmm7, %xmm1
	vfmadd132sd	.LC5(%rip), %xmm1, %xmm0
	call	lprintf
.LVL129:
	.loc 1 264 1 is_stmt 1
	.loc 1 264 11
	movq	-368(%rbp), %rbx
.LVL130:
	.loc 1 254 5 is_stmt 0
	movq	-272(%rbp), %r10
	movabsq	$14400000000, %rax
	movq	-288(%rbp), %r9
	movq	%r14, %rsi
	movq	-360(%rbp), %r15
	leaq	(%rbx,%rax), %rdx
	movq	-320(%rbp), %r14
	movq	-352(%rbp), %rax
	movq	%r10, %r13
.LVL131:
	movq	-304(%rbp), %r8
	movq	-256(%rbp), %r11
	movq	%r9, %r12
	movq	%rsi, %rcx
.LVL132:
	.p2align 4,,10
	.p2align 3
.L28:
	.loc 1 266 3 is_stmt 1
	vmovupd	(%rbx), %xmm4
	vmovupd	(%r12), %xmm2
	vpermilpd	$1, %xmm4, %xmm0
	vpermilpd	$3, %xmm2, %xmm3
	vpermilpd	$0, %xmm2, %xmm1
	vmovhpd	%xmm4, -416(%rbp)
	vmulpd	%xmm3, %xmm0, %xmm0
	vpermilpd	$0, %xmm4, %xmm6
	vmovlpd	%xmm4, -400(%rbp)
	vpermilpd	$3, %xmm4, %xmm13
	vmovapd	%xmm6, -256(%rbp)
	vfmaddsub132pd	%xmm1, %xmm0, %xmm4
	vunpckhpd	%xmm4, %xmm4, %xmm0
	vucomisd	%xmm0, %xmm4
	jp	.L69
.L8:
	.loc 1 266 3
	vmovupd	16(%rbx), %xmm0
	vmovupd	16(%r12), %xmm2
	vpermilpd	$3, %xmm0, %xmm12
	vpermilpd	$1, %xmm2, %xmm1
	vpermilpd	$0, %xmm0, %xmm11
	vmovlpd	%xmm0, -432(%rbp)
	vmulpd	%xmm12, %xmm1, %xmm1
	vmovhpd	%xmm0, -448(%rbp)
	vfmaddsub231pd	%xmm2, %xmm11, %xmm1
	vunpckhpd	%xmm1, %xmm1, %xmm0
	vucomisd	%xmm0, %xmm1
	jp	.L70
.L9:
	vmovupd	32(%r12), %xmm5
	vmovupd	32(%rbx), %xmm0
	vaddpd	%xmm1, %xmm4, %xmm4
	.loc 1 266 3
	vpermilpd	$3, %xmm0, %xmm7
	vpermilpd	$1, %xmm5, %xmm1
	vpermilpd	$0, %xmm0, %xmm10
	vmovlpd	%xmm0, -464(%rbp)
	vmulpd	%xmm7, %xmm1, %xmm1
	vmovhpd	%xmm0, -480(%rbp)
	vpermilpd	$0, %xmm5, %xmm15
	vmovhpd	%xmm5, -336(%rbp)
	vmovlpd	%xmm5, -320(%rbp)
	vfmaddsub231pd	%xmm5, %xmm10, %xmm1
	vpermilpd	$3, %xmm5, %xmm5
	vunpckhpd	%xmm1, %xmm1, %xmm0
	vucomisd	%xmm0, %xmm1
	jp	.L71
.L10:
	vaddpd	%xmm1, %xmm4, %xmm4
	vmovupd	%xmm4, (%rax)
	.loc 1 266 3
	vmovupd	(%r12), %xmm8
	vmovupd	48(%rbx), %xmm0
	vpermilpd	$1, %xmm8, %xmm4
	vpermilpd	$3, %xmm0, %xmm6
	vpermilpd	$0, %xmm0, %xmm9
	vmovlpd	%xmm0, -496(%rbp)
	vmulpd	%xmm6, %xmm4, %xmm4
	vmovhpd	%xmm0, -528(%rbp)
	vpermilpd	$0, %xmm8, %xmm14
	vmovhpd	%xmm8, -512(%rbp)
	vmovlpd	%xmm8, -384(%rbp)
	vfmaddsub231pd	%xmm8, %xmm9, %xmm4
	vpermilpd	$3, %xmm8, %xmm8
	vunpckhpd	%xmm4, %xmm4, %xmm0
	vucomisd	%xmm0, %xmm4
	jp	.L72
.L11:
	vmovupd	%xmm4, 16(%rax)
	.loc 1 266 3
	vmovupd	64(%rbx), %xmm0
	vpermilpd	$3, %xmm0, %xmm2
	vpermilpd	$0, %xmm0, %xmm3
	vmovlpd	%xmm0, -544(%rbp)
	vmovapd	%xmm2, -240(%rbp)
	vmovupd	16(%r12), %xmm2
	vmovhpd	%xmm0, -560(%rbp)
	vpermilpd	$1, %xmm2, %xmm1
	vmovapd	%xmm3, -272(%rbp)
	vmulpd	-240(%rbp), %xmm1, %xmm1
	vfmaddsub231pd	%xmm3, %xmm2, %xmm1
	vunpckhpd	%xmm1, %xmm1, %xmm0
	vucomisd	%xmm0, %xmm1
	jp	.L73
.L12:
	vmovupd	80(%rbx), %xmm0
	vaddpd	%xmm1, %xmm4, %xmm4
	.loc 1 266 3
	vpermilpd	$1, %xmm0, %xmm1
	vpermilpd	$0, %xmm0, %xmm3
	vmovhpd	%xmm0, -592(%rbp)
	vmulpd	%xmm5, %xmm1, %xmm1
	vmovlpd	%xmm0, -576(%rbp)
	vpermilpd	$3, %xmm0, %xmm5
	vmovapd	%xmm3, -288(%rbp)
	vmovapd	%xmm5, -304(%rbp)
	vfmaddsub231pd	%xmm0, %xmm15, %xmm1
	vunpckhpd	%xmm1, %xmm1, %xmm0
	vucomisd	%xmm0, %xmm1
	jp	.L74
.L13:
	vaddpd	%xmm1, %xmm4, %xmm4
	vmovupd	%xmm4, 16(%rax)
	.loc 1 266 3
	vmovupd	96(%rbx), %xmm0
	vpermilpd	$1, %xmm0, %xmm5
	vpermilpd	$0, %xmm0, %xmm3
	vmovhpd	%xmm0, -624(%rbp)
	vmulpd	%xmm8, %xmm5, %xmm5
	vmovlpd	%xmm0, -608(%rbp)
	vmovapd	%xmm3, -320(%rbp)
	vpermilpd	$3, %xmm0, %xmm3
	vmovapd	%xmm3, -336(%rbp)
	vfmaddsub231pd	%xmm0, %xmm14, %xmm5
	vunpckhpd	%xmm5, %xmm5, %xmm0
	vucomisd	%xmm0, %xmm5
	jp	.L75
.L14:
	.loc 1 266 3
	vmovupd	112(%rbx), %xmm0
	vmovupd	16(%r12), %xmm2
	vpermilpd	$3, %xmm0, %xmm15
	vpermilpd	$1, %xmm2, %xmm1
	vpermilpd	$0, %xmm0, %xmm4
	vmovlpd	%xmm0, -512(%rbp)
	vmulpd	%xmm15, %xmm1, %xmm1
	vmovhpd	%xmm0, -640(%rbp)
	vfmaddsub231pd	%xmm2, %xmm4, %xmm1
	vunpckhpd	%xmm1, %xmm1, %xmm0
	vucomisd	%xmm0, %xmm1
	jp	.L76
.L15:
	vaddpd	%xmm1, %xmm5, %xmm5
	vmovupd	%xmm5, 32(%rax)
	.loc 1 266 3
	vmovupd	128(%rbx), %xmm0
	vmovupd	32(%r12), %xmm2
	vpermilpd	$3, %xmm0, %xmm14
	vpermilpd	$1, %xmm2, %xmm1
	vpermilpd	$0, %xmm0, %xmm8
	vmovlpd	%xmm0, -656(%rbp)
	vmulpd	%xmm14, %xmm1, %xmm1
	vmovhpd	%xmm0, -384(%rbp)
	vfmaddsub231pd	%xmm2, %xmm8, %xmm1
	vunpckhpd	%xmm1, %xmm1, %xmm0
	vucomisd	%xmm0, %xmm1
	jp	.L77
.L16:
	vaddpd	%xmm5, %xmm1, %xmm1
	vmovupd	%xmm1, 32(%rax)
	.loc 1 267 3
	vmovupd	0(%r13), %xmm2
	vpermilpd	$1, %xmm2, %xmm0
	vmulpd	%xmm13, %xmm0, %xmm13
	vfmaddsub231pd	-256(%rbp), %xmm2, %xmm13
	vunpckhpd	%xmm13, %xmm13, %xmm0
	vucomisd	%xmm0, %xmm13
	jp	.L78
.L17:
	.loc 1 267 3
	vmovupd	16(%r13), %xmm2
	vpermilpd	$1, %xmm2, %xmm5
	vmulpd	%xmm12, %xmm5, %xmm5
	vfmaddsub231pd	%xmm2, %xmm11, %xmm5
	vunpckhpd	%xmm5, %xmm5, %xmm0
	vucomisd	%xmm0, %xmm5
	jp	.L79
.L18:
	vmovupd	32(%r13), %xmm11
	vaddpd	%xmm5, %xmm13, %xmm5
	.loc 1 267 3
	vpermilpd	$1, %xmm11, %xmm12
	vmovhpd	%xmm11, -400(%rbp)
	vmulpd	%xmm12, %xmm7, %xmm7
	vmovlpd	%xmm11, -256(%rbp)
	vfmaddsub231pd	%xmm11, %xmm10, %xmm7
	vunpckhpd	%xmm7, %xmm7, %xmm0
	vucomisd	%xmm0, %xmm7
	jp	.L80
.L19:
	vaddpd	%xmm7, %xmm5, %xmm5
	vmovupd	%xmm5, (%r15)
	.loc 1 267 3
	vmovupd	0(%r13), %xmm7
	vpermilpd	$1, %xmm7, %xmm5
	vunpckhpd	%xmm7, %xmm7, %xmm13
	vmovsd	%xmm7, %xmm7, %xmm10
	vmulpd	%xmm5, %xmm6, %xmm6
	vfmaddsub231pd	%xmm7, %xmm9, %xmm6
	vunpckhpd	%xmm6, %xmm6, %xmm0
	vucomisd	%xmm0, %xmm6
	jp	.L81
.L20:
	vmovupd	%xmm6, 16(%r15)
	.loc 1 267 3
	vmovupd	16(%r13), %xmm2
	vpermilpd	$1, %xmm2, %xmm0
	vmulpd	-240(%rbp), %xmm0, %xmm0
	vfmaddsub231pd	-272(%rbp), %xmm2, %xmm0
	vunpckhpd	%xmm0, %xmm0, %xmm1
	vucomisd	%xmm1, %xmm0
	jp	.L82
.L21:
	vmulpd	-304(%rbp), %xmm12, %xmm12
	vmovapd	-288(%rbp), %xmm1
	vaddpd	%xmm0, %xmm6, %xmm6
	.loc 1 267 3
	vfmaddsub132pd	%xmm11, %xmm12, %xmm1
	vunpckhpd	%xmm1, %xmm1, %xmm0
	vucomisd	%xmm0, %xmm1
	jp	.L83
.L22:
	vmulpd	-336(%rbp), %xmm5, %xmm5
	vaddpd	%xmm1, %xmm6, %xmm0
	vfmaddsub231pd	-320(%rbp), %xmm7, %xmm5
	vmovupd	%xmm0, 16(%r15)
	.loc 1 267 3
	vunpckhpd	%xmm5, %xmm5, %xmm0
	vucomisd	%xmm0, %xmm5
	jp	.L84
.L23:
	.loc 1 267 3
	vmovupd	16(%r13), %xmm2
	vpermilpd	$1, %xmm2, %xmm0
	vmulpd	%xmm15, %xmm0, %xmm0
	vfmaddsub132pd	%xmm2, %xmm0, %xmm4
	vunpckhpd	%xmm4, %xmm4, %xmm0
	vucomisd	%xmm0, %xmm4
	jp	.L85
.L24:
	vaddpd	%xmm4, %xmm5, %xmm4
	vmovupd	%xmm4, 32(%r15)
	.loc 1 267 3
	vmovupd	32(%r13), %xmm2
	vpermilpd	$1, %xmm2, %xmm0
	vmulpd	%xmm14, %xmm0, %xmm0
	vfmaddsub132pd	%xmm2, %xmm0, %xmm8
	vunpckhpd	%xmm8, %xmm8, %xmm0
	vucomisd	%xmm0, %xmm8
	jp	.L86
	vaddpd	%xmm8, %xmm4, %xmm4
	.loc 1 264 11 is_stmt 0
	addq	$48, %r12
	addq	$48, %r15
	addq	$48, %r13
	addq	$144, %rbx
.LVL133:
	addq	$48, %rax
	.loc 1 267 3
	vmovupd	%xmm4, -16(%r15)
	.loc 1 264 17 is_stmt 1
.LVL134:
	.loc 1 264 11
	cmpq	%rdx, %rbx
	jne	.L28
.L64:
	movq	%rcx, %rax
	.loc 1 271 3 is_stmt 0
	xorl	%esi, %esi
	movq	%r14, %rcx
	movq	%rdx, -320(%rbp)
	leaq	-224(%rbp), %rdi
	movq	%r11, -304(%rbp)
	movq	%rax, %r14
	movq	%r10, -288(%rbp)
	movq	%r9, -272(%rbp)
	movq	%r8, -256(%rbp)
	movq	%rcx, -240(%rbp)
	.loc 1 271 3 is_stmt 1
	call	gettimeofday
.LVL135:
	.loc 1 273 5
	.loc 1 273 9 is_stmt 0
	call	omp_get_wtime
.LVL136:
	vmovsd	%xmm0, -688(%rbp)
.LVL137:
	.loc 1 275 3 is_stmt 1
	.loc 1 275 6 is_stmt 0
	call	clock
.LVL138:
	.loc 1 276 2 is_stmt 1
	.loc 1 276 12
	.loc 1 275 6 is_stmt 0
	movq	-352(%rbp), %r12
	movq	-360(%rbp), %rbx
	movq	-256(%rbp), %r15
	movq	-272(%rbp), %r9
	movq	-288(%rbp), %r10
	movq	-304(%rbp), %r11
	movq	-240(%rbp), %r13
	movq	-320(%rbp), %rdx
.LVL139:
	.p2align 4,,10
	.p2align 3
.L49:
	.loc 1 278 3 is_stmt 1 discriminator 3
#APP
# 278 "avx_complex_vec_align_load.c" 1
	# LLVM-MCA-BEGIN _suNf_theta_T_multiply
# 0 "" 2
	.loc 1 279 3 discriminator 3
#NO_APP
	vmovupd	(%r14), %xmm0
	vmovupd	0(%r13), %xmm2
	vpermilpd	$3, %xmm0, %xmm13
	vpermilpd	$1, %xmm2, %xmm4
	vpermilpd	$0, %xmm0, %xmm12
	vmovlpd	%xmm0, -384(%rbp)
	vmulpd	%xmm13, %xmm4, %xmm4
	vmovhpd	%xmm0, -400(%rbp)
	vfmaddsub231pd	%xmm2, %xmm12, %xmm4
	vunpckhpd	%xmm4, %xmm4, %xmm0
	vucomisd	%xmm0, %xmm4
	jp	.L87
.L29:
	.loc 1 279 3 discriminator 3
	vmovupd	16(%r14), %xmm0
	vmovupd	16(%r13), %xmm2
	vpermilpd	$0, %xmm0, %xmm10
	vpermilpd	$3, %xmm0, %xmm11
	vmovlpd	%xmm0, -416(%rbp)
	vmovhpd	%xmm0, -432(%rbp)
	vpermilpd	$1, %xmm2, %xmm0
	vmulpd	%xmm11, %xmm0, %xmm0
	vfmaddsub231pd	%xmm2, %xmm10, %xmm0
	vunpckhpd	%xmm0, %xmm0, %xmm1
	vucomisd	%xmm1, %xmm0
	jp	.L88
.L30:
	vmovupd	32(%r13), %xmm8
	vaddpd	%xmm0, %xmm4, %xmm4
	.loc 1 279 3 discriminator 3
	vmovupd	32(%r14), %xmm0
	vpermilpd	$1, %xmm8, %xmm1
	vpermilpd	$3, %xmm0, %xmm7
	vpermilpd	$0, %xmm0, %xmm9
	vmovlpd	%xmm0, -448(%rbp)
	vmulpd	%xmm7, %xmm1, %xmm1
	vmovhpd	%xmm0, -464(%rbp)
	vpermilpd	$0, %xmm8, %xmm15
	vmovhpd	%xmm8, -336(%rbp)
	vmovlpd	%xmm8, -320(%rbp)
	vfmaddsub231pd	%xmm8, %xmm9, %xmm1
	vpermilpd	$3, %xmm8, %xmm8
	vunpckhpd	%xmm1, %xmm1, %xmm0
	vucomisd	%xmm0, %xmm1
	jp	.L89
.L31:
	vaddpd	%xmm1, %xmm4, %xmm4
	vmovupd	%xmm4, (%r12)
	.loc 1 279 3 discriminator 3
	vmovupd	0(%r13), %xmm5
	vmovupd	48(%r14), %xmm0
	vpermilpd	$1, %xmm5, %xmm4
	vpermilpd	$3, %xmm0, %xmm6
	vpermilpd	$0, %xmm0, %xmm3
	vmovlpd	%xmm0, -480(%rbp)
	vmulpd	%xmm6, %xmm4, %xmm4
	vmovhpd	%xmm0, -528(%rbp)
	vpermilpd	$0, %xmm5, %xmm14
	vmovhpd	%xmm5, -512(%rbp)
	vmovlpd	%xmm5, -496(%rbp)
	vmovapd	%xmm3, -256(%rbp)
	vfmaddsub231pd	%xmm3, %xmm5, %xmm4
	vpermilpd	$3, %xmm5, %xmm5
	vunpckhpd	%xmm4, %xmm4, %xmm0
	vucomisd	%xmm0, %xmm4
	jp	.L90
.L32:
	vmovupd	%xmm4, 16(%r12)
	.loc 1 279 3 discriminator 3
	vmovupd	64(%r14), %xmm0
	vpermilpd	$3, %xmm0, %xmm2
	vpermilpd	$0, %xmm0, %xmm3
	vmovlpd	%xmm0, -544(%rbp)
	vmovapd	%xmm2, -240(%rbp)
	vmovupd	16(%r13), %xmm2
	vmovhpd	%xmm0, -560(%rbp)
	vpermilpd	$1, %xmm2, %xmm1
	vmovapd	%xmm3, -272(%rbp)
	vmulpd	-240(%rbp), %xmm1, %xmm1
	vfmaddsub231pd	%xmm3, %xmm2, %xmm1
	vunpckhpd	%xmm1, %xmm1, %xmm0
	vucomisd	%xmm0, %xmm1
	jp	.L91
.L33:
	vmovupd	80(%r14), %xmm0
	vaddpd	%xmm1, %xmm4, %xmm4
	.loc 1 279 3 discriminator 3
	vpermilpd	$1, %xmm0, %xmm1
	vpermilpd	$0, %xmm0, %xmm3
	vmovhpd	%xmm0, -592(%rbp)
	vmulpd	%xmm8, %xmm1, %xmm1
	vmovlpd	%xmm0, -576(%rbp)
	vmovapd	%xmm3, -288(%rbp)
	vpermilpd	$3, %xmm0, %xmm3
	vmovapd	%xmm3, -304(%rbp)
	vfmaddsub231pd	%xmm0, %xmm15, %xmm1
	vunpckhpd	%xmm1, %xmm1, %xmm0
	vucomisd	%xmm0, %xmm1
	jp	.L92
.L34:
	vaddpd	%xmm1, %xmm4, %xmm4
	vmovupd	%xmm4, 16(%r12)
	.loc 1 279 3 discriminator 3
	vmovupd	96(%r14), %xmm0
	vpermilpd	$1, %xmm0, %xmm4
	vmovhpd	%xmm0, -624(%rbp)
	vmulpd	%xmm5, %xmm4, %xmm4
	vpermilpd	$0, %xmm0, %xmm5
	vmovlpd	%xmm0, -608(%rbp)
	vmovapd	%xmm5, -320(%rbp)
	vpermilpd	$3, %xmm0, %xmm5
	vmovapd	%xmm5, -336(%rbp)
	vfmaddsub231pd	%xmm0, %xmm14, %xmm4
	vunpckhpd	%xmm4, %xmm4, %xmm0
	vucomisd	%xmm0, %xmm4
	jp	.L93
.L35:
	.loc 1 279 3 discriminator 3
	vmovupd	112(%r14), %xmm0
	vmovupd	16(%r13), %xmm2
	vpermilpd	$3, %xmm0, %xmm15
	vpermilpd	$1, %xmm2, %xmm1
	vpermilpd	$0, %xmm0, %xmm5
	vmovlpd	%xmm0, -496(%rbp)
	vmulpd	%xmm15, %xmm1, %xmm1
	vmovhpd	%xmm0, -512(%rbp)
	vfmaddsub231pd	%xmm2, %xmm5, %xmm1
	vunpckhpd	%xmm1, %xmm1, %xmm0
	vucomisd	%xmm0, %xmm1
	jp	.L94
.L36:
	vaddpd	%xmm1, %xmm4, %xmm4
	vmovupd	%xmm4, 32(%r12)
	.loc 1 279 3 discriminator 3
	vmovupd	32(%r13), %xmm2
	vmovupd	128(%r14), %xmm0
	vpermilpd	$1, %xmm2, %xmm1
	vpermilpd	$3, %xmm0, %xmm14
	vpermilpd	$0, %xmm0, %xmm8
	vmovlpd	%xmm0, -640(%rbp)
	vmulpd	%xmm14, %xmm1, %xmm1
	vmovhpd	%xmm0, -656(%rbp)
	vfmaddsub231pd	%xmm2, %xmm8, %xmm1
	vunpckhpd	%xmm1, %xmm1, %xmm0
	vucomisd	%xmm0, %xmm1
	jp	.L95
.L37:
	vaddpd	%xmm1, %xmm4, %xmm4
	vmovupd	%xmm4, 32(%r12)
	.loc 1 280 3 discriminator 3
	vmovupd	(%r15), %xmm2
	vpermilpd	$1, %xmm2, %xmm0
	vmulpd	%xmm13, %xmm0, %xmm0
	vfmaddsub132pd	%xmm2, %xmm0, %xmm12
	vunpckhpd	%xmm12, %xmm12, %xmm0
	vucomisd	%xmm0, %xmm12
	jp	.L96
.L38:
	.loc 1 280 3 discriminator 3
	vmovupd	16(%r15), %xmm2
	vpermilpd	$1, %xmm2, %xmm4
	vmulpd	%xmm11, %xmm4, %xmm4
	vfmaddsub231pd	%xmm2, %xmm10, %xmm4
	vunpckhpd	%xmm4, %xmm4, %xmm0
	vucomisd	%xmm0, %xmm4
	jp	.L97
.L39:
	vmovupd	32(%r15), %xmm10
	vaddpd	%xmm4, %xmm12, %xmm4
	.loc 1 280 3 discriminator 3
	vpermilpd	$1, %xmm10, %xmm11
	vmovhpd	%xmm10, -384(%rbp)
	vmovsd	%xmm10, %xmm10, %xmm13
	vmulpd	%xmm11, %xmm7, %xmm7
	vfmaddsub231pd	%xmm10, %xmm9, %xmm7
	vunpckhpd	%xmm7, %xmm7, %xmm0
	vucomisd	%xmm0, %xmm7
	jp	.L98
.L40:
	vaddpd	%xmm7, %xmm4, %xmm4
	vmovupd	%xmm4, (%rbx)
	.loc 1 280 3 discriminator 3
	vmovupd	(%r15), %xmm7
	vpermilpd	$1, %xmm7, %xmm4
	vunpckhpd	%xmm7, %xmm7, %xmm12
	vmovsd	%xmm7, %xmm7, %xmm9
	vmulpd	%xmm4, %xmm6, %xmm6
	vfmaddsub231pd	-256(%rbp), %xmm7, %xmm6
	vunpckhpd	%xmm6, %xmm6, %xmm0
	vucomisd	%xmm0, %xmm6
	jp	.L99
.L41:
	vmovupd	%xmm6, 16(%rbx)
	.loc 1 280 3 discriminator 3
	vmovupd	16(%r15), %xmm2
	vpermilpd	$1, %xmm2, %xmm0
	vmulpd	-240(%rbp), %xmm0, %xmm0
	vfmaddsub231pd	-272(%rbp), %xmm2, %xmm0
	vunpckhpd	%xmm0, %xmm0, %xmm1
	vucomisd	%xmm1, %xmm0
	jp	.L100
.L42:
	vmulpd	-304(%rbp), %xmm11, %xmm11
	vmovapd	-288(%rbp), %xmm1
	vaddpd	%xmm0, %xmm6, %xmm6
	.loc 1 280 3 discriminator 3
	vfmaddsub132pd	%xmm10, %xmm11, %xmm1
	vunpckhpd	%xmm1, %xmm1, %xmm0
	vucomisd	%xmm0, %xmm1
	jp	.L101
.L43:
	vmulpd	-336(%rbp), %xmm4, %xmm4
	vaddpd	%xmm1, %xmm6, %xmm0
	vfmaddsub231pd	-320(%rbp), %xmm7, %xmm4
	vmovupd	%xmm0, 16(%rbx)
	.loc 1 280 3 discriminator 3
	vunpckhpd	%xmm4, %xmm4, %xmm0
	vucomisd	%xmm0, %xmm4
	jp	.L102
.L44:
	.loc 1 280 3 discriminator 3
	vmovupd	16(%r15), %xmm2
	vpermilpd	$1, %xmm2, %xmm0
	vmulpd	%xmm15, %xmm0, %xmm0
	vfmaddsub132pd	%xmm2, %xmm0, %xmm5
	vunpckhpd	%xmm5, %xmm5, %xmm0
	vucomisd	%xmm0, %xmm5
	jp	.L103
.L45:
	vaddpd	%xmm5, %xmm4, %xmm5
	vmovupd	%xmm5, 32(%rbx)
	.loc 1 280 3 discriminator 3
	vmovupd	32(%r15), %xmm2
	vpermilpd	$1, %xmm2, %xmm0
	vmulpd	%xmm14, %xmm0, %xmm0
	vfmaddsub132pd	%xmm2, %xmm0, %xmm8
	vunpckhpd	%xmm8, %xmm8, %xmm0
	vucomisd	%xmm0, %xmm8
	jp	.L104
	vaddpd	%xmm8, %xmm5, %xmm5
	vmovupd	%xmm5, 32(%rbx)
	.loc 1 281 3 discriminator 3
#APP
# 281 "avx_complex_vec_align_load.c" 1
	# LLVM-MCA-END
# 0 "" 2
	.loc 1 276 18 discriminator 3
.LVL140:
	.loc 1 276 12 discriminator 3
#NO_APP
	addq	$48, %r13
	addq	$48, %rbx
	addq	$48, %r15
	addq	$48, %r12
	addq	$144, %r14
.LVL141:
	cmpq	%rdx, %r14
	jne	.L49
.LVL142:
.L65:
	movq	%r11, -272(%rbp)
	movq	%rax, %r13
	movq	%r10, -256(%rbp)
	movq	%r9, -240(%rbp)
	.loc 1 284 3
	.loc 1 284 6 is_stmt 0
	call	clock
.LVL143:
	movq	%rax, %rbx
.LVL144:
	.loc 1 286 5 is_stmt 1
	.loc 1 286 9 is_stmt 0
	call	omp_get_wtime
.LVL145:
	.loc 1 288 3
	xorl	%esi, %esi
	leaq	-208(%rbp), %rdi
	.loc 1 291 87
	subq	%r13, %rbx
.LVL146:
	.loc 1 286 9
	vmovq	%xmm0, %r12
.LVL147:
	.loc 1 288 3 is_stmt 1
	call	gettimeofday
.LVL148:
	.loc 1 289 3
	leaq	-224(%rbp), %rdx
	leaq	-208(%rbp), %rsi
	leaq	-192(%rbp), %rdi
	call	timeval_subtract
.LVL149:
	.loc 1 291 5
	vxorpd	%xmm7, %xmm7, %xmm7
	movl	$.LC2, %edx
	xorl	%esi, %esi
	movl	$.LC7, %edi
	vcvtsi2sdq	%rbx, %xmm7, %xmm0
	movl	$1, %eax
	vdivsd	.LC1(%rip), %xmm0, %xmm0
	call	lprintf
.LVL150:
	.loc 1 293 5
	vmovq	%r12, %xmm6
	movl	$.LC4, %edx
	xorl	%esi, %esi
	vsubsd	-688(%rbp), %xmm6, %xmm0
	movl	$.LC7, %edi
	movl	$1, %eax
	call	lprintf
.LVL151:
	.loc 1 295 5
	.loc 1 295 118 is_stmt 0
	vxorpd	%xmm7, %xmm7, %xmm7
	.loc 1 295 5
	movl	$.LC6, %edx
	xorl	%esi, %esi
	.loc 1 295 118
	vcvtsi2sdq	-184(%rbp), %xmm7, %xmm1
	.loc 1 295 5
	movl	$.LC7, %edi
	movl	$1, %eax
	vcvtsi2sdq	-192(%rbp), %xmm7, %xmm0
	vfmadd231sd	.LC5(%rip), %xmm1, %xmm0
	call	lprintf
.LVL152:
	.loc 1 304 1 is_stmt 1
	.loc 1 304 15
	movq	-240(%rbp), %r9
	movq	-256(%rbp), %r10
	.loc 1 295 5 is_stmt 0
	xorl	%eax, %eax
	movq	-272(%rbp), %r11
	movq	%r9, -336(%rbp)
	movq	%r10, -384(%rbp)
	movq	%r11, -320(%rbp)
.LVL153:
	.p2align 4,,10
	.p2align 3
.L50:
	.loc 1 306 13 is_stmt 1
	.loc 1 308 10 is_stmt 0
	movq	-320(%rbp), %rsi
	.loc 1 310 10
	movq	-344(%rbp), %rcx
	movq	%rax, -304(%rbp)
	.loc 1 315 11
	xorl	%r15d, %r15d
	.loc 1 308 10
	leaq	(%rsi,%rax), %r14
	.loc 1 310 10
	leaq	(%rcx,%rax), %r13
	.loc 1 313 11
	movq	-352(%rbp), %rsi
	.loc 1 315 11
	movq	-360(%rbp), %rcx
	.loc 1 313 11
	leaq	(%rsi,%rax), %r12
	.loc 1 315 11
	leaq	(%rcx,%rax), %rbx
.LVL154:
.L56:
	.loc 1 308 3 is_stmt 1
	.loc 1 308 8 is_stmt 0
	vmovsd	(%r14,%r15), %xmm3
.LVL155:
	.loc 1 309 3 is_stmt 1
	.loc 1 318 10 is_stmt 0
	vsubsd	(%r12,%r15), %xmm3, %xmm0
	.loc 1 318 3
	movl	$1, %edi
	.loc 1 311 8
	vmovsd	8(%r13,%r15), %xmm6
	.loc 1 315 9
	vmovsd	(%rbx,%r15), %xmm7
	.loc 1 309 8
	vmovsd	8(%r14,%r15), %xmm4
.LVL156:
	.loc 1 310 3 is_stmt 1
	.loc 1 310 8 is_stmt 0
	vmovsd	0(%r13,%r15), %xmm2
.LVL157:
	.loc 1 311 3 is_stmt 1
	.loc 1 318 10 is_stmt 0
	vdivsd	%xmm3, %xmm0, %xmm0
	.loc 1 311 8
	vmovsd	%xmm6, -272(%rbp)
.LVL158:
	.loc 1 313 3 is_stmt 1
	.loc 1 314 3
	.loc 1 316 9 is_stmt 0
	vmovsd	8(%rbx,%r15), %xmm6
.LVL159:
	.loc 1 314 9
	vmovsd	8(%r12,%r15), %xmm1
.LVL160:
	.loc 1 315 3 is_stmt 1
	.loc 1 315 9 is_stmt 0
	vmovsd	%xmm7, -240(%rbp)
.LVL161:
	.loc 1 316 3 is_stmt 1
	.loc 1 316 9 is_stmt 0
	vmovsd	%xmm6, -288(%rbp)
.LVL162:
	.loc 1 318 3 is_stmt 1
	.loc 1 318 10 is_stmt 0
	vandpd	.LC8(%rip), %xmm0, %xmm0
	.loc 1 318 3
	vcomisd	.LC9(%rip), %xmm0
	ja	.L51
	.loc 1 318 51 discriminator 2
	vsubsd	%xmm1, %xmm4, %xmm1
.LVL163:
	.loc 1 318 3 discriminator 2
	xorl	%edi, %edi
	.loc 1 318 51 discriminator 2
	vdivsd	%xmm4, %xmm1, %xmm1
	vandpd	.LC8(%rip), %xmm1, %xmm1
	.loc 1 318 3 discriminator 2
	vcomisd	.LC9(%rip), %xmm1
	seta	%dil
.L51:
	.loc 1 318 3 discriminator 6
	movl	$.LC10, %ecx
	movl	$.LC11, %edx
	movl	$1, %esi
	vmovsd	%xmm2, -256(%rbp)
	call	error
.LVL164:
	.loc 1 319 3 is_stmt 1 discriminator 6
	.loc 1 319 10 is_stmt 0 discriminator 6
	vmovsd	-256(%rbp), %xmm2
	vsubsd	-240(%rbp), %xmm2, %xmm0
	vdivsd	%xmm2, %xmm0, %xmm0
	vandpd	.LC8(%rip), %xmm0, %xmm0
	.loc 1 319 3 discriminator 6
	vcomisd	.LC9(%rip), %xmm0
	ja	.L52
	.loc 1 319 52 discriminator 2
	vmovsd	-272(%rbp), %xmm3
	vsubsd	-288(%rbp), %xmm3, %xmm0
	.loc 1 319 3 discriminator 2
	xorl	%edi, %edi
	movl	$.LC12, %ecx
	movl	$.LC13, %edx
	movl	$1, %esi
	.loc 1 319 52 discriminator 2
	vdivsd	%xmm3, %xmm0, %xmm0
	vandpd	.LC8(%rip), %xmm0, %xmm0
	.loc 1 319 3 discriminator 2
	vcomisd	.LC9(%rip), %xmm0
	seta	%dil
	.loc 1 306 13 discriminator 2
	addq	$16, %r15
.LVL165:
	.loc 1 319 3 discriminator 2
	call	error
.LVL166:
	.loc 1 321 3 is_stmt 1 discriminator 2
	.loc 1 322 3 discriminator 2
	.loc 1 323 3 discriminator 2
	.loc 1 324 3 discriminator 2
	.loc 1 326 3 discriminator 2
	.loc 1 327 3 discriminator 2
	.loc 1 328 3 discriminator 2
	.loc 1 329 3 discriminator 2
	.loc 1 306 18 discriminator 2
	.loc 1 306 13 discriminator 2
	cmpq	$48, %r15
	jne	.L56
.L66:
	movq	-304(%rbp), %rax
	.loc 1 304 22
.LVL167:
	.loc 1 304 15
	movabsq	$4800000000, %rcx
	addq	$48, %rax
.LVL168:
	cmpq	%rcx, %rax
	jne	.L50
	.loc 1 334 3 is_stmt 0
	movq	-384(%rbp), %r10
	movq	-336(%rbp), %r9
	movq	-320(%rbp), %r11
	movq	-368(%rbp), %rdi
	movq	%r10, -256(%rbp)
	movq	%r9, -272(%rbp)
	movq	%r11, -240(%rbp)
	.loc 1 334 3 is_stmt 1
	call	afree
.LVL169:
	.loc 1 335 3
	movq	-272(%rbp), %rdi
	call	afree
.LVL170:
	.loc 1 336 3
	movq	-256(%rbp), %rdi
	call	afree
.LVL171:
	.loc 1 337 3
	movq	-240(%rbp), %rdi
	call	afree
.LVL172:
	.loc 1 338 3
	movq	-344(%rbp), %rdi
	call	afree
.LVL173:
	.loc 1 339 3
	movq	-664(%rbp), %rdi
	call	afree
.LVL174:
	.loc 1 340 3
	movq	-672(%rbp), %rdi
	call	afree
.LVL175:
	.loc 1 341 3
	movq	-352(%rbp), %rdi
	call	afree
.LVL176:
	.loc 1 342 3
	movq	-360(%rbp), %rdi
	call	afree
.LVL177:
	.loc 1 344 3
	.loc 1 345 1 is_stmt 0
	addq	$896, %rsp
	xorl	%eax, %eax
	popq	%rbx
	popq	%r10
	.cfi_remember_state
	.cfi_def_cfa 10, 0
	popq	%r12
	popq	%r13
	popq	%r14
	popq	%r15
	popq	%rbp
.LVL178:
	leaq	-8(%r10), %rsp
	.cfi_def_cfa 7, 8
	ret
.LVL179:
	.p2align 4,,10
	.p2align 3
.L52:
	.cfi_restore_state
	.loc 1 319 3 discriminator 6
	movl	$.LC12, %ecx
	movl	$.LC13, %edx
	movl	$1, %esi
	movl	$1, %edi
	call	error
.LVL180:
	.loc 1 321 3 is_stmt 1 discriminator 6
	.loc 1 322 3 discriminator 6
	.loc 1 323 3 discriminator 6
	.loc 1 324 3 discriminator 6
	.loc 1 326 3 discriminator 6
	.loc 1 327 3 discriminator 6
	.loc 1 328 3 discriminator 6
	.loc 1 329 3 discriminator 6
	.loc 1 306 18 discriminator 6
	.loc 1 306 13 discriminator 6
	addq	$16, %r15
.LVL181:
	cmpq	$48, %r15
	jne	.L56
	jmp	.L66
.LVL182:
.L68:
	.loc 1 180 5
	movl	$.LC0, %edi
	call	puts
.LVL183:
	jmp	.L2
.LVL184:
.L104:
	vmovsd	-640(%rbp), %xmm0
	vmovsd	-656(%rbp), %xmm1
	vunpckhpd	%xmm2, %xmm2, %xmm3
	vmovapd	%xmm5, -240(%rbp)
	movq	%rdx, -320(%rbp)
	movq	%rax, -304(%rbp)
	movq	%r11, -288(%rbp)
	movq	%r10, -272(%rbp)
	movq	%r9, -256(%rbp)
	call	__muldc3
.LVL185:
	.loc 1 280 3 is_stmt 0
	vmovapd	-240(%rbp), %xmm5
	vunpcklpd	%xmm1, %xmm0, %xmm1
	vaddpd	%xmm5, %xmm1, %xmm0
	vmovupd	%xmm0, 32(%rbx)
	.loc 1 281 3 is_stmt 1
#APP
# 281 "avx_complex_vec_align_load.c" 1
	# LLVM-MCA-END
# 0 "" 2
	.loc 1 276 18
.LVL186:
	.loc 1 276 12
#NO_APP
	addq	$48, %r13
	addq	$48, %rbx
	addq	$48, %r15
	addq	$48, %r12
	movq	-320(%rbp), %rdx
	addq	$144, %r14
.LVL187:
	movq	-256(%rbp), %r9
	movq	-272(%rbp), %r10
	movq	-288(%rbp), %r11
	cmpq	%rdx, %r14
	movq	-304(%rbp), %rax
	jne	.L49
	jmp	.L65
.LVL188:
.L103:
	vmovsd	-512(%rbp), %xmm1
	vmovsd	-496(%rbp), %xmm0
	vunpckhpd	%xmm2, %xmm2, %xmm3
	movq	%rdx, -384(%rbp)
	movq	%rax, -336(%rbp)
	movq	%r11, -320(%rbp)
	movq	%r10, -304(%rbp)
	movq	%r9, -288(%rbp)
	vmovapd	%xmm4, -272(%rbp)
	vmovapd	%xmm14, -256(%rbp)
	vmovapd	%xmm8, -240(%rbp)
	call	__muldc3
.LVL189:
	movq	-384(%rbp), %rdx
	movq	-336(%rbp), %rax
	movq	-320(%rbp), %r11
	movq	-304(%rbp), %r10
	vunpcklpd	%xmm1, %xmm0, %xmm5
	movq	-288(%rbp), %r9
	vmovapd	-272(%rbp), %xmm4
	vmovapd	-256(%rbp), %xmm14
	vmovapd	-240(%rbp), %xmm8
	jmp	.L45
.L102:
	vmovsd	-624(%rbp), %xmm1
	vmovsd	-608(%rbp), %xmm0
	vmovsd	%xmm12, %xmm12, %xmm3
	vmovsd	%xmm9, %xmm9, %xmm2
	movq	%rdx, -400(%rbp)
	movq	%rax, -384(%rbp)
	movq	%r11, -336(%rbp)
	movq	%r10, -320(%rbp)
	movq	%r9, -304(%rbp)
	vmovapd	%xmm14, -288(%rbp)
	vmovapd	%xmm8, -272(%rbp)
	vmovapd	%xmm15, -256(%rbp)
	vmovapd	%xmm5, -240(%rbp)
	call	__muldc3
.LVL190:
	movq	-400(%rbp), %rdx
	movq	-384(%rbp), %rax
	movq	-336(%rbp), %r11
	movq	-320(%rbp), %r10
	vunpcklpd	%xmm1, %xmm0, %xmm4
	movq	-304(%rbp), %r9
	vmovapd	-288(%rbp), %xmm14
	vmovapd	-272(%rbp), %xmm8
	vmovapd	-256(%rbp), %xmm15
	vmovapd	-240(%rbp), %xmm5
	jmp	.L44
.L101:
	vmovsd	-592(%rbp), %xmm1
	vmovsd	-576(%rbp), %xmm0
	vmovsd	%xmm13, %xmm13, %xmm2
	movq	%rdx, -560(%rbp)
	vmovsd	-384(%rbp), %xmm3
	movq	%rax, -544(%rbp)
	movq	%r11, -528(%rbp)
	movq	%r10, -480(%rbp)
	movq	%r9, -464(%rbp)
	vmovapd	%xmm6, -448(%rbp)
	vmovapd	%xmm4, -432(%rbp)
	vmovsd	%xmm12, -416(%rbp)
	vmovsd	%xmm9, -400(%rbp)
	vmovapd	%xmm7, -304(%rbp)
	vmovapd	%xmm14, -288(%rbp)
	vmovapd	%xmm8, -272(%rbp)
	vmovapd	%xmm15, -256(%rbp)
	vmovapd	%xmm5, -240(%rbp)
	call	__muldc3
.LVL191:
	movq	-560(%rbp), %rdx
	movq	-544(%rbp), %rax
	movq	-528(%rbp), %r11
	movq	-480(%rbp), %r10
	vunpcklpd	%xmm1, %xmm0, %xmm1
	movq	-464(%rbp), %r9
	vmovapd	-448(%rbp), %xmm6
	vmovapd	-432(%rbp), %xmm4
	vmovsd	-416(%rbp), %xmm12
	vmovsd	-400(%rbp), %xmm9
	vmovapd	-304(%rbp), %xmm7
	vmovapd	-288(%rbp), %xmm14
	vmovapd	-272(%rbp), %xmm8
	vmovapd	-256(%rbp), %xmm15
	vmovapd	-240(%rbp), %xmm5
	jmp	.L43
.L100:
	vmovsd	-560(%rbp), %xmm1
	vmovsd	-544(%rbp), %xmm0
	vunpckhpd	%xmm2, %xmm2, %xmm3
	movq	%rdx, -800(%rbp)
	movq	%rax, -784(%rbp)
	movq	%r11, -768(%rbp)
	movq	%r10, -752(%rbp)
	movq	%r9, -736(%rbp)
	vmovapd	%xmm6, -720(%rbp)
	vmovapd	%xmm4, -704(%rbp)
	vmovsd	%xmm12, -528(%rbp)
	vmovsd	%xmm9, -480(%rbp)
	vmovapd	%xmm7, -464(%rbp)
	vmovapd	%xmm11, -448(%rbp)
	vmovsd	%xmm13, -432(%rbp)
	vmovapd	%xmm10, -416(%rbp)
	vmovapd	%xmm14, -400(%rbp)
	vmovapd	%xmm8, -272(%rbp)
	vmovapd	%xmm15, -256(%rbp)
	vmovapd	%xmm5, -240(%rbp)
	call	__muldc3
.LVL192:
	movq	-800(%rbp), %rdx
	movq	-784(%rbp), %rax
	movq	-768(%rbp), %r11
	movq	-752(%rbp), %r10
	vunpcklpd	%xmm1, %xmm0, %xmm0
	movq	-736(%rbp), %r9
	vmovapd	-720(%rbp), %xmm6
	vmovapd	-704(%rbp), %xmm4
	vmovsd	-528(%rbp), %xmm12
	vmovsd	-480(%rbp), %xmm9
	vmovapd	-464(%rbp), %xmm7
	vmovapd	-448(%rbp), %xmm11
	vmovsd	-432(%rbp), %xmm13
	vmovapd	-416(%rbp), %xmm10
	vmovapd	-400(%rbp), %xmm14
	vmovapd	-272(%rbp), %xmm8
	vmovapd	-256(%rbp), %xmm15
	vmovapd	-240(%rbp), %xmm5
	jmp	.L42
.L99:
	vmovsd	-528(%rbp), %xmm1
	vmovsd	-480(%rbp), %xmm0
	vmovsd	%xmm12, %xmm12, %xmm3
	vmovsd	%xmm7, %xmm7, %xmm2
	movq	%rdx, -848(%rbp)
	movq	%rax, -832(%rbp)
	movq	%r11, -816(%rbp)
	movq	%r10, -800(%rbp)
	movq	%r9, -784(%rbp)
	vmovapd	%xmm4, -768(%rbp)
	vmovapd	%xmm7, -752(%rbp)
	vmovapd	%xmm11, -736(%rbp)
	vmovsd	%xmm13, -720(%rbp)
	vmovapd	%xmm10, -704(%rbp)
	vmovapd	%xmm14, -464(%rbp)
	vmovapd	%xmm8, -448(%rbp)
	vmovapd	%xmm15, -432(%rbp)
	vmovapd	%xmm5, -416(%rbp)
	vmovsd	%xmm12, -400(%rbp)
	vmovsd	%xmm7, -256(%rbp)
	call	__muldc3
.LVL193:
	movq	-848(%rbp), %rdx
	movq	-832(%rbp), %rax
	movq	-816(%rbp), %r11
	movq	-800(%rbp), %r10
	vunpcklpd	%xmm1, %xmm0, %xmm6
	movq	-784(%rbp), %r9
	vmovapd	-768(%rbp), %xmm4
	vmovapd	-752(%rbp), %xmm7
	vmovapd	-736(%rbp), %xmm11
	vmovsd	-720(%rbp), %xmm13
	vmovapd	-704(%rbp), %xmm10
	vmovapd	-464(%rbp), %xmm14
	vmovapd	-448(%rbp), %xmm8
	vmovapd	-432(%rbp), %xmm15
	vmovapd	-416(%rbp), %xmm5
	vmovsd	-400(%rbp), %xmm12
	vmovsd	-256(%rbp), %xmm9
	jmp	.L41
.L98:
	vmovsd	-464(%rbp), %xmm1
	vmovsd	-448(%rbp), %xmm0
	vmovsd	%xmm10, %xmm10, %xmm2
	movq	%rdx, -864(%rbp)
	vmovsd	-384(%rbp), %xmm3
	movq	%rax, -848(%rbp)
	movq	%r11, -832(%rbp)
	movq	%r10, -816(%rbp)
	movq	%r9, -800(%rbp)
	vmovapd	%xmm11, -784(%rbp)
	vmovapd	%xmm10, -768(%rbp)
	vmovapd	%xmm4, -752(%rbp)
	vmovapd	%xmm14, -736(%rbp)
	vmovapd	%xmm8, -720(%rbp)
	vmovapd	%xmm15, -704(%rbp)
	vmovapd	%xmm5, -432(%rbp)
	vmovapd	%xmm6, -416(%rbp)
	vmovsd	%xmm10, -400(%rbp)
	call	__muldc3
.LVL194:
	movq	-864(%rbp), %rdx
	movq	-848(%rbp), %rax
	movq	-832(%rbp), %r11
	movq	-816(%rbp), %r10
	vunpcklpd	%xmm1, %xmm0, %xmm7
	movq	-800(%rbp), %r9
	vmovapd	-784(%rbp), %xmm11
	vmovapd	-768(%rbp), %xmm10
	vmovapd	-752(%rbp), %xmm4
	vmovapd	-736(%rbp), %xmm14
	vmovapd	-720(%rbp), %xmm8
	vmovapd	-704(%rbp), %xmm15
	vmovapd	-432(%rbp), %xmm5
	vmovapd	-416(%rbp), %xmm6
	vmovsd	-400(%rbp), %xmm13
	jmp	.L40
.L97:
	vmovsd	-432(%rbp), %xmm1
	vmovsd	-416(%rbp), %xmm0
	vunpckhpd	%xmm2, %xmm2, %xmm3
	movq	%rdx, -864(%rbp)
	movq	%rax, -848(%rbp)
	movq	%r11, -832(%rbp)
	movq	%r10, -816(%rbp)
	movq	%r9, -800(%rbp)
	vmovapd	%xmm12, -784(%rbp)
	vmovapd	%xmm14, -768(%rbp)
	vmovapd	%xmm8, -752(%rbp)
	vmovapd	%xmm15, -736(%rbp)
	vmovapd	%xmm5, -720(%rbp)
	vmovapd	%xmm6, -704(%rbp)
	vmovapd	%xmm7, -400(%rbp)
	vmovapd	%xmm9, -384(%rbp)
	call	__muldc3
.LVL195:
	movq	-864(%rbp), %rdx
	movq	-848(%rbp), %rax
	movq	-832(%rbp), %r11
	movq	-816(%rbp), %r10
	vunpcklpd	%xmm1, %xmm0, %xmm4
	movq	-800(%rbp), %r9
	vmovapd	-784(%rbp), %xmm12
	vmovapd	-768(%rbp), %xmm14
	vmovapd	-752(%rbp), %xmm8
	vmovapd	-736(%rbp), %xmm15
	vmovapd	-720(%rbp), %xmm5
	vmovapd	-704(%rbp), %xmm6
	vmovapd	-400(%rbp), %xmm7
	vmovapd	-384(%rbp), %xmm9
	jmp	.L39
.L96:
	vmovsd	-400(%rbp), %xmm1
	vmovsd	-384(%rbp), %xmm0
	vunpckhpd	%xmm2, %xmm2, %xmm3
	movq	%rdx, -896(%rbp)
	movq	%rax, -888(%rbp)
	movq	%r11, -880(%rbp)
	movq	%r10, -864(%rbp)
	movq	%r9, -848(%rbp)
	vmovapd	%xmm14, -832(%rbp)
	vmovapd	%xmm8, -816(%rbp)
	vmovapd	%xmm15, -800(%rbp)
	vmovapd	%xmm5, -784(%rbp)
	vmovapd	%xmm6, -768(%rbp)
	vmovapd	%xmm7, -752(%rbp)
	vmovapd	%xmm9, -736(%rbp)
	vmovapd	%xmm11, -720(%rbp)
	vmovapd	%xmm10, -704(%rbp)
	call	__muldc3
.LVL196:
	movq	-896(%rbp), %rdx
	movq	-888(%rbp), %rax
	movq	-880(%rbp), %r11
	movq	-864(%rbp), %r10
	vunpcklpd	%xmm1, %xmm0, %xmm12
	movq	-848(%rbp), %r9
	vmovapd	-832(%rbp), %xmm14
	vmovapd	-816(%rbp), %xmm8
	vmovapd	-800(%rbp), %xmm15
	vmovapd	-784(%rbp), %xmm5
	vmovapd	-768(%rbp), %xmm6
	vmovapd	-752(%rbp), %xmm7
	vmovapd	-736(%rbp), %xmm9
	vmovapd	-720(%rbp), %xmm11
	vmovapd	-704(%rbp), %xmm10
	jmp	.L38
.L95:
	vmovsd	-656(%rbp), %xmm1
	vmovsd	-640(%rbp), %xmm0
	vunpckhpd	%xmm2, %xmm2, %xmm3
	movq	%rdx, -920(%rbp)
	movq	%rax, -912(%rbp)
	movq	%r11, -904(%rbp)
	movq	%r10, -896(%rbp)
	movq	%r9, -888(%rbp)
	vmovapd	%xmm14, -880(%rbp)
	vmovapd	%xmm8, -864(%rbp)
	vmovapd	%xmm4, -848(%rbp)
	vmovapd	%xmm15, -832(%rbp)
	vmovapd	%xmm5, -816(%rbp)
	vmovapd	%xmm6, -800(%rbp)
	vmovapd	%xmm7, -784(%rbp)
	vmovapd	%xmm9, -768(%rbp)
	vmovapd	%xmm11, -752(%rbp)
	vmovapd	%xmm10, -736(%rbp)
	vmovapd	%xmm13, -720(%rbp)
	vmovapd	%xmm12, -704(%rbp)
	call	__muldc3
.LVL197:
	movq	-920(%rbp), %rdx
	movq	-912(%rbp), %rax
	movq	-904(%rbp), %r11
	movq	-896(%rbp), %r10
	vunpcklpd	%xmm1, %xmm0, %xmm1
	movq	-888(%rbp), %r9
	vmovapd	-880(%rbp), %xmm14
	vmovapd	-864(%rbp), %xmm8
	vmovapd	-848(%rbp), %xmm4
	vmovapd	-832(%rbp), %xmm15
	vmovapd	-816(%rbp), %xmm5
	vmovapd	-800(%rbp), %xmm6
	vmovapd	-784(%rbp), %xmm7
	vmovapd	-768(%rbp), %xmm9
	vmovapd	-752(%rbp), %xmm11
	vmovapd	-736(%rbp), %xmm10
	vmovapd	-720(%rbp), %xmm13
	vmovapd	-704(%rbp), %xmm12
	jmp	.L37
.L94:
	vmovsd	-512(%rbp), %xmm1
	vmovsd	-496(%rbp), %xmm0
	vunpckhpd	%xmm2, %xmm2, %xmm3
	movq	%rdx, -888(%rbp)
	movq	%rax, -880(%rbp)
	movq	%r11, -864(%rbp)
	movq	%r10, -848(%rbp)
	movq	%r9, -832(%rbp)
	vmovapd	%xmm15, -816(%rbp)
	vmovapd	%xmm5, -800(%rbp)
	vmovapd	%xmm4, -784(%rbp)
	vmovapd	%xmm6, -768(%rbp)
	vmovapd	%xmm7, -752(%rbp)
	vmovapd	%xmm9, -736(%rbp)
	vmovapd	%xmm11, -720(%rbp)
	vmovapd	%xmm10, -704(%rbp)
	vmovapd	%xmm13, -656(%rbp)
	vmovapd	%xmm12, -640(%rbp)
	call	__muldc3
.LVL198:
	movq	-888(%rbp), %rdx
	movq	-880(%rbp), %rax
	movq	-864(%rbp), %r11
	movq	-848(%rbp), %r10
	vunpcklpd	%xmm1, %xmm0, %xmm1
	movq	-832(%rbp), %r9
	vmovapd	-816(%rbp), %xmm15
	vmovapd	-800(%rbp), %xmm5
	vmovapd	-784(%rbp), %xmm4
	vmovapd	-768(%rbp), %xmm6
	vmovapd	-752(%rbp), %xmm7
	vmovapd	-736(%rbp), %xmm9
	vmovapd	-720(%rbp), %xmm11
	vmovapd	-704(%rbp), %xmm10
	vmovapd	-656(%rbp), %xmm13
	vmovapd	-640(%rbp), %xmm12
	jmp	.L36
.L93:
	vmovsd	-512(%rbp), %xmm1
	vmovsd	-496(%rbp), %xmm0
	movq	%rdx, -848(%rbp)
	vmovsd	-624(%rbp), %xmm3
	vmovsd	-608(%rbp), %xmm2
	movq	%rax, -832(%rbp)
	movq	%r11, -816(%rbp)
	movq	%r10, -800(%rbp)
	movq	%r9, -784(%rbp)
	vmovapd	%xmm6, -768(%rbp)
	vmovapd	%xmm7, -752(%rbp)
	vmovapd	%xmm9, -736(%rbp)
	vmovapd	%xmm11, -720(%rbp)
	vmovapd	%xmm10, -704(%rbp)
	vmovapd	%xmm13, -656(%rbp)
	vmovapd	%xmm12, -640(%rbp)
	call	__muldc3
.LVL199:
	movq	-848(%rbp), %rdx
	movq	-832(%rbp), %rax
	movq	-816(%rbp), %r11
	movq	-800(%rbp), %r10
	vunpcklpd	%xmm1, %xmm0, %xmm4
	movq	-784(%rbp), %r9
	vmovapd	-768(%rbp), %xmm6
	vmovapd	-752(%rbp), %xmm7
	vmovapd	-736(%rbp), %xmm9
	vmovapd	-720(%rbp), %xmm11
	vmovapd	-704(%rbp), %xmm10
	vmovapd	-656(%rbp), %xmm13
	vmovapd	-640(%rbp), %xmm12
	jmp	.L35
.L92:
	vmovsd	-336(%rbp), %xmm1
	vmovsd	-320(%rbp), %xmm0
	movq	%rdx, -864(%rbp)
	vmovsd	-592(%rbp), %xmm3
	vmovsd	-576(%rbp), %xmm2
	movq	%rax, -848(%rbp)
	movq	%r11, -832(%rbp)
	movq	%r10, -816(%rbp)
	movq	%r9, -800(%rbp)
	vmovapd	%xmm5, -784(%rbp)
	vmovapd	%xmm14, -768(%rbp)
	vmovapd	%xmm4, -752(%rbp)
	vmovapd	%xmm6, -736(%rbp)
	vmovapd	%xmm7, -720(%rbp)
	vmovapd	%xmm9, -704(%rbp)
	vmovapd	%xmm11, -656(%rbp)
	vmovapd	%xmm10, -640(%rbp)
	vmovapd	%xmm13, -624(%rbp)
	vmovapd	%xmm12, -608(%rbp)
	call	__muldc3
.LVL200:
	movq	-864(%rbp), %rdx
	movq	-848(%rbp), %rax
	movq	-832(%rbp), %r11
	movq	-816(%rbp), %r10
	vunpcklpd	%xmm1, %xmm0, %xmm1
	movq	-800(%rbp), %r9
	vmovapd	-784(%rbp), %xmm5
	vmovapd	-768(%rbp), %xmm14
	vmovapd	-752(%rbp), %xmm4
	vmovapd	-736(%rbp), %xmm6
	vmovapd	-720(%rbp), %xmm7
	vmovapd	-704(%rbp), %xmm9
	vmovapd	-656(%rbp), %xmm11
	vmovapd	-640(%rbp), %xmm10
	vmovapd	-624(%rbp), %xmm13
	vmovapd	-608(%rbp), %xmm12
	jmp	.L34
.L91:
	vmovsd	-560(%rbp), %xmm1
	vmovsd	-544(%rbp), %xmm0
	vunpckhpd	%xmm2, %xmm2, %xmm3
	movq	%rdx, -832(%rbp)
	movq	%rax, -816(%rbp)
	movq	%r11, -800(%rbp)
	movq	%r10, -784(%rbp)
	movq	%r9, -768(%rbp)
	vmovapd	%xmm5, -752(%rbp)
	vmovapd	%xmm14, -736(%rbp)
	vmovapd	%xmm8, -720(%rbp)
	vmovapd	%xmm15, -704(%rbp)
	vmovapd	%xmm4, -656(%rbp)
	vmovapd	%xmm6, -640(%rbp)
	vmovapd	%xmm7, -624(%rbp)
	vmovapd	%xmm9, -608(%rbp)
	vmovapd	%xmm11, -592(%rbp)
	vmovapd	%xmm10, -576(%rbp)
	vmovapd	%xmm13, -304(%rbp)
	vmovapd	%xmm12, -288(%rbp)
	call	__muldc3
.LVL201:
	movq	-832(%rbp), %rdx
	movq	-816(%rbp), %rax
	movq	-800(%rbp), %r11
	movq	-784(%rbp), %r10
	vunpcklpd	%xmm1, %xmm0, %xmm1
	movq	-768(%rbp), %r9
	vmovapd	-752(%rbp), %xmm5
	vmovapd	-736(%rbp), %xmm14
	vmovapd	-720(%rbp), %xmm8
	vmovapd	-704(%rbp), %xmm15
	vmovapd	-656(%rbp), %xmm4
	vmovapd	-640(%rbp), %xmm6
	vmovapd	-624(%rbp), %xmm7
	vmovapd	-608(%rbp), %xmm9
	vmovapd	-592(%rbp), %xmm11
	vmovapd	-576(%rbp), %xmm10
	vmovapd	-304(%rbp), %xmm13
	vmovapd	-288(%rbp), %xmm12
	jmp	.L33
.L90:
	vmovsd	-528(%rbp), %xmm1
	vmovsd	-480(%rbp), %xmm0
	movq	%rdx, -752(%rbp)
	vmovsd	-512(%rbp), %xmm3
	vmovsd	-496(%rbp), %xmm2
	movq	%rax, -736(%rbp)
	movq	%r11, -720(%rbp)
	movq	%r10, -704(%rbp)
	movq	%r9, -656(%rbp)
	vmovapd	%xmm5, -640(%rbp)
	vmovapd	%xmm14, -624(%rbp)
	vmovapd	%xmm8, -608(%rbp)
	vmovapd	%xmm15, -592(%rbp)
	vmovapd	%xmm6, -576(%rbp)
	vmovapd	%xmm7, -560(%rbp)
	vmovapd	%xmm9, -544(%rbp)
	vmovapd	%xmm11, -304(%rbp)
	vmovapd	%xmm10, -288(%rbp)
	vmovapd	%xmm13, -272(%rbp)
	vmovapd	%xmm12, -240(%rbp)
	call	__muldc3
.LVL202:
	movq	-752(%rbp), %rdx
	movq	-736(%rbp), %rax
	movq	-720(%rbp), %r11
	movq	-704(%rbp), %r10
	vunpcklpd	%xmm1, %xmm0, %xmm4
	movq	-656(%rbp), %r9
	vmovapd	-640(%rbp), %xmm5
	vmovapd	-624(%rbp), %xmm14
	vmovapd	-608(%rbp), %xmm8
	vmovapd	-592(%rbp), %xmm15
	vmovapd	-576(%rbp), %xmm6
	vmovapd	-560(%rbp), %xmm7
	vmovapd	-544(%rbp), %xmm9
	vmovapd	-304(%rbp), %xmm11
	vmovapd	-288(%rbp), %xmm10
	vmovapd	-272(%rbp), %xmm13
	vmovapd	-240(%rbp), %xmm12
	jmp	.L32
.L89:
	vmovsd	-464(%rbp), %xmm1
	vmovsd	-448(%rbp), %xmm0
	movq	%rdx, -608(%rbp)
	vmovsd	-336(%rbp), %xmm3
	vmovsd	-320(%rbp), %xmm2
	movq	%rax, -592(%rbp)
	movq	%r11, -576(%rbp)
	movq	%r10, -560(%rbp)
	movq	%r9, -544(%rbp)
	vmovapd	%xmm8, -528(%rbp)
	vmovapd	%xmm15, -512(%rbp)
	vmovapd	%xmm7, -496(%rbp)
	vmovapd	%xmm9, -480(%rbp)
	vmovapd	%xmm4, -304(%rbp)
	vmovapd	%xmm11, -288(%rbp)
	vmovapd	%xmm10, -272(%rbp)
	vmovapd	%xmm13, -256(%rbp)
	vmovapd	%xmm12, -240(%rbp)
	call	__muldc3
.LVL203:
	movq	-608(%rbp), %rdx
	movq	-592(%rbp), %rax
	movq	-576(%rbp), %r11
	movq	-560(%rbp), %r10
	vunpcklpd	%xmm1, %xmm0, %xmm1
	movq	-544(%rbp), %r9
	vmovapd	-528(%rbp), %xmm8
	vmovapd	-512(%rbp), %xmm15
	vmovapd	-496(%rbp), %xmm7
	vmovapd	-480(%rbp), %xmm9
	vmovapd	-304(%rbp), %xmm4
	vmovapd	-288(%rbp), %xmm11
	vmovapd	-272(%rbp), %xmm10
	vmovapd	-256(%rbp), %xmm13
	vmovapd	-240(%rbp), %xmm12
	jmp	.L31
.L88:
	vmovsd	-432(%rbp), %xmm1
	vmovsd	-416(%rbp), %xmm0
	vunpckhpd	%xmm2, %xmm2, %xmm3
	movq	%rdx, -480(%rbp)
	movq	%rax, -464(%rbp)
	movq	%r11, -448(%rbp)
	movq	%r10, -336(%rbp)
	movq	%r9, -320(%rbp)
	vmovapd	%xmm11, -304(%rbp)
	vmovapd	%xmm10, -288(%rbp)
	vmovapd	%xmm4, -272(%rbp)
	vmovapd	%xmm13, -256(%rbp)
	vmovapd	%xmm12, -240(%rbp)
	call	__muldc3
.LVL204:
	movq	-480(%rbp), %rdx
	movq	-464(%rbp), %rax
	movq	-448(%rbp), %r11
	movq	-336(%rbp), %r10
	vunpcklpd	%xmm1, %xmm0, %xmm0
	movq	-320(%rbp), %r9
	vmovapd	-304(%rbp), %xmm11
	vmovapd	-288(%rbp), %xmm10
	vmovapd	-272(%rbp), %xmm4
	vmovapd	-256(%rbp), %xmm13
	vmovapd	-240(%rbp), %xmm12
	jmp	.L30
.L87:
	vmovsd	-400(%rbp), %xmm1
	vmovsd	-384(%rbp), %xmm0
	vunpckhpd	%xmm2, %xmm2, %xmm3
	movq	%rdx, -336(%rbp)
	movq	%rax, -320(%rbp)
	movq	%r11, -304(%rbp)
	movq	%r10, -288(%rbp)
	movq	%r9, -272(%rbp)
	vmovapd	%xmm13, -256(%rbp)
	vmovapd	%xmm12, -240(%rbp)
	call	__muldc3
.LVL205:
	movq	-336(%rbp), %rdx
	movq	-320(%rbp), %rax
	movq	-304(%rbp), %r11
	movq	-288(%rbp), %r10
	vunpcklpd	%xmm1, %xmm0, %xmm4
	movq	-272(%rbp), %r9
	vmovapd	-256(%rbp), %xmm13
	vmovapd	-240(%rbp), %xmm12
	jmp	.L29
.LVL206:
.L86:
	vmovsd	-656(%rbp), %xmm0
	vunpckhpd	%xmm2, %xmm2, %xmm3
	vmovsd	-384(%rbp), %xmm1
	movq	%rdx, -400(%rbp)
	movq	%r11, -336(%rbp)
	.loc 1 264 11 is_stmt 0
	addq	$48, %r12
	addq	$48, %r15
	addq	$144, %rbx
.LVL207:
	movq	%r10, -320(%rbp)
	addq	$48, %r13
	movq	%r9, -304(%rbp)
	movq	%rax, -288(%rbp)
	movq	%r8, -272(%rbp)
	movq	%rcx, -256(%rbp)
	vmovapd	%xmm4, -240(%rbp)
	call	__muldc3
.LVL208:
	.loc 1 267 3
	vmovapd	-240(%rbp), %xmm4
	.loc 1 264 11
	movq	-288(%rbp), %rax
	.loc 1 267 3
	vunpcklpd	%xmm1, %xmm0, %xmm1
	.loc 1 264 11
	movq	-400(%rbp), %rdx
	movq	-256(%rbp), %rcx
	.loc 1 267 3
	vaddpd	%xmm4, %xmm1, %xmm0
	.loc 1 264 11
	addq	$48, %rax
	movq	-272(%rbp), %r8
	movq	-304(%rbp), %r9
	movq	-320(%rbp), %r10
	movq	-336(%rbp), %r11
	.loc 1 267 3
	vmovupd	%xmm0, -16(%r15)
	.loc 1 264 17 is_stmt 1
.LVL209:
	.loc 1 264 11
	cmpq	%rdx, %rbx
	jne	.L28
	jmp	.L64
.LVL210:
.L85:
	vmovsd	-640(%rbp), %xmm1
	vmovsd	-512(%rbp), %xmm0
	vunpckhpd	%xmm2, %xmm2, %xmm3
	movq	%rdx, -432(%rbp)
	movq	%r11, -416(%rbp)
	movq	%r10, -400(%rbp)
	movq	%r9, -336(%rbp)
	movq	%rax, -320(%rbp)
	movq	%r8, -304(%rbp)
	movq	%rcx, -288(%rbp)
	vmovapd	%xmm5, -272(%rbp)
	vmovapd	%xmm8, -256(%rbp)
	vmovapd	%xmm14, -240(%rbp)
	call	__muldc3
.LVL211:
	movq	-432(%rbp), %rdx
	movq	-416(%rbp), %r11
	movq	-400(%rbp), %r10
	movq	-336(%rbp), %r9
	vunpcklpd	%xmm1, %xmm0, %xmm4
	movq	-320(%rbp), %rax
	movq	-304(%rbp), %r8
	movq	-288(%rbp), %rcx
	vmovapd	-272(%rbp), %xmm5
	vmovapd	-256(%rbp), %xmm8
	vmovapd	-240(%rbp), %xmm14
	jmp	.L24
.L84:
	vmovsd	-624(%rbp), %xmm1
	vmovsd	-608(%rbp), %xmm0
	vmovsd	%xmm13, %xmm13, %xmm3
	vmovsd	%xmm10, %xmm10, %xmm2
	movq	%rdx, -448(%rbp)
	movq	%r11, -432(%rbp)
	movq	%r10, -416(%rbp)
	movq	%r9, -400(%rbp)
	movq	%rax, -336(%rbp)
	movq	%r8, -320(%rbp)
	movq	%rcx, -304(%rbp)
	vmovapd	%xmm8, -288(%rbp)
	vmovapd	%xmm15, -272(%rbp)
	vmovapd	%xmm4, -256(%rbp)
	vmovapd	%xmm14, -240(%rbp)
	call	__muldc3
.LVL212:
	movq	-448(%rbp), %rdx
	movq	-432(%rbp), %r11
	movq	-416(%rbp), %r10
	movq	-400(%rbp), %r9
	vunpcklpd	%xmm1, %xmm0, %xmm5
	movq	-336(%rbp), %rax
	movq	-320(%rbp), %r8
	movq	-304(%rbp), %rcx
	vmovapd	-288(%rbp), %xmm8
	vmovapd	-272(%rbp), %xmm15
	vmovapd	-256(%rbp), %xmm4
	vmovapd	-240(%rbp), %xmm14
	jmp	.L23
.L83:
	vmovsd	-592(%rbp), %xmm1
	vmovsd	-576(%rbp), %xmm0
	movq	%rdx, -720(%rbp)
	vmovsd	-400(%rbp), %xmm3
	vmovsd	-256(%rbp), %xmm2
	movq	%r11, -704(%rbp)
	movq	%r10, -688(%rbp)
	movq	%r9, -560(%rbp)
	movq	%rax, -544(%rbp)
	movq	%r8, -528(%rbp)
	movq	%rcx, -496(%rbp)
	vmovapd	%xmm6, -480(%rbp)
	vmovapd	%xmm5, -464(%rbp)
	vmovsd	%xmm13, -448(%rbp)
	vmovsd	%xmm10, -432(%rbp)
	vmovapd	%xmm7, -416(%rbp)
	vmovapd	%xmm8, -304(%rbp)
	vmovapd	%xmm15, -288(%rbp)
	vmovapd	%xmm4, -272(%rbp)
	vmovapd	%xmm14, -240(%rbp)
	call	__muldc3
.LVL213:
	movq	-720(%rbp), %rdx
	movq	-704(%rbp), %r11
	movq	-688(%rbp), %r10
	movq	-560(%rbp), %r9
	vunpcklpd	%xmm1, %xmm0, %xmm1
	movq	-544(%rbp), %rax
	movq	-528(%rbp), %r8
	movq	-496(%rbp), %rcx
	vmovapd	-480(%rbp), %xmm6
	vmovapd	-464(%rbp), %xmm5
	vmovsd	-448(%rbp), %xmm13
	vmovsd	-432(%rbp), %xmm10
	vmovapd	-416(%rbp), %xmm7
	vmovapd	-304(%rbp), %xmm8
	vmovapd	-288(%rbp), %xmm15
	vmovapd	-272(%rbp), %xmm4
	vmovapd	-240(%rbp), %xmm14
	jmp	.L22
.L82:
	vmovsd	-560(%rbp), %xmm1
	vmovsd	-544(%rbp), %xmm0
	vunpckhpd	%xmm2, %xmm2, %xmm3
	movq	%rdx, -816(%rbp)
	movq	%r11, -800(%rbp)
	movq	%r10, -784(%rbp)
	movq	%r9, -768(%rbp)
	movq	%rax, -752(%rbp)
	movq	%r8, -736(%rbp)
	movq	%rcx, -720(%rbp)
	vmovapd	%xmm6, -704(%rbp)
	vmovapd	%xmm5, -688(%rbp)
	vmovsd	%xmm13, -528(%rbp)
	vmovsd	%xmm10, -496(%rbp)
	vmovapd	%xmm7, -480(%rbp)
	vmovapd	%xmm12, -464(%rbp)
	vmovapd	%xmm11, -448(%rbp)
	vmovapd	%xmm8, -432(%rbp)
	vmovapd	%xmm15, -416(%rbp)
	vmovapd	%xmm4, -272(%rbp)
	vmovapd	%xmm14, -240(%rbp)
	call	__muldc3
.LVL214:
	movq	-816(%rbp), %rdx
	movq	-800(%rbp), %r11
	movq	-784(%rbp), %r10
	movq	-768(%rbp), %r9
	vunpcklpd	%xmm1, %xmm0, %xmm0
	movq	-752(%rbp), %rax
	movq	-736(%rbp), %r8
	movq	-720(%rbp), %rcx
	vmovapd	-704(%rbp), %xmm6
	vmovapd	-688(%rbp), %xmm5
	vmovsd	-528(%rbp), %xmm13
	vmovsd	-496(%rbp), %xmm10
	vmovapd	-480(%rbp), %xmm7
	vmovapd	-464(%rbp), %xmm12
	vmovapd	-448(%rbp), %xmm11
	vmovapd	-432(%rbp), %xmm8
	vmovapd	-416(%rbp), %xmm15
	vmovapd	-272(%rbp), %xmm4
	vmovapd	-240(%rbp), %xmm14
	jmp	.L21
.L81:
	vmovsd	-528(%rbp), %xmm1
	vmovsd	-496(%rbp), %xmm0
	vmovsd	%xmm13, %xmm13, %xmm3
	vmovsd	%xmm7, %xmm7, %xmm2
	movq	%rdx, -864(%rbp)
	movq	%r11, -848(%rbp)
	movq	%r10, -832(%rbp)
	movq	%r9, -816(%rbp)
	movq	%rax, -800(%rbp)
	movq	%r8, -784(%rbp)
	movq	%rcx, -768(%rbp)
	vmovapd	%xmm5, -752(%rbp)
	vmovapd	%xmm7, -736(%rbp)
	vmovapd	%xmm12, -720(%rbp)
	vmovapd	%xmm11, -704(%rbp)
	vmovapd	%xmm8, -688(%rbp)
	vmovapd	%xmm15, -480(%rbp)
	vmovapd	%xmm4, -464(%rbp)
	vmovapd	%xmm14, -448(%rbp)
	vmovsd	%xmm13, -432(%rbp)
	vmovsd	%xmm7, -416(%rbp)
	call	__muldc3
.LVL215:
	movq	-864(%rbp), %rdx
	movq	-848(%rbp), %r11
	movq	-832(%rbp), %r10
	movq	-816(%rbp), %r9
	vunpcklpd	%xmm1, %xmm0, %xmm6
	movq	-800(%rbp), %rax
	movq	-784(%rbp), %r8
	movq	-768(%rbp), %rcx
	vmovapd	-752(%rbp), %xmm5
	vmovapd	-736(%rbp), %xmm7
	vmovapd	-720(%rbp), %xmm12
	vmovapd	-704(%rbp), %xmm11
	vmovapd	-688(%rbp), %xmm8
	vmovapd	-480(%rbp), %xmm15
	vmovapd	-464(%rbp), %xmm4
	vmovapd	-448(%rbp), %xmm14
	vmovsd	-432(%rbp), %xmm13
	vmovsd	-416(%rbp), %xmm10
	jmp	.L20
.L80:
	vmovsd	-480(%rbp), %xmm1
	vmovsd	-464(%rbp), %xmm0
	movq	%rdx, -880(%rbp)
	vmovsd	-400(%rbp), %xmm3
	vmovsd	-256(%rbp), %xmm2
	movq	%r11, -864(%rbp)
	movq	%r10, -848(%rbp)
	movq	%r9, -832(%rbp)
	movq	%rax, -816(%rbp)
	movq	%r8, -800(%rbp)
	movq	%rcx, -784(%rbp)
	vmovapd	%xmm12, -768(%rbp)
	vmovapd	%xmm11, -752(%rbp)
	vmovapd	%xmm5, -736(%rbp)
	vmovapd	%xmm8, -720(%rbp)
	vmovapd	%xmm15, -704(%rbp)
	vmovapd	%xmm4, -688(%rbp)
	vmovapd	%xmm6, -448(%rbp)
	vmovapd	%xmm9, -432(%rbp)
	vmovapd	%xmm14, -416(%rbp)
	call	__muldc3
.LVL216:
	movq	-880(%rbp), %rdx
	movq	-864(%rbp), %r11
	movq	-848(%rbp), %r10
	movq	-832(%rbp), %r9
	vunpcklpd	%xmm1, %xmm0, %xmm7
	movq	-816(%rbp), %rax
	movq	-800(%rbp), %r8
	movq	-784(%rbp), %rcx
	vmovapd	-768(%rbp), %xmm12
	vmovapd	-752(%rbp), %xmm11
	vmovapd	-736(%rbp), %xmm5
	vmovapd	-720(%rbp), %xmm8
	vmovapd	-704(%rbp), %xmm15
	vmovapd	-688(%rbp), %xmm4
	vmovapd	-448(%rbp), %xmm6
	vmovapd	-432(%rbp), %xmm9
	vmovapd	-416(%rbp), %xmm14
	jmp	.L19
.L79:
	vmovsd	-448(%rbp), %xmm1
	vmovsd	-432(%rbp), %xmm0
	vunpckhpd	%xmm2, %xmm2, %xmm3
	movq	%rdx, -880(%rbp)
	movq	%r11, -864(%rbp)
	movq	%r10, -848(%rbp)
	movq	%r9, -832(%rbp)
	movq	%rax, -816(%rbp)
	movq	%r8, -800(%rbp)
	movq	%rcx, -784(%rbp)
	vmovapd	%xmm13, -768(%rbp)
	vmovapd	%xmm8, -752(%rbp)
	vmovapd	%xmm15, -736(%rbp)
	vmovapd	%xmm4, -720(%rbp)
	vmovapd	%xmm6, -704(%rbp)
	vmovapd	%xmm9, -688(%rbp)
	vmovapd	%xmm7, -416(%rbp)
	vmovapd	%xmm10, -400(%rbp)
	vmovapd	%xmm14, -256(%rbp)
	call	__muldc3
.LVL217:
	movq	-880(%rbp), %rdx
	movq	-864(%rbp), %r11
	movq	-848(%rbp), %r10
	movq	-832(%rbp), %r9
	vunpcklpd	%xmm1, %xmm0, %xmm5
	movq	-816(%rbp), %rax
	movq	-800(%rbp), %r8
	movq	-784(%rbp), %rcx
	vmovapd	-768(%rbp), %xmm13
	vmovapd	-752(%rbp), %xmm8
	vmovapd	-736(%rbp), %xmm15
	vmovapd	-720(%rbp), %xmm4
	vmovapd	-704(%rbp), %xmm6
	vmovapd	-688(%rbp), %xmm9
	vmovapd	-416(%rbp), %xmm7
	vmovapd	-400(%rbp), %xmm10
	vmovapd	-256(%rbp), %xmm14
	jmp	.L18
.L78:
	vmovsd	-416(%rbp), %xmm1
	vmovsd	-400(%rbp), %xmm0
	vunpckhpd	%xmm2, %xmm2, %xmm3
	movq	%rdx, -904(%rbp)
	movq	%r11, -896(%rbp)
	movq	%r10, -888(%rbp)
	movq	%r9, -880(%rbp)
	movq	%rax, -864(%rbp)
	movq	%r8, -848(%rbp)
	movq	%rcx, -832(%rbp)
	vmovapd	%xmm8, -816(%rbp)
	vmovapd	%xmm15, -800(%rbp)
	vmovapd	%xmm4, -784(%rbp)
	vmovapd	%xmm6, -768(%rbp)
	vmovapd	%xmm9, -752(%rbp)
	vmovapd	%xmm7, -736(%rbp)
	vmovapd	%xmm10, -720(%rbp)
	vmovapd	%xmm12, -704(%rbp)
	vmovapd	%xmm11, -688(%rbp)
	vmovapd	%xmm14, -256(%rbp)
	call	__muldc3
.LVL218:
	movq	-904(%rbp), %rdx
	movq	-896(%rbp), %r11
	movq	-888(%rbp), %r10
	movq	-880(%rbp), %r9
	vunpcklpd	%xmm1, %xmm0, %xmm13
	movq	-864(%rbp), %rax
	movq	-848(%rbp), %r8
	movq	-832(%rbp), %rcx
	vmovapd	-816(%rbp), %xmm8
	vmovapd	-800(%rbp), %xmm15
	vmovapd	-784(%rbp), %xmm4
	vmovapd	-768(%rbp), %xmm6
	vmovapd	-752(%rbp), %xmm9
	vmovapd	-736(%rbp), %xmm7
	vmovapd	-720(%rbp), %xmm10
	vmovapd	-704(%rbp), %xmm12
	vmovapd	-688(%rbp), %xmm11
	vmovapd	-256(%rbp), %xmm14
	jmp	.L17
.L77:
	vmovsd	-384(%rbp), %xmm1
	vmovsd	-656(%rbp), %xmm0
	vunpckhpd	%xmm2, %xmm2, %xmm3
	movq	%rdx, -928(%rbp)
	movq	%r11, -920(%rbp)
	movq	%r10, -912(%rbp)
	movq	%r9, -904(%rbp)
	movq	%rax, -896(%rbp)
	movq	%r8, -888(%rbp)
	movq	%rcx, -880(%rbp)
	vmovapd	%xmm13, -864(%rbp)
	vmovapd	%xmm8, -848(%rbp)
	vmovapd	%xmm5, -832(%rbp)
	vmovapd	%xmm15, -816(%rbp)
	vmovapd	%xmm4, -800(%rbp)
	vmovapd	%xmm6, -784(%rbp)
	vmovapd	%xmm9, -768(%rbp)
	vmovapd	%xmm7, -752(%rbp)
	vmovapd	%xmm10, -736(%rbp)
	vmovapd	%xmm12, -720(%rbp)
	vmovapd	%xmm11, -704(%rbp)
	vmovapd	%xmm14, -688(%rbp)
	call	__muldc3
.LVL219:
	movq	-928(%rbp), %rdx
	movq	-920(%rbp), %r11
	movq	-912(%rbp), %r10
	movq	-904(%rbp), %r9
	vunpcklpd	%xmm1, %xmm0, %xmm1
	movq	-896(%rbp), %rax
	movq	-888(%rbp), %r8
	movq	-880(%rbp), %rcx
	vmovapd	-864(%rbp), %xmm13
	vmovapd	-848(%rbp), %xmm8
	vmovapd	-832(%rbp), %xmm5
	vmovapd	-816(%rbp), %xmm15
	vmovapd	-800(%rbp), %xmm4
	vmovapd	-784(%rbp), %xmm6
	vmovapd	-768(%rbp), %xmm9
	vmovapd	-752(%rbp), %xmm7
	vmovapd	-736(%rbp), %xmm10
	vmovapd	-720(%rbp), %xmm12
	vmovapd	-704(%rbp), %xmm11
	vmovapd	-688(%rbp), %xmm14
	jmp	.L16
.L76:
	vmovsd	-640(%rbp), %xmm1
	vmovsd	-512(%rbp), %xmm0
	vunpckhpd	%xmm2, %xmm2, %xmm3
	movq	%rdx, -896(%rbp)
	movq	%r11, -888(%rbp)
	movq	%r10, -880(%rbp)
	movq	%r9, -864(%rbp)
	movq	%rax, -848(%rbp)
	movq	%r8, -832(%rbp)
	movq	%rcx, -816(%rbp)
	vmovapd	%xmm13, -800(%rbp)
	vmovapd	%xmm15, -784(%rbp)
	vmovapd	%xmm4, -768(%rbp)
	vmovapd	%xmm5, -752(%rbp)
	vmovapd	%xmm6, -736(%rbp)
	vmovapd	%xmm9, -720(%rbp)
	vmovapd	%xmm7, -704(%rbp)
	vmovapd	%xmm10, -688(%rbp)
	vmovapd	%xmm12, -656(%rbp)
	vmovapd	%xmm11, -384(%rbp)
	call	__muldc3
.LVL220:
	movq	-896(%rbp), %rdx
	movq	-888(%rbp), %r11
	movq	-880(%rbp), %r10
	movq	-864(%rbp), %r9
	vunpcklpd	%xmm1, %xmm0, %xmm1
	movq	-848(%rbp), %rax
	movq	-832(%rbp), %r8
	movq	-816(%rbp), %rcx
	vmovapd	-800(%rbp), %xmm13
	vmovapd	-784(%rbp), %xmm15
	vmovapd	-768(%rbp), %xmm4
	vmovapd	-752(%rbp), %xmm5
	vmovapd	-736(%rbp), %xmm6
	vmovapd	-720(%rbp), %xmm9
	vmovapd	-704(%rbp), %xmm7
	vmovapd	-688(%rbp), %xmm10
	vmovapd	-656(%rbp), %xmm12
	vmovapd	-384(%rbp), %xmm11
	jmp	.L15
.L75:
	vmovsd	-512(%rbp), %xmm1
	vmovsd	-384(%rbp), %xmm0
	movq	%rdx, -864(%rbp)
	vmovsd	-624(%rbp), %xmm3
	vmovsd	-608(%rbp), %xmm2
	movq	%r11, -848(%rbp)
	movq	%r10, -832(%rbp)
	movq	%r9, -816(%rbp)
	movq	%rax, -800(%rbp)
	movq	%r8, -784(%rbp)
	movq	%rcx, -768(%rbp)
	vmovapd	%xmm13, -752(%rbp)
	vmovapd	%xmm6, -736(%rbp)
	vmovapd	%xmm9, -720(%rbp)
	vmovapd	%xmm7, -704(%rbp)
	vmovapd	%xmm10, -688(%rbp)
	vmovapd	%xmm12, -656(%rbp)
	vmovapd	%xmm11, -640(%rbp)
	call	__muldc3
.LVL221:
	movq	-864(%rbp), %rdx
	movq	-848(%rbp), %r11
	movq	-832(%rbp), %r10
	movq	-816(%rbp), %r9
	vunpcklpd	%xmm1, %xmm0, %xmm5
	movq	-800(%rbp), %rax
	movq	-784(%rbp), %r8
	movq	-768(%rbp), %rcx
	vmovapd	-752(%rbp), %xmm13
	vmovapd	-736(%rbp), %xmm6
	vmovapd	-720(%rbp), %xmm9
	vmovapd	-704(%rbp), %xmm7
	vmovapd	-688(%rbp), %xmm10
	vmovapd	-656(%rbp), %xmm12
	vmovapd	-640(%rbp), %xmm11
	jmp	.L14
.L74:
	vmovsd	-336(%rbp), %xmm1
	vmovsd	-320(%rbp), %xmm0
	movq	%rdx, -880(%rbp)
	vmovsd	-592(%rbp), %xmm3
	vmovsd	-576(%rbp), %xmm2
	movq	%r11, -864(%rbp)
	movq	%r10, -848(%rbp)
	movq	%r9, -832(%rbp)
	movq	%rax, -816(%rbp)
	movq	%r8, -800(%rbp)
	movq	%rcx, -784(%rbp)
	vmovapd	%xmm13, -768(%rbp)
	vmovapd	%xmm8, -752(%rbp)
	vmovapd	%xmm14, -736(%rbp)
	vmovapd	%xmm4, -720(%rbp)
	vmovapd	%xmm6, -704(%rbp)
	vmovapd	%xmm9, -688(%rbp)
	vmovapd	%xmm7, -656(%rbp)
	vmovapd	%xmm10, -640(%rbp)
	vmovapd	%xmm12, -624(%rbp)
	vmovapd	%xmm11, -608(%rbp)
	call	__muldc3
.LVL222:
	movq	-880(%rbp), %rdx
	movq	-864(%rbp), %r11
	movq	-848(%rbp), %r10
	movq	-832(%rbp), %r9
	vunpcklpd	%xmm1, %xmm0, %xmm1
	movq	-816(%rbp), %rax
	movq	-800(%rbp), %r8
	movq	-784(%rbp), %rcx
	vmovapd	-768(%rbp), %xmm13
	vmovapd	-752(%rbp), %xmm8
	vmovapd	-736(%rbp), %xmm14
	vmovapd	-720(%rbp), %xmm4
	vmovapd	-704(%rbp), %xmm6
	vmovapd	-688(%rbp), %xmm9
	vmovapd	-656(%rbp), %xmm7
	vmovapd	-640(%rbp), %xmm10
	vmovapd	-624(%rbp), %xmm12
	vmovapd	-608(%rbp), %xmm11
	jmp	.L13
.L73:
	vmovsd	-560(%rbp), %xmm1
	vmovsd	-544(%rbp), %xmm0
	vunpckhpd	%xmm2, %xmm2, %xmm3
	movq	%rdx, -848(%rbp)
	movq	%r11, -832(%rbp)
	movq	%r10, -816(%rbp)
	movq	%r9, -800(%rbp)
	movq	%rax, -784(%rbp)
	movq	%r8, -768(%rbp)
	movq	%rcx, -752(%rbp)
	vmovapd	%xmm13, -736(%rbp)
	vmovapd	%xmm8, -720(%rbp)
	vmovapd	%xmm14, -704(%rbp)
	vmovapd	%xmm5, -688(%rbp)
	vmovapd	%xmm4, -656(%rbp)
	vmovapd	%xmm6, -640(%rbp)
	vmovapd	%xmm9, -624(%rbp)
	vmovapd	%xmm7, -608(%rbp)
	vmovapd	%xmm10, -592(%rbp)
	vmovapd	%xmm12, -576(%rbp)
	vmovapd	%xmm11, -304(%rbp)
	vmovapd	%xmm15, -288(%rbp)
	call	__muldc3
.LVL223:
	movq	-848(%rbp), %rdx
	movq	-832(%rbp), %r11
	movq	-816(%rbp), %r10
	movq	-800(%rbp), %r9
	vunpcklpd	%xmm1, %xmm0, %xmm1
	movq	-784(%rbp), %rax
	movq	-768(%rbp), %r8
	movq	-752(%rbp), %rcx
	vmovapd	-736(%rbp), %xmm13
	vmovapd	-720(%rbp), %xmm8
	vmovapd	-704(%rbp), %xmm14
	vmovapd	-688(%rbp), %xmm5
	vmovapd	-656(%rbp), %xmm4
	vmovapd	-640(%rbp), %xmm6
	vmovapd	-624(%rbp), %xmm9
	vmovapd	-608(%rbp), %xmm7
	vmovapd	-592(%rbp), %xmm10
	vmovapd	-576(%rbp), %xmm12
	vmovapd	-304(%rbp), %xmm11
	vmovapd	-288(%rbp), %xmm15
	jmp	.L12
.L72:
	vmovsd	-528(%rbp), %xmm1
	vmovsd	-496(%rbp), %xmm0
	movq	%rdx, -768(%rbp)
	vmovsd	-512(%rbp), %xmm3
	vmovsd	-384(%rbp), %xmm2
	movq	%r11, -752(%rbp)
	movq	%r10, -736(%rbp)
	movq	%r9, -720(%rbp)
	movq	%rax, -704(%rbp)
	movq	%r8, -688(%rbp)
	movq	%rcx, -656(%rbp)
	vmovapd	%xmm13, -640(%rbp)
	vmovapd	%xmm8, -624(%rbp)
	vmovapd	%xmm14, -608(%rbp)
	vmovapd	%xmm5, -592(%rbp)
	vmovapd	%xmm6, -576(%rbp)
	vmovapd	%xmm9, -560(%rbp)
	vmovapd	%xmm7, -544(%rbp)
	vmovapd	%xmm10, -304(%rbp)
	vmovapd	%xmm12, -288(%rbp)
	vmovapd	%xmm11, -272(%rbp)
	vmovapd	%xmm15, -240(%rbp)
	call	__muldc3
.LVL224:
	movq	-768(%rbp), %rdx
	movq	-752(%rbp), %r11
	movq	-736(%rbp), %r10
	movq	-720(%rbp), %r9
	vunpcklpd	%xmm1, %xmm0, %xmm4
	movq	-704(%rbp), %rax
	movq	-688(%rbp), %r8
	movq	-656(%rbp), %rcx
	vmovapd	-640(%rbp), %xmm13
	vmovapd	-624(%rbp), %xmm8
	vmovapd	-608(%rbp), %xmm14
	vmovapd	-592(%rbp), %xmm5
	vmovapd	-576(%rbp), %xmm6
	vmovapd	-560(%rbp), %xmm9
	vmovapd	-544(%rbp), %xmm7
	vmovapd	-304(%rbp), %xmm10
	vmovapd	-288(%rbp), %xmm12
	vmovapd	-272(%rbp), %xmm11
	vmovapd	-240(%rbp), %xmm15
	jmp	.L11
.L71:
	vmovsd	-480(%rbp), %xmm1
	vmovsd	-464(%rbp), %xmm0
	movq	%rdx, -640(%rbp)
	vmovsd	-336(%rbp), %xmm3
	vmovsd	-320(%rbp), %xmm2
	movq	%r11, -624(%rbp)
	movq	%r10, -608(%rbp)
	movq	%r9, -592(%rbp)
	movq	%rax, -576(%rbp)
	movq	%r8, -560(%rbp)
	movq	%rcx, -544(%rbp)
	vmovapd	%xmm13, -528(%rbp)
	vmovapd	%xmm5, -512(%rbp)
	vmovapd	%xmm7, -496(%rbp)
	vmovapd	%xmm10, -384(%rbp)
	vmovapd	%xmm4, -304(%rbp)
	vmovapd	%xmm12, -288(%rbp)
	vmovapd	%xmm11, -272(%rbp)
	vmovapd	%xmm15, -240(%rbp)
	call	__muldc3
.LVL225:
	movq	-640(%rbp), %rdx
	movq	-624(%rbp), %r11
	movq	-608(%rbp), %r10
	movq	-592(%rbp), %r9
	vunpcklpd	%xmm1, %xmm0, %xmm1
	movq	-576(%rbp), %rax
	movq	-560(%rbp), %r8
	movq	-544(%rbp), %rcx
	vmovapd	-528(%rbp), %xmm13
	vmovapd	-512(%rbp), %xmm5
	vmovapd	-496(%rbp), %xmm7
	vmovapd	-384(%rbp), %xmm10
	vmovapd	-304(%rbp), %xmm4
	vmovapd	-288(%rbp), %xmm12
	vmovapd	-272(%rbp), %xmm11
	vmovapd	-240(%rbp), %xmm15
	jmp	.L10
.L70:
	vmovsd	-448(%rbp), %xmm1
	vmovsd	-432(%rbp), %xmm0
	vunpckhpd	%xmm2, %xmm2, %xmm3
	movq	%rdx, -512(%rbp)
	movq	%r11, -496(%rbp)
	movq	%r10, -480(%rbp)
	movq	%r9, -464(%rbp)
	movq	%rax, -384(%rbp)
	movq	%r8, -336(%rbp)
	movq	%rcx, -320(%rbp)
	vmovapd	%xmm13, -304(%rbp)
	vmovapd	%xmm12, -288(%rbp)
	vmovapd	%xmm11, -272(%rbp)
	vmovapd	%xmm4, -240(%rbp)
	call	__muldc3
.LVL226:
	movq	-512(%rbp), %rdx
	movq	-496(%rbp), %r11
	movq	-480(%rbp), %r10
	movq	-464(%rbp), %r9
	vunpcklpd	%xmm1, %xmm0, %xmm1
	movq	-384(%rbp), %rax
	movq	-336(%rbp), %r8
	movq	-320(%rbp), %rcx
	vmovapd	-304(%rbp), %xmm13
	vmovapd	-288(%rbp), %xmm12
	vmovapd	-272(%rbp), %xmm11
	vmovapd	-240(%rbp), %xmm4
	jmp	.L9
.L69:
	vmovsd	-416(%rbp), %xmm1
	vmovsd	-400(%rbp), %xmm0
	vunpckhpd	%xmm2, %xmm2, %xmm3
	movq	%rdx, -432(%rbp)
	movq	%r11, -384(%rbp)
	movq	%r10, -336(%rbp)
	movq	%r9, -320(%rbp)
	movq	%rax, -304(%rbp)
	movq	%r8, -288(%rbp)
	movq	%rcx, -272(%rbp)
	vmovapd	%xmm13, -240(%rbp)
	call	__muldc3
.LVL227:
	movq	-432(%rbp), %rdx
	movq	-384(%rbp), %r11
	movq	-336(%rbp), %r10
	movq	-320(%rbp), %r9
	vunpcklpd	%xmm1, %xmm0, %xmm4
	movq	-304(%rbp), %rax
	movq	-288(%rbp), %r8
	movq	-272(%rbp), %rcx
	vmovapd	-240(%rbp), %xmm13
	jmp	.L8
	.cfi_endproc
.LFE6408:
	.size	main, .-main
	.text
	.p2align 4
	.globl	double_MVM_non_macro
	.type	double_MVM_non_macro, @function
double_MVM_non_macro:
.LFB6409:
	.loc 1 349 1
	.cfi_startproc
.LVL228:
	.loc 1 350 2
	.loc 1 351 2
	.loc 1 355 2
.LBB976:
.LBB977:
	.loc 2 869 3
.LBE977:
.LBE976:
	.loc 1 356 2
.LBB978:
.LBB979:
	.loc 2 339 3
.LBE979:
.LBE978:
	.loc 1 349 1 is_stmt 0
	pushq	%rbp
	.cfi_def_cfa_offset 16
	.cfi_offset 6, -16
.LVL229:
	movq	%rsp, %rbp
	.cfi_def_cfa_register 6
	andq	$-32, %rsp
.LBB981:
.LBB982:
	.loc 2 869 10
	vmovapd	(%rcx), %ymm1
.LBE982:
.LBE981:
.LBB984:
.LBB985:
	.loc 2 339 20
	vpermilpd	$15, (%rdx), %ymm0
.LBE985:
.LBE984:
.LBB987:
.LBB988:
	vpermilpd	$15, 48(%rdx), %ymm3
.LBE988:
.LBE987:
.LBB990:
.LBB980:
	vpermilpd	$0, (%rdx), %ymm14
.LVL230:
.LBE980:
.LBE990:
	.loc 1 357 2 is_stmt 1
.LBB991:
.LBB986:
	.loc 2 339 3
.LBE986:
.LBE991:
	.loc 1 360 2
.LBB992:
.LBB993:
	.loc 2 893 3
.LBE993:
.LBE992:
	.loc 1 361 2
.LBB994:
.LBB995:
	.loc 2 339 3
.LBE995:
.LBE994:
.LBB997:
.LBB998:
	.loc 2 339 20 is_stmt 0
	vpermilpd	$5, %ymm1, %ymm10
.LBE998:
.LBE997:
.LBB1000:
.LBB996:
	vpermilpd	$0, 48(%rdx), %ymm6
.LVL231:
.LBE996:
.LBE1000:
	.loc 1 362 2 is_stmt 1
.LBB1001:
.LBB989:
	.loc 2 339 3
.LBE989:
.LBE1001:
	.loc 1 365 2
.LBB1002:
.LBB1003:
	.loc 2 869 3
.LBE1003:
.LBE1002:
	.loc 1 366 2
.LBB1004:
.LBB1005:
	.loc 2 339 3
.LBE1005:
.LBE1004:
.LBB1007:
.LBB1008:
	.loc 2 869 10 is_stmt 0
	vmovapd	(%r8), %ymm11
.LBE1008:
.LBE1007:
.LBB1010:
.LBB1011:
	.loc 2 314 10
	vmulpd	%ymm10, %ymm0, %ymm2
.LBE1011:
.LBE1010:
.LBB1013:
.LBB1014:
	.loc 2 339 20
	vpermilpd	$15, 96(%rdx), %ymm5
.LBE1014:
.LBE1013:
.LBB1016:
.LBB1006:
	vpermilpd	$0, 96(%rdx), %ymm9
.LVL232:
.LBE1006:
.LBE1016:
	.loc 1 367 2 is_stmt 1
.LBB1017:
.LBB1015:
	.loc 2 339 3
.LBE1015:
.LBE1017:
	.loc 1 370 2
.LBB1018:
.LBB983:
	.loc 2 869 3
.LBE983:
.LBE1018:
	.loc 1 371 2
.LBB1019:
.LBB999:
	.loc 2 339 3
.LBE999:
.LBE1019:
	.loc 1 374 2
.LBB1020:
.LBB1009:
	.loc 2 869 3
.LBE1009:
.LBE1020:
	.loc 1 375 2
.LBB1021:
.LBB1022:
	.loc 2 339 3
.LBE1022:
.LBE1021:
.LBB1024:
.LBB1025:
	.loc 2 314 10 is_stmt 0
	vmulpd	%ymm10, %ymm3, %ymm4
.LBE1025:
.LBE1024:
.LBB1027:
.LBB1023:
	.loc 2 339 20
	vpermilpd	$5, %ymm11, %ymm12
.LVL233:
.LBE1023:
.LBE1027:
	.loc 1 384 2 is_stmt 1
.LBB1028:
.LBB1012:
	.loc 2 314 3
.LBE1012:
.LBE1028:
	.loc 1 385 2
.LBB1029:
.LBB1030:
	.loc 3 241 3
.LBE1030:
.LBE1029:
.LBB1032:
.LBB1033:
	.loc 2 314 10 is_stmt 0
	vmulpd	%ymm12, %ymm0, %ymm0
.LVL234:
.LBE1033:
.LBE1032:
.LBB1035:
.LBB1036:
	vmulpd	%ymm12, %ymm3, %ymm3
.LVL235:
.LBE1036:
.LBE1035:
.LBB1038:
.LBB1039:
	vmulpd	%ymm10, %ymm5, %ymm10
.LVL236:
.LBE1039:
.LBE1038:
.LBB1041:
.LBB1042:
	vmulpd	%ymm12, %ymm5, %ymm5
.LVL237:
.LBE1042:
.LBE1041:
.LBB1044:
.LBB1031:
	.loc 3 241 19
	vfmaddsub231pd	%ymm1, %ymm14, %ymm2
.LVL238:
.LBE1031:
.LBE1044:
	.loc 1 388 2 is_stmt 1
.LBB1045:
.LBB1026:
	.loc 2 314 3
.LBE1026:
.LBE1045:
	.loc 1 389 2
.LBB1046:
.LBB1047:
	.loc 3 241 3
	.loc 3 241 19 is_stmt 0
	vfmaddsub231pd	%ymm1, %ymm6, %ymm4
.LVL239:
.LBE1047:
.LBE1046:
	.loc 1 393 2 is_stmt 1
.LBB1048:
.LBB1049:
	.loc 2 690 3
.LBE1049:
.LBE1048:
.LBB1051:
.LBB1052:
	.loc 3 241 19 is_stmt 0
	vfmaddsub231pd	%ymm11, %ymm14, %ymm0
.LBE1052:
.LBE1051:
.LBB1054:
.LBB1055:
	.loc 2 893 10
	vmovupd	16(%r8), %ymm14
.LVL240:
.LBE1055:
.LBE1054:
.LBB1057:
.LBB1058:
	.loc 3 241 19
	vfmaddsub231pd	%ymm11, %ymm6, %ymm3
.LBE1058:
.LBE1057:
.LBB1060:
.LBB1061:
	vfmaddsub132pd	%ymm9, %ymm10, %ymm1
.LVL241:
.LBE1061:
.LBE1060:
.LBB1063:
.LBB1064:
	vfmaddsub132pd	%ymm11, %ymm5, %ymm9
.LVL242:
.LBE1064:
.LBE1063:
.LBB1066:
.LBB1067:
	.loc 2 893 10
	vmovupd	112(%rdx), %ymm5
.LBE1067:
.LBE1066:
.LBB1069:
.LBB1050:
	.loc 2 690 20
	vperm2f128	$2, %ymm2, %ymm4, %ymm7
.LVL243:
.LBE1050:
.LBE1069:
	.loc 1 394 2 is_stmt 1
.LBB1070:
.LBB1071:
	.loc 2 690 3
	.loc 2 690 20 is_stmt 0
	vperm2f128	$1, %ymm2, %ymm2, %ymm2
.LVL244:
.LBE1071:
.LBE1070:
	.loc 1 396 2 is_stmt 1
.LBB1072:
.LBB1073:
	.loc 2 196 3
.LBE1073:
.LBE1072:
	.loc 1 397 2
.LBB1076:
.LBB1077:
	.loc 2 143 3
.LBE1077:
.LBE1076:
	.loc 1 400 2
.LBB1079:
.LBB1080:
	.loc 2 893 3
.LBE1080:
.LBE1079:
	.loc 1 401 2
.LBB1081:
.LBB1082:
	.loc 2 690 3
.LBE1082:
.LBE1081:
.LBB1085:
.LBB1074:
	.loc 2 196 20 is_stmt 0
	vblendpd	$12, %ymm4, %ymm2, %ymm4
.LBE1074:
.LBE1085:
.LBB1086:
.LBB1083:
	.loc 2 690 20
	vmovupd	16(%rdx), %ymm2
.LBE1083:
.LBE1086:
.LBB1087:
.LBB1075:
	.loc 2 196 20
	vmovapd	%ymm4, -32(%rsp)
.LVL245:
.LBE1075:
.LBE1087:
.LBB1088:
.LBB1089:
	.loc 2 893 10
	vmovupd	16(%rcx), %ymm4
.LBE1089:
.LBE1088:
.LBB1091:
.LBB1092:
	.loc 2 690 20
	vperm2f128	$2, %ymm0, %ymm3, %ymm6
.LVL246:
.LBE1092:
.LBE1091:
.LBB1094:
.LBB1095:
	vperm2f128	$1, %ymm0, %ymm0, %ymm0
.LBE1095:
.LBE1094:
.LBB1097:
.LBB1084:
	vperm2f128	$1, %ymm2, %ymm2, %ymm2
.LVL247:
.LBE1084:
.LBE1097:
	.loc 1 402 2 is_stmt 1
.LBB1098:
.LBB1099:
	.loc 2 869 3
.LBE1099:
.LBE1098:
	.loc 1 403 2
.LBB1100:
.LBB1101:
	.loc 2 196 3
.LBE1101:
.LBE1100:
.LBB1103:
.LBB1104:
	.loc 2 196 20 is_stmt 0
	vblendpd	$12, %ymm3, %ymm0, %ymm0
.LBE1104:
.LBE1103:
.LBB1106:
.LBB1078:
	.loc 2 143 10
	vaddpd	-32(%rsp), %ymm7, %ymm7
.LBE1078:
.LBE1106:
.LBB1107:
.LBB1108:
	.loc 2 690 20
	vperm2f128	$1, %ymm4, %ymm4, %ymm8
.LBE1108:
.LBE1107:
.LBB1110:
.LBB1102:
	.loc 2 196 20
	vblendpd	$12, 64(%rdx), %ymm2, %ymm2
.LVL248:
.LBE1102:
.LBE1110:
	.loc 1 405 2 is_stmt 1
.LBB1111:
.LBB1090:
	.loc 2 893 3
.LBE1090:
.LBE1111:
	.loc 1 406 2
.LBB1112:
.LBB1109:
	.loc 2 690 3
.LBE1109:
.LBE1112:
	.loc 1 407 2
.LBB1113:
.LBB1114:
	.loc 2 196 3
.LBE1114:
.LBE1113:
.LBB1116:
.LBB1117:
	.loc 2 690 20 is_stmt 0
	vperm2f128	$2, %ymm1, %ymm9, %ymm10
.LBE1117:
.LBE1116:
.LBB1119:
.LBB1115:
	.loc 2 196 20
	vblendpd	$12, %ymm4, %ymm8, %ymm4
.LVL249:
.LBE1115:
.LBE1119:
	.loc 1 409 2 is_stmt 1
.LBB1120:
.LBB1121:
	.loc 2 339 3
	.loc 2 339 20 is_stmt 0
	vpermilpd	$0, %ymm2, %ymm13
.LVL250:
.LBE1121:
.LBE1120:
	.loc 1 410 2 is_stmt 1
.LBB1122:
.LBB1123:
	.loc 2 339 3
	.loc 2 339 20 is_stmt 0
	vpermilpd	$15, %ymm2, %ymm2
.LVL251:
.LBE1123:
.LBE1122:
	.loc 1 411 2 is_stmt 1
.LBB1124:
.LBB1125:
	.loc 2 339 3
.LBE1125:
.LBE1124:
	.loc 1 413 2
.LBB1127:
.LBB1128:
	.loc 2 314 3
.LBE1128:
.LBE1127:
	.loc 1 414 2
.LBB1130:
.LBB1131:
	.loc 3 241 3
.LBE1131:
.LBE1130:
.LBB1133:
.LBB1126:
	.loc 2 339 20 is_stmt 0
	vpermilpd	$5, %ymm4, %ymm15
.LBE1126:
.LBE1133:
.LBB1134:
.LBB1135:
	.loc 2 196 20
	vblendpd	$12, %ymm14, %ymm8, %ymm8
.LVL252:
.LBE1135:
.LBE1134:
.LBB1137:
.LBB1138:
	.loc 2 690 20
	vperm2f128	$1, %ymm1, %ymm1, %ymm1
.LBE1138:
.LBE1137:
.LBB1140:
.LBB1129:
	.loc 2 314 10
	vmulpd	%ymm2, %ymm15, %ymm15
.LBE1129:
.LBE1140:
.LBB1141:
.LBB1142:
	.loc 2 196 20
	vblendpd	$12, %ymm9, %ymm1, %ymm1
.LBE1142:
.LBE1141:
.LBB1144:
.LBB1145:
	.loc 2 339 20
	vpermilpd	$5, %ymm8, %ymm9
.LBE1145:
.LBE1144:
.LBB1147:
.LBB1148:
	.loc 2 143 10
	vaddpd	%ymm1, %ymm10, %ymm1
.LBE1148:
.LBE1147:
.LBB1150:
.LBB1151:
	vaddpd	%ymm0, %ymm6, %ymm6
.LBE1151:
.LBE1150:
.LBB1153:
.LBB1132:
	.loc 3 241 19
	vfmaddsub132pd	%ymm13, %ymm15, %ymm4
.LVL253:
.LBE1132:
.LBE1153:
	.loc 1 417 2 is_stmt 1
.LBB1154:
.LBB1155:
	.loc 2 143 3
.LBE1155:
.LBE1154:
	.loc 1 422 2
.LBB1157:
.LBB1034:
	.loc 2 314 3
.LBE1034:
.LBE1157:
	.loc 1 423 2
.LBB1158:
.LBB1053:
	.loc 3 241 3
.LBE1053:
.LBE1158:
	.loc 1 426 2
.LBB1159:
.LBB1037:
	.loc 2 314 3
.LBE1037:
.LBE1159:
	.loc 1 427 2
.LBB1160:
.LBB1059:
	.loc 3 241 3
.LBE1059:
.LBE1160:
	.loc 1 431 2
.LBB1161:
.LBB1093:
	.loc 2 690 3
.LBE1093:
.LBE1161:
	.loc 1 432 2
.LBB1162:
.LBB1096:
	.loc 2 690 3
.LBE1096:
.LBE1162:
	.loc 1 434 2
.LBB1163:
.LBB1105:
	.loc 2 196 3
.LBE1105:
.LBE1163:
	.loc 1 435 2
.LBB1164:
.LBB1152:
	.loc 2 143 3
.LBE1152:
.LBE1164:
	.loc 1 438 2
.LBB1165:
.LBB1056:
	.loc 2 893 3
.LBE1056:
.LBE1165:
	.loc 1 439 2
.LBB1166:
.LBB1167:
	.loc 2 690 3
	.loc 2 690 20 is_stmt 0
	vperm2f128	$1, %ymm14, %ymm14, %ymm15
.LVL254:
.LBE1167:
.LBE1166:
	.loc 1 440 2 is_stmt 1
.LBB1168:
.LBB1169:
	.loc 2 196 3
	.loc 2 196 20 is_stmt 0
	vblendpd	$12, %ymm14, %ymm15, %ymm15
.LVL255:
.LBE1169:
.LBE1168:
	.loc 1 442 2 is_stmt 1
.LBB1170:
.LBB1171:
	.loc 2 339 3
.LBE1171:
.LBE1170:
	.loc 1 443 2
.LBB1173:
.LBB1174:
	.loc 2 314 3
.LBE1174:
.LBE1173:
	.loc 1 444 2
.LBB1176:
.LBB1177:
	.loc 3 241 3
.LBE1177:
.LBE1176:
.LBB1179:
.LBB1172:
	.loc 2 339 20 is_stmt 0
	vpermilpd	$5, %ymm15, %ymm3
.LVL256:
.LBE1172:
.LBE1179:
.LBB1180:
.LBB1175:
	.loc 2 314 10
	vmulpd	%ymm2, %ymm3, %ymm3
.LBE1175:
.LBE1180:
.LBB1181:
.LBB1182:
	.loc 2 690 20
	vperm2f128	$1, %ymm5, %ymm5, %ymm2
.LBE1182:
.LBE1181:
.LBB1184:
.LBB1185:
	.loc 2 196 20
	vblendpd	$12, %ymm5, %ymm2, %ymm2
.LBE1185:
.LBE1184:
.LBB1187:
.LBB1188:
	.loc 2 339 20
	vpermilpd	$0, %ymm2, %ymm5
.LBE1188:
.LBE1187:
.LBB1190:
.LBB1191:
	vpermilpd	$15, %ymm2, %ymm2
.LBE1191:
.LBE1190:
.LBB1193:
.LBB1156:
	.loc 2 143 10
	vaddpd	%ymm4, %ymm7, %ymm7
.LBE1156:
.LBE1193:
.LBB1194:
.LBB1195:
	.loc 2 314 10
	vmulpd	%ymm9, %ymm2, %ymm2
.LBE1195:
.LBE1194:
.LBB1197:
.LBB1178:
	.loc 3 241 19
	vfmaddsub231pd	%ymm15, %ymm13, %ymm3
.LVL257:
.LBE1178:
.LBE1197:
	.loc 1 447 2 is_stmt 1
.LBB1198:
.LBB1199:
	.loc 2 143 3
.LBE1199:
.LBE1198:
	.loc 1 454 2
.LBB1201:
.LBB1040:
	.loc 2 314 3
.LBE1040:
.LBE1201:
	.loc 1 455 2
.LBB1202:
.LBB1062:
	.loc 3 241 3
.LBE1062:
.LBE1202:
	.loc 1 460 2
.LBB1203:
.LBB1043:
	.loc 2 314 3
.LBE1043:
.LBE1203:
	.loc 1 461 2
.LBB1204:
.LBB1065:
	.loc 3 241 3
.LBE1065:
.LBE1204:
	.loc 1 465 2
.LBB1205:
.LBB1118:
	.loc 2 690 3
.LBE1118:
.LBE1205:
	.loc 1 466 2
.LBB1206:
.LBB1139:
	.loc 2 690 3
.LBE1139:
.LBE1206:
	.loc 1 468 2
.LBB1207:
.LBB1143:
	.loc 2 196 3
.LBE1143:
.LBE1207:
	.loc 1 469 2
.LBB1208:
.LBB1149:
	.loc 2 143 3
.LBE1149:
.LBE1208:
	.loc 1 472 2
.LBB1209:
.LBB1068:
	.loc 2 893 3
.LBE1068:
.LBE1209:
	.loc 1 473 2
.LBB1210:
.LBB1183:
	.loc 2 690 3
.LBE1183:
.LBE1210:
	.loc 1 474 2
.LBB1211:
.LBB1186:
	.loc 2 196 3
.LBE1186:
.LBE1211:
	.loc 1 475 2
.LBB1212:
.LBB1189:
	.loc 2 339 3
.LBE1189:
.LBE1212:
	.loc 1 476 2
.LBB1213:
.LBB1192:
	.loc 2 339 3
.LBE1192:
.LBE1213:
	.loc 1 478 2
.LBB1214:
.LBB1136:
	.loc 2 196 3
.LBE1136:
.LBE1214:
	.loc 1 479 2
.LBB1215:
.LBB1146:
	.loc 2 339 3
.LBE1146:
.LBE1215:
	.loc 1 481 2
.LBB1216:
.LBB1196:
	.loc 2 314 3
.LBE1196:
.LBE1216:
	.loc 1 482 2
.LBB1217:
.LBB1218:
	.loc 3 241 3
.LBE1218:
.LBE1217:
.LBB1220:
.LBB1221:
	.loc 2 899 21 is_stmt 0
	vmovupd	%ymm7, (%rdi)
.LVL258:
.LBE1221:
.LBE1220:
.LBB1223:
.LBB1219:
	.loc 3 241 19
	vfmaddsub231pd	%ymm8, %ymm5, %ymm2
.LVL259:
.LBE1219:
.LBE1223:
	.loc 1 484 2 is_stmt 1
.LBB1224:
.LBB1225:
	.loc 2 143 3
.LBE1225:
.LBE1224:
.LBB1227:
.LBB1200:
	.loc 2 143 10 is_stmt 0
	vaddpd	%ymm3, %ymm6, %ymm6
.LBE1200:
.LBE1227:
.LBB1228:
.LBB1226:
	vaddpd	%ymm2, %ymm1, %ymm1
.LVL260:
.LBE1226:
.LBE1228:
	.loc 1 486 2 is_stmt 1
.LBB1229:
.LBB1230:
	.loc 2 1457 3
.LBE1230:
.LBE1229:
	.loc 1 487 2
.LBB1231:
.LBB1232:
	.loc 2 520 3
.LBE1232:
.LBE1231:
	.loc 1 492 2
.LBB1233:
.LBB1222:
	.loc 2 899 3
.LBE1222:
.LBE1233:
	.loc 1 493 2
.LBB1234:
.LBB1235:
	.loc 4 166 3
	.loc 4 166 19 is_stmt 0
	vmovapd	%xmm1, 192(%rdi)
.LVL261:
.LBE1235:
.LBE1234:
	.loc 1 495 2 is_stmt 1
.LBB1236:
.LBB1237:
	.loc 2 899 3
.LBE1237:
.LBE1236:
.LBB1239:
.LBB1240:
	.loc 4 166 19 is_stmt 0
	vextractf128	$0x1, %ymm1, 192(%rsi)
.LVL262:
.LBE1240:
.LBE1239:
.LBB1242:
.LBB1238:
	.loc 2 899 21
	vmovupd	%ymm6, (%rsi)
.LVL263:
.LBE1238:
.LBE1242:
	.loc 1 496 2 is_stmt 1
.LBB1243:
.LBB1241:
	.loc 4 166 3
	vzeroupper
.LVL264:
.LBE1241:
.LBE1243:
	.loc 1 497 1 is_stmt 0
	leave
	.cfi_def_cfa 7, 8
	ret
	.cfi_endproc
.LFE6409:
	.size	double_MVM_non_macro, .-double_MVM_non_macro
	.section	.rodata.cst8,"aM",@progbits,8
	.align 8
.LC1:
	.long	0
	.long	1093567616
	.align 8
.LC5:
	.long	-1598689907
	.long	1051772663
	.section	.rodata.cst16,"aM",@progbits,16
	.align 16
.LC8:
	.long	-1
	.long	2147483647
	.long	0
	.long	0
	.section	.rodata.cst8
	.align 8
.LC9:
	.long	-1629006314
	.long	1020396463
	.text
.Letext0:
	.file 5 "/home/mrahman/spack/opt/spack/linux-centos7-haswell/gcc-4.8.5/gcc-12.1.0-rfwstyfbaftyze73vaufakvxclc3eqpm/lib/gcc/x86_64-pc-linux-gnu/12.1.0/include/stddef.h"
	.file 6 "/usr/include/bits/types.h"
	.file 7 "/usr/include/time.h"
	.file 8 "/usr/include/bits/time.h"
	.file 9 "/usr/include/sys/time.h"
	.file 10 "/usr/include/bits/sched.h"
	.file 11 "suN_types.h"
	.file 12 "memory.h"
	.file 13 "error.h"
	.file 14 "logger.h"
	.file 15 "header.h"
	.file 16 "/home/mrahman/spack/opt/spack/linux-centos7-haswell/gcc-4.8.5/gcc-12.1.0-rfwstyfbaftyze73vaufakvxclc3eqpm/lib/gcc/x86_64-pc-linux-gnu/12.1.0/include/omp.h"
	.file 17 "/usr/include/sched.h"
	.file 18 "<built-in>"
	.section	.note.GNU-stack,"",@progbits
