	.file	"avx_complex_vec_align_load.c"
	.text
.Ltext0:
	.file 1 "avx_complex_vec_align_load.c"
	.section	.rodata.str1.8,"aMS",@progbits,1
	.align 8
.LC0:
	.string	"WARNING: Could not set CPU Affinity, continuing..."
	.align 8
.LC2:
	.string	"CPU time (clock)                = %12.4g sec\n"
	.section	.rodata.str1.1,"aMS",@progbits,1
.LC3:
	.string	"MVM_MACRO"
	.section	.rodata.str1.8
	.align 8
.LC4:
	.string	"wall clock time (omp_get_wtime) = %12.4g sec\n"
	.align 8
.LC6:
	.string	"wall clock time (gettimeofday)  = %12.4g sec\n\n"
	.section	.rodata.str1.1
.LC7:
	.string	"THETA_T_MULTIPLY"
	.section	.rodata.str1.8
	.align 8
.LC10:
	.string	" are not equal ==> Test Failed!"
	.align 8
.LC11:
	.string	"First Vector in double_MVM_macro and theta_T_multiply"
	.align 8
.LC12:
	.string	" are not equal ==>Test Failed!"
	.align 8
.LC13:
	.string	"Second Vector in double_MVM_macro and theta_T_multiply"
	.text
	.globl	main
	.type	main, @function
main:
.LFB6408:
	.loc 1 99 1
	.cfi_startproc
	leaq	8(%rsp), %r10
	.cfi_def_cfa 10, 0
	andq	$-32, %rsp
	pushq	-8(%r10)
	pushq	%rbp
	movq	%rsp, %rbp
	.cfi_escape 0x10,0x6,0x2,0x76,0
	pushq	%r15
	pushq	%r14
	pushq	%r13
	pushq	%r12
	pushq	%r10
	.cfi_escape 0xf,0x3,0x76,0x58,0x6
	.cfi_escape 0x10,0xf,0x2,0x76,0x78
	.cfi_escape 0x10,0xe,0x2,0x76,0x70
	.cfi_escape 0x10,0xd,0x2,0x76,0x68
	.cfi_escape 0x10,0xc,0x2,0x76,0x60
	pushq	%rbx
	subq	$320, %rsp
	.cfi_escape 0x10,0x3,0x2,0x76,0x50
	.loc 1 100 2
	.loc 1 101 2
.LVL0:
	.loc 1 102 2
	.loc 1 103 2
	.loc 1 104 2
	.loc 1 105 2
	.loc 1 106 2
	.loc 1 109 1
	.loc 1 110 1
	.loc 1 112 5
	.loc 1 117 1
	.loc 1 118 1
	.loc 1 118 1
	leaq	-216(%rbp), %rdx
	movl	$15, %ecx
	movl	$0, %eax
	movq	%rdx, %rdi
	rep stosq
	.loc 1 118 1
	.loc 1 119 1
.LBB441:
	.loc 1 119 1
.LVL1:
	.loc 1 119 1
	movq	$1, -224(%rbp)
.LBE441:
	.loc 1 120 1
	.loc 1 120 4 is_stmt 0
	leaq	-224(%rbp), %rdx
	movl	$128, %esi
	movl	$0, %edi
	call	sched_setaffinity
.LVL2:
	.loc 1 120 3
	cmpl	$-1, %eax
	je	.L78
.L2:
	.loc 1 123 2 is_stmt 1
	.loc 1 124 2
	.loc 1 127 3
	.loc 1 127 8 is_stmt 0
	movl	$8, %esi
	movabsq	$14400000000, %rbx
	movq	%rbx, %rdi
	call	amalloc
.LVL3:
	movq	%rax, %r12
.LVL4:
	.loc 1 128 3 is_stmt 1
	.loc 1 128 8 is_stmt 0
	movl	$8, %esi
	movq	%rbx, %rdi
	call	amalloc
.LVL5:
	movq	%rax, %r15
	movq	%rax, -336(%rbp)
.LVL6:
	.loc 1 130 3 is_stmt 1
	.loc 1 130 8 is_stmt 0
	movl	$8, %esi
	movabsq	$4800000000, %rbx
	movq	%rbx, %rdi
	call	amalloc
.LVL7:
	movq	%rax, -248(%rbp)
.LVL8:
	.loc 1 131 3 is_stmt 1
	.loc 1 131 8 is_stmt 0
	movl	$8, %esi
	movq	%rbx, %rdi
	call	amalloc
.LVL9:
	movq	%rax, -256(%rbp)
.LVL10:
	.loc 1 132 3 is_stmt 1
	.loc 1 132 9 is_stmt 0
	movl	$8, %esi
	movq	%rbx, %rdi
	call	amalloc
.LVL11:
	movq	%rax, %r14
.LVL12:
	.loc 1 133 3 is_stmt 1
	.loc 1 133 10 is_stmt 0
	movl	$8, %esi
	movq	%rbx, %rdi
	call	amalloc
.LVL13:
	movq	%rax, -328(%rbp)
.LVL14:
	.loc 1 134 3 is_stmt 1
	.loc 1 134 9 is_stmt 0
	movl	$8, %esi
	movq	%rbx, %rdi
	call	amalloc
.LVL15:
	movq	%rax, -296(%rbp)
.LVL16:
	.loc 1 135 3 is_stmt 1
	.loc 1 135 10 is_stmt 0
	movl	$8, %esi
	movq	%rbx, %rdi
	call	amalloc
.LVL17:
	movq	%rax, -304(%rbp)
.LVL18:
	.loc 1 136 3 is_stmt 1
	.loc 1 136 10 is_stmt 0
	movl	$8, %esi
	movq	%rbx, %rdi
	call	amalloc
.LVL19:
	movq	%rax, -344(%rbp)
.LVL20:
	.loc 1 137 3 is_stmt 1
	.loc 1 137 10 is_stmt 0
	movl	$8, %esi
	movq	%rbx, %rdi
	call	amalloc
.LVL21:
	movq	%rax, -352(%rbp)
.LVL22:
	.loc 1 138 3 is_stmt 1
	.loc 1 138 10 is_stmt 0
	movl	$8, %esi
	movq	%rbx, %rdi
	call	amalloc
.LVL23:
	movq	%rax, -312(%rbp)
.LVL24:
	.loc 1 139 3 is_stmt 1
	.loc 1 139 10 is_stmt 0
	movl	$8, %esi
	movq	%rbx, %rdi
	call	amalloc
.LVL25:
	movq	%rax, -320(%rbp)
.LVL26:
	.loc 1 141 3 is_stmt 1
	.loc 1 142 3
	.loc 1 151 3
	.loc 1 151 13
	movq	%r15, -280(%rbp)
	leaq	144(%r15), %r13
	.loc 1 139 10 is_stmt 0
	movl	$0, %eax
.LVL27:
	movq	%r12, -232(%rbp)
	movq	%r14, -240(%rbp)
	movq	%rax, %r15
.LVL28:
	jmp	.L3
.LVL29:
.L78:
	.loc 1 121 5 is_stmt 1
	movl	$.LC0, %edi
	call	puts
.LVL30:
	jmp	.L2
.LVL31:
.L5:
	.loc 1 161 7 discriminator 3
	.loc 1 161 22 is_stmt 0 discriminator 3
	movl	$5, %edi
	call	my_rand
.LVL32:
	.loc 1 161 20 discriminator 3
	vmovsd	%xmm0, (%rbx)
	vmovsd	%xmm1, 8(%rbx)
	.loc 1 159 20 is_stmt 1 discriminator 3
.LVL33:
	.loc 1 159 15 discriminator 3
	addq	$16, %rbx
.LVL34:
	cmpq	%r13, %rbx
	jne	.L5
	.loc 1 151 19 discriminator 2
.LVL35:
	.loc 1 151 13 discriminator 2
	addq	$144, %r13
.LVL36:
	addq	$48, %r15
.LVL37:
	movabsq	$4800000000, %rax
	cmpq	%rax, %r15
	je	.L79
.LVL38:
.L3:
	.loc 1 153 15
	.loc 1 155 10 is_stmt 0
	movq	-248(%rbp), %rax
	leaq	(%r15,%rax), %r14
	.loc 1 156 10
	movq	-256(%rbp), %rax
	leaq	(%r15,%rax), %r12
	movl	$0, %ebx
.LVL39:
.L4:
	.loc 1 155 7 is_stmt 1 discriminator 3
	.loc 1 155 22 is_stmt 0 discriminator 3
	movl	$5, %edi
	call	my_rand
.LVL40:
	.loc 1 155 20 discriminator 3
	vmovsd	%xmm0, (%r14,%rbx)
	vmovsd	%xmm1, 8(%r14,%rbx)
	.loc 1 156 7 is_stmt 1 discriminator 3
	.loc 1 156 22 is_stmt 0 discriminator 3
	movl	$5, %edi
	call	my_rand
.LVL41:
	.loc 1 156 20 discriminator 3
	vmovsd	%xmm0, (%r12,%rbx)
	vmovsd	%xmm1, 8(%r12,%rbx)
	.loc 1 153 20 is_stmt 1 discriminator 3
.LVL42:
	.loc 1 153 15 discriminator 3
	addq	$16, %rbx
.LVL43:
	cmpq	$48, %rbx
	jne	.L4
	leaq	-144(%r13), %rbx
.LVL44:
	jmp	.L5
.LVL45:
.L79:
	.loc 1 151 13 is_stmt 0
	movq	-232(%rbp), %r12
	movq	-240(%rbp), %r14
	movq	%r12, %r8
	movq	-336(%rbp), %rdi
	movl	$0, %esi
	.loc 1 172 11
	movq	%rax, %r9
	movq	-328(%rbp), %rbx
.LVL46:
	movq	-296(%rbp), %r13
	movq	-304(%rbp), %r15
.LVL47:
	jmp	.L6
.LVL48:
.L8:
	.loc 1 182 7 is_stmt 1 discriminator 3
	vmovsd	(%rcx,%rax), %xmm1
	vmovsd	8(%rcx,%rax), %xmm0
	.loc 1 182 20 is_stmt 0 discriminator 3
	vmovsd	%xmm1, (%rdx,%rax)
	vmovsd	%xmm0, 8(%rdx,%rax)
	.loc 1 180 20 is_stmt 1 discriminator 3
.LVL49:
	.loc 1 180 15 discriminator 3
	addq	$16, %rax
.LVL50:
	cmpq	$144, %rax
	jne	.L8
	.loc 1 185 5
.LVL51:
.LBB442:
.LBB443:
	.file 2 "/home/mrahman/spack/opt/spack/linux-centos7-haswell/gcc-4.8.5/gcc-12.1.0-rfwstyfbaftyze73vaufakvxclc3eqpm/lib/gcc/x86_64-pc-linux-gnu/12.1.0/include/avxintrin.h"
	.loc 2 869 3
.LBE443:
.LBE442:
	.loc 1 185 5
.LBB444:
.LBB445:
	.loc 2 339 3
	.loc 2 339 20 is_stmt 0
	vpermilpd	$0, (%r12), %ymm14
.LVL52:
.LBE445:
.LBE444:
	.loc 1 185 5 is_stmt 1
.LBB446:
.LBB447:
	.loc 2 339 3
	.loc 2 339 20 is_stmt 0
	vpermilpd	$15, (%r12), %ymm0
.LVL53:
.LBE447:
.LBE446:
	.loc 1 185 5 is_stmt 1
.LBB448:
.LBB449:
	.loc 2 893 3
.LBE449:
.LBE448:
	.loc 1 185 5
.LBB450:
.LBB451:
	.loc 2 339 3
	.loc 2 339 20 is_stmt 0
	vpermilpd	$0, 48(%r12), %ymm13
.LVL54:
.LBE451:
.LBE450:
	.loc 1 185 5 is_stmt 1
.LBB452:
.LBB453:
	.loc 2 339 3
	.loc 2 339 20 is_stmt 0
	vpermilpd	$15, 48(%r12), %ymm4
.LVL55:
.LBE453:
.LBE452:
	.loc 1 185 5 is_stmt 1
.LBB454:
.LBB455:
	.loc 2 869 3
.LBE455:
.LBE454:
	.loc 1 185 5
.LBB456:
.LBB457:
	.loc 2 339 3
	.loc 2 339 20 is_stmt 0
	vpermilpd	$0, 96(%r12), %ymm9
.LVL56:
.LBE457:
.LBE456:
	.loc 1 185 5 is_stmt 1
.LBB458:
.LBB459:
	.loc 2 339 3
	.loc 2 339 20 is_stmt 0
	vpermilpd	$15, 96(%r12), %ymm6
.LVL57:
.LBE459:
.LBE458:
	.loc 1 185 5 is_stmt 1
.LBB460:
.LBB461:
	.loc 2 869 3
	.loc 2 869 10 is_stmt 0
	vmovapd	(%r14), %ymm1
.LVL58:
.LBE461:
.LBE460:
	.loc 1 185 5 is_stmt 1
.LBB462:
.LBB463:
	.loc 2 339 3
	.loc 2 339 20 is_stmt 0
	vpermilpd	$5, %ymm1, %ymm10
.LVL59:
.LBE463:
.LBE462:
	.loc 1 185 5 is_stmt 1
.LBB464:
.LBB465:
	.loc 2 869 3
.LBE465:
.LBE464:
	.loc 1 185 5
.LBB466:
.LBB467:
	.loc 2 339 3
	.loc 2 339 20 is_stmt 0
	vpermilpd	$5, (%rbx), %ymm11
.LVL60:
.LBE467:
.LBE466:
	.loc 1 185 5 is_stmt 1
.LBB468:
.LBB469:
	.loc 2 314 3
.LBE469:
.LBE468:
	.loc 1 185 5
.LBB471:
.LBB472:
	.file 3 "/home/mrahman/spack/opt/spack/linux-centos7-haswell/gcc-4.8.5/gcc-12.1.0-rfwstyfbaftyze73vaufakvxclc3eqpm/lib/gcc/x86_64-pc-linux-gnu/12.1.0/include/fmaintrin.h"
	.loc 3 241 3
.LBE472:
.LBE471:
.LBB474:
.LBB470:
	.loc 2 314 10 is_stmt 0
	vmulpd	%ymm10, %ymm0, %ymm3
.LVL61:
.LBE470:
.LBE474:
.LBB475:
.LBB473:
	.loc 3 241 19
	vfmaddsub231pd	%ymm1, %ymm14, %ymm3
.LVL62:
.LBE473:
.LBE475:
	.loc 1 185 5 is_stmt 1
.LBB476:
.LBB477:
	.loc 2 314 3
.LBE477:
.LBE476:
	.loc 1 185 5
.LBB479:
.LBB480:
	.loc 3 241 3
.LBE480:
.LBE479:
.LBB482:
.LBB478:
	.loc 2 314 10 is_stmt 0
	vmulpd	%ymm10, %ymm4, %ymm2
.LVL63:
.LBE478:
.LBE482:
.LBB483:
.LBB481:
	.loc 3 241 19
	vfmaddsub231pd	%ymm1, %ymm13, %ymm2
.LVL64:
.LBE481:
.LBE483:
	.loc 1 185 5 is_stmt 1
.LBB484:
.LBB485:
	.loc 2 690 3
	.loc 2 690 20 is_stmt 0
	vperm2f128	$2, %ymm3, %ymm2, %ymm7
.LVL65:
.LBE485:
.LBE484:
	.loc 1 185 5 is_stmt 1
.LBB486:
.LBB487:
	.loc 2 690 3
	.loc 2 690 20 is_stmt 0
	vperm2f128	$1, %ymm3, %ymm3, %ymm3
.LVL66:
.LBE487:
.LBE486:
	.loc 1 185 5 is_stmt 1
.LBB488:
.LBB489:
	.loc 2 196 3
	.loc 2 196 20 is_stmt 0
	vblendpd	$12, %ymm2, %ymm3, %ymm3
.LVL67:
.LBE489:
.LBE488:
	.loc 1 185 5 is_stmt 1
.LBB490:
.LBB491:
	.loc 2 143 3
.LBE491:
.LBE490:
	.loc 1 185 5
.LBB493:
.LBB494:
	.loc 2 893 3
.LBE494:
.LBE493:
	.loc 1 185 5
.LBB495:
.LBB496:
	.loc 2 690 3
	.loc 2 690 20 is_stmt 0
	vmovupd	16(%r12), %ymm5
	vperm2f128	$1, %ymm5, %ymm5, %ymm2
.LVL68:
.LBE496:
.LBE495:
	.loc 1 185 5 is_stmt 1
.LBB497:
.LBB498:
	.loc 2 869 3
.LBE498:
.LBE497:
	.loc 1 185 5
.LBB499:
.LBB500:
	.loc 2 196 3
	.loc 2 196 20 is_stmt 0
	vblendpd	$12, 64(%r12), %ymm2, %ymm2
.LVL69:
.LBE500:
.LBE499:
	.loc 1 185 5 is_stmt 1
.LBB501:
.LBB502:
	.loc 2 893 3
	.loc 2 893 10 is_stmt 0
	vmovupd	16(%r14), %ymm5
.LVL70:
.LBE502:
.LBE501:
	.loc 1 185 5 is_stmt 1
.LBB503:
.LBB504:
	.loc 2 690 3
	.loc 2 690 20 is_stmt 0
	vperm2f128	$1, %ymm5, %ymm5, %ymm8
.LVL71:
.LBE504:
.LBE503:
	.loc 1 185 5 is_stmt 1
.LBB505:
.LBB506:
	.loc 2 196 3
	.loc 2 196 20 is_stmt 0
	vblendpd	$12, %ymm5, %ymm8, %ymm5
.LVL72:
.LBE506:
.LBE505:
	.loc 1 185 5 is_stmt 1
.LBB507:
.LBB508:
	.loc 2 339 3
	.loc 2 339 20 is_stmt 0
	vpermilpd	$0, %ymm2, %ymm12
.LVL73:
.LBE508:
.LBE507:
	.loc 1 185 5 is_stmt 1
.LBB509:
.LBB510:
	.loc 2 339 3
	.loc 2 339 20 is_stmt 0
	vpermilpd	$15, %ymm2, %ymm2
.LVL74:
.LBE510:
.LBE509:
	.loc 1 185 5 is_stmt 1
.LBB511:
.LBB512:
	.loc 2 339 3
.LBE512:
.LBE511:
	.loc 1 185 5
.LBB514:
.LBB515:
	.loc 2 314 3
.LBE515:
.LBE514:
	.loc 1 185 5
.LBB517:
.LBB518:
	.loc 3 241 3
.LBE518:
.LBE517:
.LBB520:
.LBB513:
	.loc 2 339 20 is_stmt 0
	vpermilpd	$5, %ymm5, %ymm15
.LBE513:
.LBE520:
.LBB521:
.LBB516:
	.loc 2 314 10
	vmulpd	%ymm2, %ymm15, %ymm15
.LBE516:
.LBE521:
.LBB522:
.LBB519:
	.loc 3 241 19
	vfmaddsub132pd	%ymm12, %ymm15, %ymm5
.LVL75:
.LBE519:
.LBE522:
	.loc 1 185 5 is_stmt 1
.LBB523:
.LBB524:
	.loc 2 143 3
.LBE524:
.LBE523:
	.loc 1 185 5
.LBB526:
.LBB527:
	.loc 2 314 3
.LBE527:
.LBE526:
	.loc 1 185 5
.LBB529:
.LBB530:
	.loc 3 241 3
.LBE530:
.LBE529:
.LBB532:
.LBB528:
	.loc 2 314 10 is_stmt 0
	vmulpd	%ymm11, %ymm0, %ymm0
.LVL76:
.LBE528:
.LBE532:
.LBB533:
.LBB531:
	.loc 3 241 19
	vfmaddsub231pd	(%rbx), %ymm14, %ymm0
.LVL77:
.LBE531:
.LBE533:
	.loc 1 185 5 is_stmt 1
.LBB534:
.LBB535:
	.loc 2 314 3
.LBE535:
.LBE534:
	.loc 1 185 5
.LBB537:
.LBB538:
	.loc 3 241 3
.LBE538:
.LBE537:
.LBB540:
.LBB536:
	.loc 2 314 10 is_stmt 0
	vmulpd	%ymm11, %ymm4, %ymm4
.LVL78:
.LBE536:
.LBE540:
.LBB541:
.LBB539:
	.loc 3 241 19
	vfmaddsub132pd	(%rbx), %ymm4, %ymm13
.LVL79:
.LBE539:
.LBE541:
	.loc 1 185 5 is_stmt 1
.LBB542:
.LBB543:
	.loc 2 690 3
	.loc 2 690 20 is_stmt 0
	vperm2f128	$2, %ymm0, %ymm13, %ymm4
.LVL80:
.LBE543:
.LBE542:
	.loc 1 185 5 is_stmt 1
.LBB544:
.LBB545:
	.loc 2 690 3
	.loc 2 690 20 is_stmt 0
	vperm2f128	$1, %ymm0, %ymm0, %ymm0
.LVL81:
.LBE545:
.LBE544:
	.loc 1 185 5 is_stmt 1
.LBB546:
.LBB547:
	.loc 2 196 3
	.loc 2 196 20 is_stmt 0
	vblendpd	$12, %ymm13, %ymm0, %ymm0
.LVL82:
.LBE547:
.LBE546:
	.loc 1 185 5 is_stmt 1
.LBB548:
.LBB549:
	.loc 2 143 3
.LBE549:
.LBE548:
	.loc 1 185 5
.LBB551:
.LBB552:
	.loc 2 893 3
	.loc 2 893 10 is_stmt 0
	vmovupd	16(%rbx), %ymm14
.LVL83:
.LBE552:
.LBE551:
	.loc 1 185 5 is_stmt 1
.LBB553:
.LBB554:
	.loc 2 690 3
	.loc 2 690 20 is_stmt 0
	vperm2f128	$1, %ymm14, %ymm14, %ymm15
.LVL84:
.LBE554:
.LBE553:
	.loc 1 185 5 is_stmt 1
.LBB555:
.LBB556:
	.loc 2 196 3
	.loc 2 196 20 is_stmt 0
	vblendpd	$12, %ymm14, %ymm15, %ymm15
.LVL85:
.LBE556:
.LBE555:
	.loc 1 185 5 is_stmt 1
.LBB557:
.LBB558:
	.loc 2 339 3
.LBE558:
.LBE557:
	.loc 1 185 5
.LBB560:
.LBB561:
	.loc 2 314 3
.LBE561:
.LBE560:
	.loc 1 185 5
.LBB563:
.LBB564:
	.loc 3 241 3
.LBE564:
.LBE563:
.LBB566:
.LBB559:
	.loc 2 339 20 is_stmt 0
	vpermilpd	$5, %ymm15, %ymm13
.LVL86:
.LBE559:
.LBE566:
.LBB567:
.LBB562:
	.loc 2 314 10
	vmulpd	%ymm2, %ymm13, %ymm13
.LBE562:
.LBE567:
.LBB568:
.LBB565:
	.loc 3 241 19
	vfmaddsub231pd	%ymm15, %ymm12, %ymm13
.LVL87:
.LBE565:
.LBE568:
	.loc 1 185 5 is_stmt 1
.LBB569:
.LBB570:
	.loc 2 143 3
.LBE570:
.LBE569:
	.loc 1 185 5
.LBB572:
.LBB573:
	.loc 2 314 3
.LBE573:
.LBE572:
	.loc 1 185 5
.LBB575:
.LBB576:
	.loc 3 241 3
.LBE576:
.LBE575:
.LBB578:
.LBB574:
	.loc 2 314 10 is_stmt 0
	vmulpd	%ymm10, %ymm6, %ymm10
.LVL88:
.LBE574:
.LBE578:
.LBB579:
.LBB577:
	.loc 3 241 19
	vfmaddsub132pd	%ymm9, %ymm10, %ymm1
.LVL89:
.LBE577:
.LBE579:
	.loc 1 185 5 is_stmt 1
.LBB580:
.LBB581:
	.loc 2 314 3
.LBE581:
.LBE580:
	.loc 1 185 5
.LBB583:
.LBB584:
	.loc 3 241 3
.LBE584:
.LBE583:
.LBB586:
.LBB582:
	.loc 2 314 10 is_stmt 0
	vmulpd	%ymm11, %ymm6, %ymm6
.LVL90:
.LBE582:
.LBE586:
.LBB587:
.LBB585:
	.loc 3 241 19
	vfmaddsub132pd	(%rbx), %ymm6, %ymm9
.LVL91:
.LBE585:
.LBE587:
	.loc 1 185 5 is_stmt 1
.LBB588:
.LBB589:
	.loc 2 690 3
	.loc 2 690 20 is_stmt 0
	vperm2f128	$2, %ymm1, %ymm9, %ymm6
.LVL92:
.LBE589:
.LBE588:
	.loc 1 185 5 is_stmt 1
.LBB590:
.LBB591:
	.loc 2 690 3
	.loc 2 690 20 is_stmt 0
	vperm2f128	$1, %ymm1, %ymm1, %ymm1
.LVL93:
.LBE591:
.LBE590:
	.loc 1 185 5 is_stmt 1
.LBB592:
.LBB593:
	.loc 2 196 3
	.loc 2 196 20 is_stmt 0
	vblendpd	$12, %ymm9, %ymm1, %ymm1
.LVL94:
.LBE593:
.LBE592:
	.loc 1 185 5 is_stmt 1
.LBB594:
.LBB595:
	.loc 2 143 3
.LBE595:
.LBE594:
	.loc 1 185 5
.LBB597:
.LBB598:
	.loc 2 893 3
	.loc 2 893 10 is_stmt 0
	vmovupd	112(%r12), %ymm9
.LVL95:
.LBE598:
.LBE597:
	.loc 1 185 5 is_stmt 1
.LBB599:
.LBB600:
	.loc 2 690 3
	.loc 2 690 20 is_stmt 0
	vperm2f128	$1, %ymm9, %ymm9, %ymm2
.LVL96:
.LBE600:
.LBE599:
	.loc 1 185 5 is_stmt 1
.LBB601:
.LBB602:
	.loc 2 196 3
	.loc 2 196 20 is_stmt 0
	vblendpd	$12, %ymm9, %ymm2, %ymm2
.LVL97:
.LBE602:
.LBE601:
	.loc 1 185 5 is_stmt 1
.LBB603:
.LBB604:
	.loc 2 339 3
.LBE604:
.LBE603:
	.loc 1 185 5
.LBB606:
.LBB607:
	.loc 2 339 3
.LBE607:
.LBE606:
	.loc 1 185 5
.LBB609:
.LBB610:
	.loc 2 196 3
	.loc 2 196 20 is_stmt 0
	vblendpd	$12, %ymm14, %ymm8, %ymm8
.LVL98:
.LBE610:
.LBE609:
	.loc 1 185 5 is_stmt 1
.LBB611:
.LBB612:
	.loc 2 339 3
.LBE612:
.LBE611:
	.loc 1 185 5
.LBB614:
.LBB615:
	.loc 2 314 3
.LBE615:
.LBE614:
	.loc 1 185 5
.LBB617:
.LBB618:
	.loc 3 241 3
.LBE618:
.LBE617:
.LBB620:
.LBB605:
	.loc 2 339 20 is_stmt 0
	vpermilpd	$0, %ymm2, %ymm9
.LBE605:
.LBE620:
.LBB621:
.LBB608:
	vpermilpd	$15, %ymm2, %ymm2
.LBE608:
.LBE621:
.LBB622:
.LBB613:
	vpermilpd	$5, %ymm8, %ymm10
.LVL99:
.LBE613:
.LBE622:
.LBB623:
.LBB616:
	.loc 2 314 10
	vmulpd	%ymm10, %ymm2, %ymm2
.LBE616:
.LBE623:
.LBB624:
.LBB619:
	.loc 3 241 19
	vfmaddsub231pd	%ymm8, %ymm9, %ymm2
.LVL100:
.LBE619:
.LBE624:
	.loc 1 185 5 is_stmt 1
.LBB625:
.LBB626:
	.loc 2 143 3
.LBE626:
.LBE625:
.LBB628:
.LBB596:
	.loc 2 143 10 is_stmt 0
	vaddpd	%ymm1, %ymm6, %ymm1
.LVL101:
.LBE596:
.LBE628:
.LBB629:
.LBB627:
	vaddpd	%ymm2, %ymm1, %ymm1
.LVL102:
.LBE627:
.LBE629:
	.loc 1 185 5 is_stmt 1
.LBB630:
.LBB631:
	.loc 2 1457 3
.LBE631:
.LBE630:
	.loc 1 185 5
.LBB632:
.LBB633:
	.loc 2 520 3
.LBE633:
.LBE632:
	.loc 1 185 5
.LBB634:
.LBB635:
	.loc 2 899 3
.LBE635:
.LBE634:
.LBB637:
.LBB492:
	.loc 2 143 10 is_stmt 0
	vaddpd	%ymm3, %ymm7, %ymm7
.LVL103:
.LBE492:
.LBE637:
.LBB638:
.LBB525:
	vaddpd	%ymm5, %ymm7, %ymm7
.LVL104:
.LBE525:
.LBE638:
.LBB639:
.LBB636:
	.loc 2 899 21
	vmovupd	%ymm7, 0(%r13,%rsi)
.LVL105:
.LBE636:
.LBE639:
	.loc 1 185 5 is_stmt 1
.LBB640:
.LBB641:
	.file 4 "/home/mrahman/spack/opt/spack/linux-centos7-haswell/gcc-4.8.5/gcc-12.1.0-rfwstyfbaftyze73vaufakvxclc3eqpm/lib/gcc/x86_64-pc-linux-gnu/12.1.0/include/emmintrin.h"
	.loc 4 166 3
	.loc 4 166 19 is_stmt 0
	vmovapd	%xmm1, 32(%r13,%rsi)
.LVL106:
.LBE641:
.LBE640:
	.loc 1 185 5 is_stmt 1
.LBB642:
.LBB643:
	.loc 2 899 3
.LBE643:
.LBE642:
.LBB645:
.LBB550:
	.loc 2 143 10 is_stmt 0
	vaddpd	%ymm0, %ymm4, %ymm4
.LVL107:
.LBE550:
.LBE645:
.LBB646:
.LBB571:
	vaddpd	%ymm13, %ymm4, %ymm4
.LVL108:
.LBE571:
.LBE646:
.LBB647:
.LBB644:
	.loc 2 899 21
	vmovupd	%ymm4, (%r15,%rsi)
.LVL109:
.LBE644:
.LBE647:
	.loc 1 185 5 is_stmt 1
.LBB648:
.LBB649:
	.loc 4 166 3
	.loc 4 166 19 is_stmt 0
	vextractf128	$0x1, %ymm1, 32(%r15,%rsi)
.LVL110:
.LBE649:
.LBE648:
	.loc 1 185 61 is_stmt 1
	.loc 1 172 17
	.loc 1 172 11
	addq	$144, %rdi
	addq	$144, %r8
	addq	$48, %rsi
.LVL111:
	cmpq	%r9, %rsi
	je	.L9
.LVL112:
.L6:
	.loc 1 174 15
	.loc 1 176 26 is_stmt 0
	movq	-248(%rbp), %rax
	leaq	(%rax,%rsi), %r11
	.loc 1 176 11
	leaq	(%rsi,%r14), %r10
	.loc 1 177 27
	movq	-256(%rbp), %rax
	leaq	(%rax,%rsi), %rcx
	.loc 1 177 12
	leaq	(%rsi,%rbx), %rdx
	movl	$0, %eax
.LVL113:
.L7:
	.loc 1 176 7 is_stmt 1 discriminator 3
	vmovsd	(%r11,%rax), %xmm1
	vmovsd	8(%r11,%rax), %xmm0
	.loc 1 176 21 is_stmt 0 discriminator 3
	vmovsd	%xmm1, (%r10,%rax)
	vmovsd	%xmm0, 8(%r10,%rax)
	.loc 1 177 7 is_stmt 1 discriminator 3
	vmovsd	(%rcx,%rax), %xmm1
	vmovsd	8(%rcx,%rax), %xmm0
	.loc 1 177 22 is_stmt 0 discriminator 3
	vmovsd	%xmm1, (%rdx,%rax)
	vmovsd	%xmm0, 8(%rdx,%rax)
	.loc 1 174 20 is_stmt 1 discriminator 3
.LVL114:
	.loc 1 174 15 discriminator 3
	addq	$16, %rax
.LVL115:
	cmpq	$48, %rax
	jne	.L7
	.loc 1 182 25 is_stmt 0
	movq	%rdi, %rcx
	.loc 1 182 10
	movq	%r8, %rdx
	movl	$0, %eax
.LVL116:
	jmp	.L8
.LVL117:
.L9:
	.loc 1 190 3 is_stmt 1
	movl	$0, %esi
.LVL118:
	leaq	-64(%rbp), %rdi
	call	gettimeofday
.LVL119:
	.loc 1 192 5
	.loc 1 192 9 is_stmt 0
	call	omp_get_wtime
.LVL120:
	vmovsd	%xmm0, -232(%rbp)
.LVL121:
	.loc 1 194 3 is_stmt 1
	.loc 1 194 6 is_stmt 0
	call	clock
.LVL122:
	.loc 1 196 1 is_stmt 1
	.loc 1 196 11
	.loc 1 194 6 is_stmt 0
	movq	%r12, %r8
	movq	-336(%rbp), %rdi
	movl	$0, %esi
	.loc 1 196 11
	movabsq	$4800000000, %r9
	movq	-296(%rbp), %r13
	movq	-304(%rbp), %r15
	movq	%rax, -240(%rbp)
.LVL123:
	movq	-328(%rbp), %rbx
	jmp	.L10
.LVL124:
.L12:
	.loc 1 206 7 is_stmt 1 discriminator 3
	vmovsd	(%rcx,%rax), %xmm1
	vmovsd	8(%rcx,%rax), %xmm0
	.loc 1 206 20 is_stmt 0 discriminator 3
	vmovsd	%xmm1, (%rdx,%rax)
	vmovsd	%xmm0, 8(%rdx,%rax)
	.loc 1 204 20 is_stmt 1 discriminator 3
.LVL125:
	.loc 1 204 15 discriminator 3
	addq	$16, %rax
.LVL126:
	cmpq	$144, %rax
	jne	.L12
	.loc 1 209 5 discriminator 2
#APP
# 209 "avx_complex_vec_align_load.c" 1
	# LLVM-MCA-BEGIN double_MVM_macro
# 0 "" 2
	.loc 1 210 9 discriminator 2
.LVL127:
#NO_APP
.LBB650:
.LBB651:
	.loc 2 869 3 discriminator 2
.LBE651:
.LBE650:
	.loc 1 210 9 discriminator 2
.LBB652:
.LBB653:
	.loc 2 339 3 discriminator 2
	.loc 2 339 20 is_stmt 0 discriminator 2
	vpermilpd	$0, (%r12), %ymm14
.LVL128:
.LBE653:
.LBE652:
	.loc 1 210 9 is_stmt 1 discriminator 2
.LBB654:
.LBB655:
	.loc 2 339 3 discriminator 2
	.loc 2 339 20 is_stmt 0 discriminator 2
	vpermilpd	$15, (%r12), %ymm0
.LVL129:
.LBE655:
.LBE654:
	.loc 1 210 9 is_stmt 1 discriminator 2
.LBB656:
.LBB657:
	.loc 2 893 3 discriminator 2
.LBE657:
.LBE656:
	.loc 1 210 9 discriminator 2
.LBB658:
.LBB659:
	.loc 2 339 3 discriminator 2
	.loc 2 339 20 is_stmt 0 discriminator 2
	vpermilpd	$0, 48(%r12), %ymm13
.LVL130:
.LBE659:
.LBE658:
	.loc 1 210 9 is_stmt 1 discriminator 2
.LBB660:
.LBB661:
	.loc 2 339 3 discriminator 2
	.loc 2 339 20 is_stmt 0 discriminator 2
	vpermilpd	$15, 48(%r12), %ymm4
.LVL131:
.LBE661:
.LBE660:
	.loc 1 210 9 is_stmt 1 discriminator 2
.LBB662:
.LBB663:
	.loc 2 869 3 discriminator 2
.LBE663:
.LBE662:
	.loc 1 210 9 discriminator 2
.LBB664:
.LBB665:
	.loc 2 339 3 discriminator 2
	.loc 2 339 20 is_stmt 0 discriminator 2
	vpermilpd	$0, 96(%r12), %ymm9
.LVL132:
.LBE665:
.LBE664:
	.loc 1 210 9 is_stmt 1 discriminator 2
.LBB666:
.LBB667:
	.loc 2 339 3 discriminator 2
	.loc 2 339 20 is_stmt 0 discriminator 2
	vpermilpd	$15, 96(%r12), %ymm6
.LVL133:
.LBE667:
.LBE666:
	.loc 1 210 9 is_stmt 1 discriminator 2
.LBB668:
.LBB669:
	.loc 2 869 3 discriminator 2
	.loc 2 869 10 is_stmt 0 discriminator 2
	vmovapd	(%r14), %ymm1
.LVL134:
.LBE669:
.LBE668:
	.loc 1 210 9 is_stmt 1 discriminator 2
.LBB670:
.LBB671:
	.loc 2 339 3 discriminator 2
	.loc 2 339 20 is_stmt 0 discriminator 2
	vpermilpd	$5, %ymm1, %ymm10
.LVL135:
.LBE671:
.LBE670:
	.loc 1 210 9 is_stmt 1 discriminator 2
.LBB672:
.LBB673:
	.loc 2 869 3 discriminator 2
.LBE673:
.LBE672:
	.loc 1 210 9 discriminator 2
.LBB674:
.LBB675:
	.loc 2 339 3 discriminator 2
	.loc 2 339 20 is_stmt 0 discriminator 2
	vpermilpd	$5, (%rbx), %ymm11
.LVL136:
.LBE675:
.LBE674:
	.loc 1 210 9 is_stmt 1 discriminator 2
.LBB676:
.LBB677:
	.loc 2 314 3 discriminator 2
.LBE677:
.LBE676:
	.loc 1 210 9 discriminator 2
.LBB679:
.LBB680:
	.loc 3 241 3 discriminator 2
.LBE680:
.LBE679:
.LBB682:
.LBB678:
	.loc 2 314 10 is_stmt 0 discriminator 2
	vmulpd	%ymm10, %ymm0, %ymm3
.LVL137:
.LBE678:
.LBE682:
.LBB683:
.LBB681:
	.loc 3 241 19 discriminator 2
	vfmaddsub231pd	%ymm1, %ymm14, %ymm3
.LVL138:
.LBE681:
.LBE683:
	.loc 1 210 9 is_stmt 1 discriminator 2
.LBB684:
.LBB685:
	.loc 2 314 3 discriminator 2
.LBE685:
.LBE684:
	.loc 1 210 9 discriminator 2
.LBB687:
.LBB688:
	.loc 3 241 3 discriminator 2
.LBE688:
.LBE687:
.LBB690:
.LBB686:
	.loc 2 314 10 is_stmt 0 discriminator 2
	vmulpd	%ymm10, %ymm4, %ymm2
.LVL139:
.LBE686:
.LBE690:
.LBB691:
.LBB689:
	.loc 3 241 19 discriminator 2
	vfmaddsub231pd	%ymm1, %ymm13, %ymm2
.LVL140:
.LBE689:
.LBE691:
	.loc 1 210 9 is_stmt 1 discriminator 2
.LBB692:
.LBB693:
	.loc 2 690 3 discriminator 2
	.loc 2 690 20 is_stmt 0 discriminator 2
	vperm2f128	$2, %ymm3, %ymm2, %ymm7
.LVL141:
.LBE693:
.LBE692:
	.loc 1 210 9 is_stmt 1 discriminator 2
.LBB694:
.LBB695:
	.loc 2 690 3 discriminator 2
	.loc 2 690 20 is_stmt 0 discriminator 2
	vperm2f128	$1, %ymm3, %ymm3, %ymm3
.LVL142:
.LBE695:
.LBE694:
	.loc 1 210 9 is_stmt 1 discriminator 2
.LBB696:
.LBB697:
	.loc 2 196 3 discriminator 2
	.loc 2 196 20 is_stmt 0 discriminator 2
	vblendpd	$12, %ymm2, %ymm3, %ymm3
.LVL143:
.LBE697:
.LBE696:
	.loc 1 210 9 is_stmt 1 discriminator 2
.LBB698:
.LBB699:
	.loc 2 143 3 discriminator 2
.LBE699:
.LBE698:
	.loc 1 210 9 discriminator 2
.LBB701:
.LBB702:
	.loc 2 893 3 discriminator 2
.LBE702:
.LBE701:
	.loc 1 210 9 discriminator 2
.LBB703:
.LBB704:
	.loc 2 690 3 discriminator 2
	.loc 2 690 20 is_stmt 0 discriminator 2
	vmovupd	16(%r12), %ymm5
	vperm2f128	$1, %ymm5, %ymm5, %ymm2
.LVL144:
.LBE704:
.LBE703:
	.loc 1 210 9 is_stmt 1 discriminator 2
.LBB705:
.LBB706:
	.loc 2 869 3 discriminator 2
.LBE706:
.LBE705:
	.loc 1 210 9 discriminator 2
.LBB707:
.LBB708:
	.loc 2 196 3 discriminator 2
	.loc 2 196 20 is_stmt 0 discriminator 2
	vblendpd	$12, 64(%r12), %ymm2, %ymm2
.LVL145:
.LBE708:
.LBE707:
	.loc 1 210 9 is_stmt 1 discriminator 2
.LBB709:
.LBB710:
	.loc 2 893 3 discriminator 2
	.loc 2 893 10 is_stmt 0 discriminator 2
	vmovupd	16(%r14), %ymm5
.LVL146:
.LBE710:
.LBE709:
	.loc 1 210 9 is_stmt 1 discriminator 2
.LBB711:
.LBB712:
	.loc 2 690 3 discriminator 2
	.loc 2 690 20 is_stmt 0 discriminator 2
	vperm2f128	$1, %ymm5, %ymm5, %ymm8
.LVL147:
.LBE712:
.LBE711:
	.loc 1 210 9 is_stmt 1 discriminator 2
.LBB713:
.LBB714:
	.loc 2 196 3 discriminator 2
	.loc 2 196 20 is_stmt 0 discriminator 2
	vblendpd	$12, %ymm5, %ymm8, %ymm5
.LVL148:
.LBE714:
.LBE713:
	.loc 1 210 9 is_stmt 1 discriminator 2
.LBB715:
.LBB716:
	.loc 2 339 3 discriminator 2
	.loc 2 339 20 is_stmt 0 discriminator 2
	vpermilpd	$0, %ymm2, %ymm12
.LVL149:
.LBE716:
.LBE715:
	.loc 1 210 9 is_stmt 1 discriminator 2
.LBB717:
.LBB718:
	.loc 2 339 3 discriminator 2
	.loc 2 339 20 is_stmt 0 discriminator 2
	vpermilpd	$15, %ymm2, %ymm2
.LVL150:
.LBE718:
.LBE717:
	.loc 1 210 9 is_stmt 1 discriminator 2
.LBB719:
.LBB720:
	.loc 2 339 3 discriminator 2
.LBE720:
.LBE719:
	.loc 1 210 9 discriminator 2
.LBB722:
.LBB723:
	.loc 2 314 3 discriminator 2
.LBE723:
.LBE722:
	.loc 1 210 9 discriminator 2
.LBB725:
.LBB726:
	.loc 3 241 3 discriminator 2
.LBE726:
.LBE725:
.LBB728:
.LBB721:
	.loc 2 339 20 is_stmt 0 discriminator 2
	vpermilpd	$5, %ymm5, %ymm15
.LBE721:
.LBE728:
.LBB729:
.LBB724:
	.loc 2 314 10 discriminator 2
	vmulpd	%ymm2, %ymm15, %ymm15
.LBE724:
.LBE729:
.LBB730:
.LBB727:
	.loc 3 241 19 discriminator 2
	vfmaddsub132pd	%ymm12, %ymm15, %ymm5
.LVL151:
.LBE727:
.LBE730:
	.loc 1 210 9 is_stmt 1 discriminator 2
.LBB731:
.LBB732:
	.loc 2 143 3 discriminator 2
.LBE732:
.LBE731:
	.loc 1 210 9 discriminator 2
.LBB734:
.LBB735:
	.loc 2 314 3 discriminator 2
.LBE735:
.LBE734:
	.loc 1 210 9 discriminator 2
.LBB737:
.LBB738:
	.loc 3 241 3 discriminator 2
.LBE738:
.LBE737:
.LBB740:
.LBB736:
	.loc 2 314 10 is_stmt 0 discriminator 2
	vmulpd	%ymm11, %ymm0, %ymm0
.LVL152:
.LBE736:
.LBE740:
.LBB741:
.LBB739:
	.loc 3 241 19 discriminator 2
	vfmaddsub231pd	(%rbx), %ymm14, %ymm0
.LVL153:
.LBE739:
.LBE741:
	.loc 1 210 9 is_stmt 1 discriminator 2
.LBB742:
.LBB743:
	.loc 2 314 3 discriminator 2
.LBE743:
.LBE742:
	.loc 1 210 9 discriminator 2
.LBB745:
.LBB746:
	.loc 3 241 3 discriminator 2
.LBE746:
.LBE745:
.LBB748:
.LBB744:
	.loc 2 314 10 is_stmt 0 discriminator 2
	vmulpd	%ymm11, %ymm4, %ymm4
.LVL154:
.LBE744:
.LBE748:
.LBB749:
.LBB747:
	.loc 3 241 19 discriminator 2
	vfmaddsub132pd	(%rbx), %ymm4, %ymm13
.LVL155:
.LBE747:
.LBE749:
	.loc 1 210 9 is_stmt 1 discriminator 2
.LBB750:
.LBB751:
	.loc 2 690 3 discriminator 2
	.loc 2 690 20 is_stmt 0 discriminator 2
	vperm2f128	$2, %ymm0, %ymm13, %ymm4
.LVL156:
.LBE751:
.LBE750:
	.loc 1 210 9 is_stmt 1 discriminator 2
.LBB752:
.LBB753:
	.loc 2 690 3 discriminator 2
	.loc 2 690 20 is_stmt 0 discriminator 2
	vperm2f128	$1, %ymm0, %ymm0, %ymm0
.LVL157:
.LBE753:
.LBE752:
	.loc 1 210 9 is_stmt 1 discriminator 2
.LBB754:
.LBB755:
	.loc 2 196 3 discriminator 2
	.loc 2 196 20 is_stmt 0 discriminator 2
	vblendpd	$12, %ymm13, %ymm0, %ymm0
.LVL158:
.LBE755:
.LBE754:
	.loc 1 210 9 is_stmt 1 discriminator 2
.LBB756:
.LBB757:
	.loc 2 143 3 discriminator 2
.LBE757:
.LBE756:
	.loc 1 210 9 discriminator 2
.LBB759:
.LBB760:
	.loc 2 893 3 discriminator 2
	.loc 2 893 10 is_stmt 0 discriminator 2
	vmovupd	16(%rbx), %ymm14
.LVL159:
.LBE760:
.LBE759:
	.loc 1 210 9 is_stmt 1 discriminator 2
.LBB761:
.LBB762:
	.loc 2 690 3 discriminator 2
	.loc 2 690 20 is_stmt 0 discriminator 2
	vperm2f128	$1, %ymm14, %ymm14, %ymm15
.LVL160:
.LBE762:
.LBE761:
	.loc 1 210 9 is_stmt 1 discriminator 2
.LBB763:
.LBB764:
	.loc 2 196 3 discriminator 2
	.loc 2 196 20 is_stmt 0 discriminator 2
	vblendpd	$12, %ymm14, %ymm15, %ymm15
.LVL161:
.LBE764:
.LBE763:
	.loc 1 210 9 is_stmt 1 discriminator 2
.LBB765:
.LBB766:
	.loc 2 339 3 discriminator 2
.LBE766:
.LBE765:
	.loc 1 210 9 discriminator 2
.LBB768:
.LBB769:
	.loc 2 314 3 discriminator 2
.LBE769:
.LBE768:
	.loc 1 210 9 discriminator 2
.LBB771:
.LBB772:
	.loc 3 241 3 discriminator 2
.LBE772:
.LBE771:
.LBB774:
.LBB767:
	.loc 2 339 20 is_stmt 0 discriminator 2
	vpermilpd	$5, %ymm15, %ymm13
.LVL162:
.LBE767:
.LBE774:
.LBB775:
.LBB770:
	.loc 2 314 10 discriminator 2
	vmulpd	%ymm2, %ymm13, %ymm13
.LBE770:
.LBE775:
.LBB776:
.LBB773:
	.loc 3 241 19 discriminator 2
	vfmaddsub231pd	%ymm15, %ymm12, %ymm13
.LVL163:
.LBE773:
.LBE776:
	.loc 1 210 9 is_stmt 1 discriminator 2
.LBB777:
.LBB778:
	.loc 2 143 3 discriminator 2
.LBE778:
.LBE777:
	.loc 1 210 9 discriminator 2
.LBB780:
.LBB781:
	.loc 2 314 3 discriminator 2
.LBE781:
.LBE780:
	.loc 1 210 9 discriminator 2
.LBB783:
.LBB784:
	.loc 3 241 3 discriminator 2
.LBE784:
.LBE783:
.LBB786:
.LBB782:
	.loc 2 314 10 is_stmt 0 discriminator 2
	vmulpd	%ymm10, %ymm6, %ymm10
.LVL164:
.LBE782:
.LBE786:
.LBB787:
.LBB785:
	.loc 3 241 19 discriminator 2
	vfmaddsub132pd	%ymm9, %ymm10, %ymm1
.LVL165:
.LBE785:
.LBE787:
	.loc 1 210 9 is_stmt 1 discriminator 2
.LBB788:
.LBB789:
	.loc 2 314 3 discriminator 2
.LBE789:
.LBE788:
	.loc 1 210 9 discriminator 2
.LBB791:
.LBB792:
	.loc 3 241 3 discriminator 2
.LBE792:
.LBE791:
.LBB794:
.LBB790:
	.loc 2 314 10 is_stmt 0 discriminator 2
	vmulpd	%ymm11, %ymm6, %ymm6
.LVL166:
.LBE790:
.LBE794:
.LBB795:
.LBB793:
	.loc 3 241 19 discriminator 2
	vfmaddsub132pd	(%rbx), %ymm6, %ymm9
.LVL167:
.LBE793:
.LBE795:
	.loc 1 210 9 is_stmt 1 discriminator 2
.LBB796:
.LBB797:
	.loc 2 690 3 discriminator 2
	.loc 2 690 20 is_stmt 0 discriminator 2
	vperm2f128	$2, %ymm1, %ymm9, %ymm6
.LVL168:
.LBE797:
.LBE796:
	.loc 1 210 9 is_stmt 1 discriminator 2
.LBB798:
.LBB799:
	.loc 2 690 3 discriminator 2
	.loc 2 690 20 is_stmt 0 discriminator 2
	vperm2f128	$1, %ymm1, %ymm1, %ymm1
.LVL169:
.LBE799:
.LBE798:
	.loc 1 210 9 is_stmt 1 discriminator 2
.LBB800:
.LBB801:
	.loc 2 196 3 discriminator 2
	.loc 2 196 20 is_stmt 0 discriminator 2
	vblendpd	$12, %ymm9, %ymm1, %ymm1
.LVL170:
.LBE801:
.LBE800:
	.loc 1 210 9 is_stmt 1 discriminator 2
.LBB802:
.LBB803:
	.loc 2 143 3 discriminator 2
.LBE803:
.LBE802:
	.loc 1 210 9 discriminator 2
.LBB805:
.LBB806:
	.loc 2 893 3 discriminator 2
	.loc 2 893 10 is_stmt 0 discriminator 2
	vmovupd	112(%r12), %ymm9
.LVL171:
.LBE806:
.LBE805:
	.loc 1 210 9 is_stmt 1 discriminator 2
.LBB807:
.LBB808:
	.loc 2 690 3 discriminator 2
	.loc 2 690 20 is_stmt 0 discriminator 2
	vperm2f128	$1, %ymm9, %ymm9, %ymm2
.LVL172:
.LBE808:
.LBE807:
	.loc 1 210 9 is_stmt 1 discriminator 2
.LBB809:
.LBB810:
	.loc 2 196 3 discriminator 2
	.loc 2 196 20 is_stmt 0 discriminator 2
	vblendpd	$12, %ymm9, %ymm2, %ymm2
.LVL173:
.LBE810:
.LBE809:
	.loc 1 210 9 is_stmt 1 discriminator 2
.LBB811:
.LBB812:
	.loc 2 339 3 discriminator 2
.LBE812:
.LBE811:
	.loc 1 210 9 discriminator 2
.LBB814:
.LBB815:
	.loc 2 339 3 discriminator 2
.LBE815:
.LBE814:
	.loc 1 210 9 discriminator 2
.LBB817:
.LBB818:
	.loc 2 196 3 discriminator 2
	.loc 2 196 20 is_stmt 0 discriminator 2
	vblendpd	$12, %ymm14, %ymm8, %ymm8
.LVL174:
.LBE818:
.LBE817:
	.loc 1 210 9 is_stmt 1 discriminator 2
.LBB819:
.LBB820:
	.loc 2 339 3 discriminator 2
.LBE820:
.LBE819:
	.loc 1 210 9 discriminator 2
.LBB822:
.LBB823:
	.loc 2 314 3 discriminator 2
.LBE823:
.LBE822:
	.loc 1 210 9 discriminator 2
.LBB825:
.LBB826:
	.loc 3 241 3 discriminator 2
.LBE826:
.LBE825:
.LBB828:
.LBB813:
	.loc 2 339 20 is_stmt 0 discriminator 2
	vpermilpd	$0, %ymm2, %ymm9
.LBE813:
.LBE828:
.LBB829:
.LBB816:
	vpermilpd	$15, %ymm2, %ymm2
.LBE816:
.LBE829:
.LBB830:
.LBB821:
	vpermilpd	$5, %ymm8, %ymm10
.LVL175:
.LBE821:
.LBE830:
.LBB831:
.LBB824:
	.loc 2 314 10 discriminator 2
	vmulpd	%ymm10, %ymm2, %ymm2
.LBE824:
.LBE831:
.LBB832:
.LBB827:
	.loc 3 241 19 discriminator 2
	vfmaddsub231pd	%ymm8, %ymm9, %ymm2
.LVL176:
.LBE827:
.LBE832:
	.loc 1 210 9 is_stmt 1 discriminator 2
.LBB833:
.LBB834:
	.loc 2 143 3 discriminator 2
.LBE834:
.LBE833:
.LBB836:
.LBB804:
	.loc 2 143 10 is_stmt 0 discriminator 2
	vaddpd	%ymm1, %ymm6, %ymm1
.LVL177:
.LBE804:
.LBE836:
.LBB837:
.LBB835:
	vaddpd	%ymm2, %ymm1, %ymm1
.LVL178:
.LBE835:
.LBE837:
	.loc 1 210 9 is_stmt 1 discriminator 2
.LBB838:
.LBB839:
	.loc 2 1457 3 discriminator 2
.LBE839:
.LBE838:
	.loc 1 210 9 discriminator 2
.LBB840:
.LBB841:
	.loc 2 520 3 discriminator 2
.LBE841:
.LBE840:
	.loc 1 210 9 discriminator 2
.LBB842:
.LBB843:
	.loc 2 899 3 discriminator 2
.LBE843:
.LBE842:
.LBB845:
.LBB700:
	.loc 2 143 10 is_stmt 0 discriminator 2
	vaddpd	%ymm3, %ymm7, %ymm7
.LVL179:
.LBE700:
.LBE845:
.LBB846:
.LBB733:
	vaddpd	%ymm5, %ymm7, %ymm7
.LVL180:
.LBE733:
.LBE846:
.LBB847:
.LBB844:
	.loc 2 899 21 discriminator 2
	vmovupd	%ymm7, 0(%r13,%rsi)
.LVL181:
.LBE844:
.LBE847:
	.loc 1 210 9 is_stmt 1 discriminator 2
.LBB848:
.LBB849:
	.loc 4 166 3 discriminator 2
	.loc 4 166 19 is_stmt 0 discriminator 2
	vmovapd	%xmm1, 32(%r13,%rsi)
.LVL182:
.LBE849:
.LBE848:
	.loc 1 210 9 is_stmt 1 discriminator 2
.LBB850:
.LBB851:
	.loc 2 899 3 discriminator 2
.LBE851:
.LBE850:
.LBB853:
.LBB758:
	.loc 2 143 10 is_stmt 0 discriminator 2
	vaddpd	%ymm0, %ymm4, %ymm4
.LVL183:
.LBE758:
.LBE853:
.LBB854:
.LBB779:
	vaddpd	%ymm13, %ymm4, %ymm4
.LVL184:
.LBE779:
.LBE854:
.LBB855:
.LBB852:
	.loc 2 899 21 discriminator 2
	vmovupd	%ymm4, (%r15,%rsi)
.LVL185:
.LBE852:
.LBE855:
	.loc 1 210 9 is_stmt 1 discriminator 2
.LBB856:
.LBB857:
	.loc 4 166 3 discriminator 2
	.loc 4 166 19 is_stmt 0 discriminator 2
	vextractf128	$0x1, %ymm1, 32(%r15,%rsi)
.LVL186:
.LBE857:
.LBE856:
	.loc 1 210 65 is_stmt 1 discriminator 2
	.loc 1 211 5 discriminator 2
#APP
# 211 "avx_complex_vec_align_load.c" 1
	# LLVM-MCA-END
# 0 "" 2
	.loc 1 196 17 discriminator 2
.LVL187:
	.loc 1 196 11 discriminator 2
#NO_APP
	addq	$144, %rdi
	addq	$144, %r8
	addq	$48, %rsi
.LVL188:
	cmpq	%r9, %rsi
	je	.L13
.LVL189:
.L10:
	.loc 1 198 15
	.loc 1 200 26 is_stmt 0
	movq	-248(%rbp), %rax
	leaq	(%rax,%rsi), %r11
	.loc 1 200 11
	leaq	(%r14,%rsi), %r10
	.loc 1 201 27
	movq	-256(%rbp), %rax
	leaq	(%rax,%rsi), %rcx
	.loc 1 201 12
	leaq	(%rbx,%rsi), %rdx
	movl	$0, %eax
.LVL190:
.L11:
	.loc 1 200 7 is_stmt 1 discriminator 3
	vmovsd	(%r11,%rax), %xmm1
	vmovsd	8(%r11,%rax), %xmm0
	.loc 1 200 21 is_stmt 0 discriminator 3
	vmovsd	%xmm1, (%r10,%rax)
	vmovsd	%xmm0, 8(%r10,%rax)
	.loc 1 201 7 is_stmt 1 discriminator 3
	vmovsd	(%rcx,%rax), %xmm1
	vmovsd	8(%rcx,%rax), %xmm0
	.loc 1 201 22 is_stmt 0 discriminator 3
	vmovsd	%xmm1, (%rdx,%rax)
	vmovsd	%xmm0, 8(%rdx,%rax)
	.loc 1 198 20 is_stmt 1 discriminator 3
.LVL191:
	.loc 1 198 15 discriminator 3
	addq	$16, %rax
.LVL192:
	cmpq	$48, %rax
	jne	.L11
	.loc 1 206 25 is_stmt 0
	movq	%rdi, %rcx
	.loc 1 206 10
	movq	%r8, %rdx
	movl	$0, %eax
.LVL193:
	jmp	.L12
.LVL194:
.L13:
	movq	-240(%rbp), %rbx
	.loc 1 215 1 is_stmt 1
	.loc 1 215 4 is_stmt 0
	call	clock
.LVL195:
	movq	%rax, %r13
.LVL196:
	.loc 1 217 5 is_stmt 1
	.loc 1 217 9 is_stmt 0
	call	omp_get_wtime
.LVL197:
	vmovq	%xmm0, %r15
.LVL198:
	.loc 1 219 3 is_stmt 1
	movl	$0, %esi
	leaq	-80(%rbp), %rdi
	call	gettimeofday
.LVL199:
	.loc 1 220 3
	leaq	-64(%rbp), %rdx
	leaq	-80(%rbp), %rsi
	leaq	-96(%rbp), %rdi
	call	timeval_subtract
.LVL200:
	.loc 1 222 5
	.loc 1 222 80 is_stmt 0
	subq	%rbx, %r13
.LVL201:
	.loc 1 222 5
	vxorpd	%xmm3, %xmm3, %xmm3
	vcvtsi2sdq	%r13, %xmm3, %xmm0
	vdivsd	.LC1(%rip), %xmm0, %xmm0
	movl	$.LC2, %edx
	movl	$0, %esi
	movl	$.LC3, %edi
	movl	$1, %eax
	call	lprintf
.LVL202:
	.loc 1 224 5 is_stmt 1
	vmovq	%r15, %xmm6
	vsubsd	-232(%rbp), %xmm6, %xmm0
	movl	$.LC4, %edx
	movl	$0, %esi
	movl	$.LC3, %edi
	movl	$1, %eax
	call	lprintf
.LVL203:
	.loc 1 226 5
	.loc 1 226 111 is_stmt 0
	vxorpd	%xmm3, %xmm3, %xmm3
	vcvtsi2sdq	-88(%rbp), %xmm3, %xmm0
	vmulsd	.LC5(%rip), %xmm0, %xmm0
	.loc 1 226 5
	vcvtsi2sdq	-96(%rbp), %xmm3, %xmm1
	vaddsd	%xmm1, %xmm0, %xmm0
	movl	$.LC6, %edx
	movl	$0, %esi
	movl	$.LC3, %edi
	movl	$1, %eax
	call	lprintf
.LVL204:
	.loc 1 236 3 is_stmt 1
	.loc 1 236 13
	.loc 1 226 5 is_stmt 0
	movq	-336(%rbp), %rax
	movq	%rax, -288(%rbp)
	movq	-312(%rbp), %rax
	movq	%rax, -272(%rbp)
	movq	-320(%rbp), %rax
	movq	%rax, -264(%rbp)
	movq	$0, -232(%rbp)
.LVL205:
	movq	-328(%rbp), %r15
.LVL206:
	jmp	.L14
.LVL207:
.L16:
	.loc 1 247 7 is_stmt 1 discriminator 3
	vmovsd	(%rcx,%rax), %xmm1
	vmovsd	8(%rcx,%rax), %xmm0
	.loc 1 247 20 is_stmt 0 discriminator 3
	vmovsd	%xmm1, (%rdx,%rax)
	vmovsd	%xmm0, 8(%rdx,%rax)
	.loc 1 245 20 is_stmt 1 discriminator 3
.LVL208:
	.loc 1 245 15 discriminator 3
	addq	$16, %rax
.LVL209:
	cmpq	$144, %rax
	jne	.L16
	.loc 1 250 3 discriminator 2
	vmovsd	(%r12), %xmm0
	vmovsd	8(%r12), %xmm1
	vmovsd	(%r14), %xmm2
	vmovsd	8(%r14), %xmm3
	vmulsd	%xmm0, %xmm2, %xmm5
	vmulsd	%xmm3, %xmm1, %xmm4
	vsubsd	%xmm4, %xmm5, %xmm7
	vmovq	%xmm7, %r13
	vmulsd	%xmm2, %xmm1, %xmm5
	vmulsd	%xmm0, %xmm3, %xmm4
	vaddsd	%xmm4, %xmm5, %xmm7
	vmovsd	%xmm7, -240(%rbp)
	vmovq	%r13, %xmm6
	vucomisd	%xmm7, %xmm6
	jp	.L80
.LVL210:
.L17:
	movq	-272(%rbp), %rax
	movq	%rax, %rbx
	movq	%r13, (%rax)
	vmovsd	-240(%rbp), %xmm3
	vmovsd	%xmm3, 8(%rax)
	.loc 1 250 3 discriminator 2
	vmovsd	16(%r12), %xmm5
	vmovsd	24(%r12), %xmm1
	vmovsd	16(%r14), %xmm2
	vmovsd	24(%r14), %xmm3
	vmulsd	%xmm2, %xmm5, %xmm4
	vmulsd	%xmm1, %xmm3, %xmm0
	vsubsd	%xmm0, %xmm4, %xmm4
	vmulsd	%xmm3, %xmm5, %xmm0
	vmulsd	%xmm1, %xmm2, %xmm6
	vaddsd	%xmm6, %xmm0, %xmm0
	vucomisd	%xmm0, %xmm4
	jp	.L81
.L18:
	vmovq	%r13, %xmm7
	vaddsd	%xmm4, %xmm7, %xmm3
	vmovq	%xmm3, %r13
	vaddsd	-240(%rbp), %xmm0, %xmm6
	vmovsd	%xmm6, -240(%rbp)
	vmovsd	%xmm3, (%rbx)
	vmovsd	%xmm6, 8(%rbx)
	.loc 1 250 3 discriminator 2
	vmovsd	32(%r12), %xmm5
	vmovsd	40(%r12), %xmm1
	vmovsd	32(%r14), %xmm2
	vmovsd	40(%r14), %xmm3
	vmulsd	%xmm5, %xmm2, %xmm4
	vmulsd	%xmm1, %xmm3, %xmm0
	vsubsd	%xmm0, %xmm4, %xmm4
	vmulsd	%xmm1, %xmm2, %xmm0
	vmulsd	%xmm5, %xmm3, %xmm6
	vaddsd	%xmm6, %xmm0, %xmm0
	vucomisd	%xmm4, %xmm0
	jp	.L82
.L19:
	vmovq	%r13, %xmm6
	vaddsd	%xmm4, %xmm6, %xmm4
	vmovsd	%xmm4, (%rbx)
	vaddsd	-240(%rbp), %xmm0, %xmm0
	vmovsd	%xmm0, 8(%rbx)
	.loc 1 250 3 discriminator 2
	vmovsd	48(%r12), %xmm0
	vmovsd	56(%r12), %xmm1
	vmovsd	(%r14), %xmm2
	vmovsd	8(%r14), %xmm3
	vmulsd	%xmm2, %xmm0, %xmm5
	vmulsd	%xmm3, %xmm1, %xmm4
	vsubsd	%xmm4, %xmm5, %xmm7
	vmovq	%xmm7, %r13
	vmulsd	%xmm3, %xmm0, %xmm5
	vmulsd	%xmm2, %xmm1, %xmm4
	vaddsd	%xmm4, %xmm5, %xmm7
	vmovsd	%xmm7, -240(%rbp)
	vmovq	%r13, %xmm6
	vucomisd	%xmm7, %xmm6
	jp	.L83
.L20:
	movq	%r13, 16(%rbx)
	vmovsd	-240(%rbp), %xmm3
	vmovsd	%xmm3, 24(%rbx)
	.loc 1 250 3 discriminator 2
	vmovsd	64(%r12), %xmm5
	vmovsd	72(%r12), %xmm1
	vmovsd	16(%r14), %xmm2
	vmovsd	24(%r14), %xmm3
	vmulsd	%xmm2, %xmm5, %xmm4
	vmulsd	%xmm3, %xmm1, %xmm0
	vsubsd	%xmm0, %xmm4, %xmm4
	vmulsd	%xmm3, %xmm5, %xmm0
	vmulsd	%xmm2, %xmm1, %xmm6
	vaddsd	%xmm6, %xmm0, %xmm0
	vucomisd	%xmm0, %xmm4
	jp	.L84
.L21:
	vmovq	%r13, %xmm7
	vaddsd	%xmm4, %xmm7, %xmm5
	vmovq	%xmm5, %r13
	vaddsd	-240(%rbp), %xmm0, %xmm6
	vmovsd	%xmm6, -240(%rbp)
	vmovsd	%xmm5, 16(%rbx)
	vmovsd	%xmm6, 24(%rbx)
	.loc 1 250 3 discriminator 2
	vmovsd	80(%r12), %xmm5
	vmovsd	88(%r12), %xmm1
	vmovsd	32(%r14), %xmm2
	vmovsd	40(%r14), %xmm3
	vmulsd	%xmm2, %xmm5, %xmm4
	vmulsd	%xmm3, %xmm1, %xmm0
	vsubsd	%xmm0, %xmm4, %xmm4
	vmulsd	%xmm3, %xmm5, %xmm0
	vmulsd	%xmm2, %xmm1, %xmm6
	vaddsd	%xmm6, %xmm0, %xmm0
	vucomisd	%xmm0, %xmm4
	jp	.L85
.L22:
	vmovq	%r13, %xmm6
	vaddsd	%xmm4, %xmm6, %xmm4
	vmovsd	%xmm4, 16(%rbx)
	vaddsd	-240(%rbp), %xmm0, %xmm0
	vmovsd	%xmm0, 24(%rbx)
	.loc 1 250 3 discriminator 2
	vmovsd	96(%r12), %xmm0
	vmovsd	104(%r12), %xmm1
	vmovsd	(%r14), %xmm2
	vmovsd	8(%r14), %xmm3
	vmulsd	%xmm2, %xmm0, %xmm5
	vmulsd	%xmm3, %xmm1, %xmm4
	vsubsd	%xmm4, %xmm5, %xmm7
	vmovq	%xmm7, %r13
	vmulsd	%xmm3, %xmm0, %xmm5
	vmulsd	%xmm2, %xmm1, %xmm4
	vaddsd	%xmm4, %xmm5, %xmm7
	vmovsd	%xmm7, -240(%rbp)
	vmovq	%r13, %xmm6
	vucomisd	%xmm7, %xmm6
	jp	.L86
.L23:
	movq	%r13, 32(%rbx)
	vmovsd	-240(%rbp), %xmm3
	vmovsd	%xmm3, 40(%rbx)
	.loc 1 250 3 discriminator 2
	vmovsd	112(%r12), %xmm5
	vmovsd	120(%r12), %xmm1
	vmovsd	16(%r14), %xmm2
	vmovsd	24(%r14), %xmm3
	vmulsd	%xmm2, %xmm5, %xmm4
	vmulsd	%xmm3, %xmm1, %xmm0
	vsubsd	%xmm0, %xmm4, %xmm4
	vmulsd	%xmm3, %xmm5, %xmm0
	vmulsd	%xmm2, %xmm1, %xmm6
	vaddsd	%xmm6, %xmm0, %xmm0
	vucomisd	%xmm0, %xmm4
	jp	.L87
.L24:
	vmovq	%r13, %xmm7
	vaddsd	%xmm4, %xmm7, %xmm5
	vmovq	%xmm5, %r13
	vaddsd	-240(%rbp), %xmm0, %xmm6
	vmovsd	%xmm6, -240(%rbp)
	vmovsd	%xmm5, 32(%rbx)
	vmovsd	%xmm6, 40(%rbx)
	.loc 1 250 3 discriminator 2
	vmovsd	128(%r12), %xmm5
	vmovsd	136(%r12), %xmm1
	vmovsd	32(%r14), %xmm2
	vmovsd	40(%r14), %xmm3
	vmulsd	%xmm2, %xmm5, %xmm4
	vmulsd	%xmm3, %xmm1, %xmm0
	vsubsd	%xmm0, %xmm4, %xmm4
	vmulsd	%xmm3, %xmm5, %xmm0
	vmulsd	%xmm2, %xmm1, %xmm6
	vaddsd	%xmm6, %xmm0, %xmm0
	vucomisd	%xmm0, %xmm4
	jp	.L88
.L25:
	vmovq	%r13, %xmm6
	vaddsd	%xmm4, %xmm6, %xmm4
	vmovsd	%xmm4, 32(%rbx)
	vaddsd	-240(%rbp), %xmm0, %xmm0
	vmovsd	%xmm0, 40(%rbx)
	.loc 1 251 3 discriminator 2
	vmovsd	(%r12), %xmm0
	vmovsd	8(%r12), %xmm1
	vmovsd	(%r15), %xmm2
	vmovsd	8(%r15), %xmm3
	vmulsd	%xmm2, %xmm0, %xmm5
	vmulsd	%xmm3, %xmm1, %xmm4
	vsubsd	%xmm4, %xmm5, %xmm7
	vmovq	%xmm7, %r13
	vmulsd	%xmm3, %xmm0, %xmm5
	vmulsd	%xmm2, %xmm1, %xmm4
	vaddsd	%xmm4, %xmm5, %xmm7
	vmovsd	%xmm7, -240(%rbp)
	vmovq	%r13, %xmm6
	vucomisd	%xmm7, %xmm6
	jp	.L89
.L26:
	movq	-264(%rbp), %rax
	movq	%rax, %rbx
	movq	%r13, (%rax)
	vmovsd	-240(%rbp), %xmm3
	vmovsd	%xmm3, 8(%rax)
	.loc 1 251 3 discriminator 2
	vmovsd	16(%r12), %xmm5
	vmovsd	24(%r12), %xmm1
	vmovsd	16(%r15), %xmm2
	vmovsd	24(%r15), %xmm3
	vmulsd	%xmm2, %xmm5, %xmm4
	vmulsd	%xmm3, %xmm1, %xmm0
	vsubsd	%xmm0, %xmm4, %xmm4
	vmulsd	%xmm3, %xmm5, %xmm0
	vmulsd	%xmm2, %xmm1, %xmm6
	vaddsd	%xmm6, %xmm0, %xmm0
	vucomisd	%xmm0, %xmm4
	jp	.L90
.L27:
	vmovq	%r13, %xmm7
	vaddsd	%xmm4, %xmm7, %xmm5
	vmovq	%xmm5, %r13
	vaddsd	-240(%rbp), %xmm0, %xmm6
	vmovsd	%xmm6, -240(%rbp)
	vmovsd	%xmm5, (%rbx)
	vmovsd	%xmm6, 8(%rbx)
	.loc 1 251 3 discriminator 2
	vmovsd	32(%r12), %xmm5
	vmovsd	40(%r12), %xmm1
	vmovsd	32(%r15), %xmm2
	vmovsd	40(%r15), %xmm3
	vmulsd	%xmm2, %xmm5, %xmm4
	vmulsd	%xmm3, %xmm1, %xmm0
	vsubsd	%xmm0, %xmm4, %xmm4
	vmulsd	%xmm3, %xmm5, %xmm0
	vmulsd	%xmm2, %xmm1, %xmm6
	vaddsd	%xmm6, %xmm0, %xmm0
	vucomisd	%xmm0, %xmm4
	jp	.L91
.L28:
	vmovq	%r13, %xmm6
	vaddsd	%xmm4, %xmm6, %xmm4
	vmovsd	%xmm4, (%rbx)
	vaddsd	-240(%rbp), %xmm0, %xmm0
	vmovsd	%xmm0, 8(%rbx)
	.loc 1 251 3 discriminator 2
	vmovsd	48(%r12), %xmm0
	vmovsd	56(%r12), %xmm1
	vmovsd	(%r15), %xmm2
	vmovsd	8(%r15), %xmm3
	vmulsd	%xmm2, %xmm0, %xmm5
	vmulsd	%xmm3, %xmm1, %xmm4
	vsubsd	%xmm4, %xmm5, %xmm7
	vmovq	%xmm7, %r13
	vmulsd	%xmm3, %xmm0, %xmm5
	vmulsd	%xmm2, %xmm1, %xmm4
	vaddsd	%xmm4, %xmm5, %xmm7
	vmovsd	%xmm7, -240(%rbp)
	vmovq	%r13, %xmm6
	vucomisd	%xmm7, %xmm6
	jp	.L92
.L29:
	movq	%r13, 16(%rbx)
	vmovsd	-240(%rbp), %xmm3
	vmovsd	%xmm3, 24(%rbx)
	.loc 1 251 3 discriminator 2
	vmovsd	64(%r12), %xmm5
	vmovsd	72(%r12), %xmm1
	vmovsd	16(%r15), %xmm2
	vmovsd	24(%r15), %xmm3
	vmulsd	%xmm2, %xmm5, %xmm4
	vmulsd	%xmm3, %xmm1, %xmm0
	vsubsd	%xmm0, %xmm4, %xmm4
	vmulsd	%xmm3, %xmm5, %xmm0
	vmulsd	%xmm2, %xmm1, %xmm6
	vaddsd	%xmm6, %xmm0, %xmm0
	vucomisd	%xmm0, %xmm4
	jp	.L93
.L30:
	vmovq	%r13, %xmm7
	vaddsd	%xmm4, %xmm7, %xmm5
	vmovq	%xmm5, %r13
	vaddsd	-240(%rbp), %xmm0, %xmm6
	vmovsd	%xmm6, -240(%rbp)
	vmovsd	%xmm5, 16(%rbx)
	vmovsd	%xmm6, 24(%rbx)
	.loc 1 251 3 discriminator 2
	vmovsd	80(%r12), %xmm5
	vmovsd	88(%r12), %xmm1
	vmovsd	32(%r15), %xmm2
	vmovsd	40(%r15), %xmm3
	vmulsd	%xmm2, %xmm5, %xmm4
	vmulsd	%xmm3, %xmm1, %xmm0
	vsubsd	%xmm0, %xmm4, %xmm4
	vmulsd	%xmm3, %xmm5, %xmm0
	vmulsd	%xmm2, %xmm1, %xmm6
	vaddsd	%xmm6, %xmm0, %xmm0
	vucomisd	%xmm0, %xmm4
	jp	.L94
.L31:
	vmovq	%r13, %xmm6
	vaddsd	%xmm4, %xmm6, %xmm4
	vmovsd	%xmm4, 16(%rbx)
	vaddsd	-240(%rbp), %xmm0, %xmm0
	vmovsd	%xmm0, 24(%rbx)
	.loc 1 251 3 discriminator 2
	vmovsd	96(%r12), %xmm0
	vmovsd	104(%r12), %xmm1
	vmovsd	(%r15), %xmm2
	vmovsd	8(%r15), %xmm3
	vmulsd	%xmm2, %xmm0, %xmm5
	vmulsd	%xmm3, %xmm1, %xmm4
	vsubsd	%xmm4, %xmm5, %xmm7
	vmovq	%xmm7, %r13
	vmulsd	%xmm3, %xmm0, %xmm5
	vmulsd	%xmm2, %xmm1, %xmm4
	vaddsd	%xmm4, %xmm5, %xmm7
	vmovsd	%xmm7, -240(%rbp)
	vmovq	%r13, %xmm6
	vucomisd	%xmm7, %xmm6
	jp	.L95
.L32:
	movq	%r13, 32(%rbx)
	vmovsd	-240(%rbp), %xmm3
	vmovsd	%xmm3, 40(%rbx)
	.loc 1 251 3 discriminator 2
	vmovsd	112(%r12), %xmm5
	vmovsd	120(%r12), %xmm1
	vmovsd	16(%r15), %xmm2
	vmovsd	24(%r15), %xmm3
	vmulsd	%xmm2, %xmm5, %xmm4
	vmulsd	%xmm3, %xmm1, %xmm0
	vsubsd	%xmm0, %xmm4, %xmm4
	vmulsd	%xmm3, %xmm5, %xmm0
	vmulsd	%xmm2, %xmm1, %xmm6
	vaddsd	%xmm6, %xmm0, %xmm0
	vucomisd	%xmm0, %xmm4
	jp	.L96
.L33:
	vmovq	%r13, %xmm2
	vaddsd	%xmm4, %xmm2, %xmm5
	vmovq	%xmm5, %r13
	vaddsd	-240(%rbp), %xmm0, %xmm6
	vmovsd	%xmm6, -240(%rbp)
	vmovsd	%xmm5, 32(%rbx)
	vmovsd	%xmm6, 40(%rbx)
	.loc 1 251 3 discriminator 2
	vmovsd	128(%r12), %xmm5
	vmovsd	136(%r12), %xmm1
	vmovsd	32(%r15), %xmm2
	vmovsd	40(%r15), %xmm3
	vmulsd	%xmm2, %xmm5, %xmm4
	vmulsd	%xmm3, %xmm1, %xmm0
	vsubsd	%xmm0, %xmm4, %xmm4
	vmulsd	%xmm3, %xmm5, %xmm0
	vmulsd	%xmm2, %xmm1, %xmm6
	vaddsd	%xmm6, %xmm0, %xmm0
	vucomisd	%xmm0, %xmm4
	jp	.L97
.L34:
	vmovq	%r13, %xmm3
	vaddsd	%xmm4, %xmm3, %xmm4
	vmovsd	%xmm4, 32(%rbx)
	vaddsd	-240(%rbp), %xmm0, %xmm0
	vmovsd	%xmm0, 40(%rbx)
	.loc 1 236 19 discriminator 2
.LVL211:
	.loc 1 236 13 discriminator 2
	addq	$48, -264(%rbp)
	addq	$48, -272(%rbp)
	addq	$144, -288(%rbp)
	addq	$48, -232(%rbp)
.LVL212:
	movq	-232(%rbp), %rax
	movabsq	$4800000000, %rsi
	cmpq	%rsi, %rax
	je	.L35
.LVL213:
.L14:
	.loc 1 239 15
	.loc 1 241 26 is_stmt 0
	movq	-248(%rbp), %rsi
	movq	-232(%rbp), %rax
	leaq	(%rsi,%rax), %rdi
	.loc 1 241 11
	leaq	(%r14,%rax), %rsi
	.loc 1 242 27
	movq	-256(%rbp), %rcx
	addq	%rax, %rcx
	.loc 1 242 12
	leaq	(%r15,%rax), %rdx
	movl	$0, %eax
.LVL214:
.L15:
	.loc 1 241 7 is_stmt 1 discriminator 3
	vmovsd	(%rdi,%rax), %xmm1
	vmovsd	8(%rdi,%rax), %xmm0
	.loc 1 241 21 is_stmt 0 discriminator 3
	vmovsd	%xmm1, (%rsi,%rax)
	vmovsd	%xmm0, 8(%rsi,%rax)
	.loc 1 242 7 is_stmt 1 discriminator 3
	vmovsd	(%rcx,%rax), %xmm1
	vmovsd	8(%rcx,%rax), %xmm0
	.loc 1 242 22 is_stmt 0 discriminator 3
	vmovsd	%xmm1, (%rdx,%rax)
	vmovsd	%xmm0, 8(%rdx,%rax)
	.loc 1 239 20 is_stmt 1 discriminator 3
.LVL215:
	.loc 1 239 15 discriminator 3
	addq	$16, %rax
.LVL216:
	cmpq	$48, %rax
	jne	.L15
	.loc 1 247 25 is_stmt 0
	movq	-288(%rbp), %rcx
	.loc 1 247 10
	movq	-232(%rbp), %rax
.LVL217:
	leaq	(%rax,%rax,2), %rdx
	addq	%r12, %rdx
	movl	$0, %eax
	jmp	.L16
.LVL218:
.L80:
	call	__muldc3
.LVL219:
	.loc 1 250 3
	vmovq	%xmm0, %r13
	vmovsd	%xmm1, -240(%rbp)
	jmp	.L17
.L81:
	vmovsd	%xmm5, %xmm5, %xmm0
	call	__muldc3
.LVL220:
	vmovsd	%xmm0, %xmm0, %xmm4
	vmovsd	%xmm1, %xmm1, %xmm0
	jmp	.L18
.L82:
	vmovsd	%xmm5, %xmm5, %xmm0
	call	__muldc3
.LVL221:
	vmovsd	%xmm0, %xmm0, %xmm4
	vmovsd	%xmm1, %xmm1, %xmm0
	jmp	.L19
.L83:
	call	__muldc3
.LVL222:
	vmovq	%xmm0, %r13
	vmovsd	%xmm1, -240(%rbp)
	jmp	.L20
.L84:
	vmovsd	%xmm5, %xmm5, %xmm0
	call	__muldc3
.LVL223:
	vmovsd	%xmm0, %xmm0, %xmm4
	vmovsd	%xmm1, %xmm1, %xmm0
	jmp	.L21
.L85:
	vmovsd	%xmm5, %xmm5, %xmm0
	call	__muldc3
.LVL224:
	vmovsd	%xmm0, %xmm0, %xmm4
	vmovsd	%xmm1, %xmm1, %xmm0
	jmp	.L22
.L86:
	call	__muldc3
.LVL225:
	vmovq	%xmm0, %r13
	vmovsd	%xmm1, -240(%rbp)
	jmp	.L23
.L87:
	vmovsd	%xmm5, %xmm5, %xmm0
	call	__muldc3
.LVL226:
	vmovsd	%xmm0, %xmm0, %xmm4
	vmovsd	%xmm1, %xmm1, %xmm0
	jmp	.L24
.L88:
	vmovsd	%xmm5, %xmm5, %xmm0
	call	__muldc3
.LVL227:
	vmovsd	%xmm0, %xmm0, %xmm4
	vmovsd	%xmm1, %xmm1, %xmm0
	jmp	.L25
.L89:
	call	__muldc3
.LVL228:
	.loc 1 251 3
	vmovq	%xmm0, %r13
	vmovsd	%xmm1, -240(%rbp)
	jmp	.L26
.L90:
	vmovsd	%xmm5, %xmm5, %xmm0
	call	__muldc3
.LVL229:
	vmovsd	%xmm0, %xmm0, %xmm4
	vmovsd	%xmm1, %xmm1, %xmm0
	jmp	.L27
.L91:
	vmovsd	%xmm5, %xmm5, %xmm0
	call	__muldc3
.LVL230:
	vmovsd	%xmm0, %xmm0, %xmm4
	vmovsd	%xmm1, %xmm1, %xmm0
	jmp	.L28
.L92:
	call	__muldc3
.LVL231:
	vmovq	%xmm0, %r13
	vmovsd	%xmm1, -240(%rbp)
	jmp	.L29
.L93:
	vmovsd	%xmm5, %xmm5, %xmm0
	call	__muldc3
.LVL232:
	vmovsd	%xmm0, %xmm0, %xmm4
	vmovsd	%xmm1, %xmm1, %xmm0
	jmp	.L30
.L94:
	vmovsd	%xmm5, %xmm5, %xmm0
	call	__muldc3
.LVL233:
	vmovsd	%xmm0, %xmm0, %xmm4
	vmovsd	%xmm1, %xmm1, %xmm0
	jmp	.L31
.L95:
	call	__muldc3
.LVL234:
	vmovq	%xmm0, %r13
	vmovsd	%xmm1, -240(%rbp)
	jmp	.L32
.L96:
	vmovsd	%xmm5, %xmm5, %xmm0
	call	__muldc3
.LVL235:
	vmovsd	%xmm0, %xmm0, %xmm4
	vmovsd	%xmm1, %xmm1, %xmm0
	jmp	.L33
.L97:
	vmovsd	%xmm5, %xmm5, %xmm0
	call	__muldc3
.LVL236:
	vmovsd	%xmm0, %xmm0, %xmm4
	vmovsd	%xmm1, %xmm1, %xmm0
	jmp	.L34
.LVL237:
.L35:
	.loc 1 256 3 is_stmt 1
	movl	$0, %esi
	leaq	-64(%rbp), %rdi
	call	gettimeofday
.LVL238:
	.loc 1 258 5
	.loc 1 258 9 is_stmt 0
	call	omp_get_wtime
.LVL239:
	vmovsd	%xmm0, -288(%rbp)
.LVL240:
	.loc 1 260 3 is_stmt 1
	.loc 1 260 6 is_stmt 0
	call	clock
.LVL241:
	movq	%rax, %r15
.LVL242:
	.loc 1 261 2 is_stmt 1
	.loc 1 261 12
	.loc 1 260 6 is_stmt 0
	movq	-312(%rbp), %rax
.LVL243:
	movq	%rax, -272(%rbp)
	movq	-320(%rbp), %rax
	movq	%rax, -264(%rbp)
	movl	$0, %r13d
	movq	%r13, -232(%rbp)
	movq	%r15, -360(%rbp)
	movq	-328(%rbp), %r15
.LVL244:
	jmp	.L36
.LVL245:
.L38:
	.loc 1 271 7 is_stmt 1 discriminator 3
	vmovsd	(%rcx,%rax), %xmm1
	vmovsd	8(%rcx,%rax), %xmm0
	.loc 1 271 20 is_stmt 0 discriminator 3
	vmovsd	%xmm1, (%rdx,%rax)
	vmovsd	%xmm0, 8(%rdx,%rax)
	.loc 1 269 20 is_stmt 1 discriminator 3
.LVL246:
	.loc 1 269 15 discriminator 3
	addq	$16, %rax
.LVL247:
	cmpq	$144, %rax
	jne	.L38
	.loc 1 274 3 discriminator 2
#APP
# 274 "avx_complex_vec_align_load.c" 1
	# LLVM-MCA-BEGIN _suNf_theta_T_multiply
# 0 "" 2
	.loc 1 275 3 discriminator 2
#NO_APP
	vmovsd	(%r12), %xmm0
	vmovsd	8(%r12), %xmm1
	vmovsd	(%r14), %xmm2
	vmovsd	8(%r14), %xmm3
	vmulsd	%xmm2, %xmm0, %xmm5
	vmulsd	%xmm3, %xmm1, %xmm4
	vsubsd	%xmm4, %xmm5, %xmm5
	vmovq	%xmm5, %r13
	vmulsd	%xmm3, %xmm0, %xmm5
	vmulsd	%xmm2, %xmm1, %xmm4
	vaddsd	%xmm4, %xmm5, %xmm7
	vmovsd	%xmm7, -240(%rbp)
	vmovq	%r13, %xmm6
	vucomisd	%xmm7, %xmm6
	jp	.L98
.LVL248:
.L39:
	movq	-272(%rbp), %rax
	movq	%rax, %rbx
	movq	%r13, (%rax)
	vmovsd	-240(%rbp), %xmm2
	vmovsd	%xmm2, 8(%rax)
	.loc 1 275 3 discriminator 2
	vmovsd	16(%r12), %xmm5
	vmovsd	24(%r12), %xmm1
	vmovsd	16(%r14), %xmm2
	vmovsd	24(%r14), %xmm3
	vmulsd	%xmm2, %xmm5, %xmm4
	vmulsd	%xmm3, %xmm1, %xmm0
	vsubsd	%xmm0, %xmm4, %xmm4
	vmulsd	%xmm3, %xmm5, %xmm0
	vmulsd	%xmm2, %xmm1, %xmm6
	vaddsd	%xmm6, %xmm0, %xmm0
	vucomisd	%xmm0, %xmm4
	jp	.L99
.L40:
	vmovq	%r13, %xmm3
	vaddsd	%xmm4, %xmm3, %xmm7
	vmovq	%xmm7, %r13
	vaddsd	-240(%rbp), %xmm0, %xmm6
	vmovsd	%xmm6, -240(%rbp)
	vmovsd	%xmm7, (%rbx)
	vmovsd	%xmm6, 8(%rbx)
	.loc 1 275 3 discriminator 2
	vmovsd	32(%r12), %xmm5
	vmovsd	40(%r12), %xmm1
	vmovsd	32(%r14), %xmm2
	vmovsd	40(%r14), %xmm3
	vmulsd	%xmm2, %xmm5, %xmm4
	vmulsd	%xmm3, %xmm1, %xmm0
	vsubsd	%xmm0, %xmm4, %xmm4
	vmulsd	%xmm3, %xmm5, %xmm0
	vmulsd	%xmm2, %xmm1, %xmm6
	vaddsd	%xmm6, %xmm0, %xmm0
	vucomisd	%xmm0, %xmm4
	jp	.L100
.L41:
	vmovq	%r13, %xmm2
	vaddsd	%xmm4, %xmm2, %xmm4
	vmovsd	%xmm4, (%rbx)
	vaddsd	-240(%rbp), %xmm0, %xmm0
	vmovsd	%xmm0, 8(%rbx)
	.loc 1 275 3 discriminator 2
	vmovsd	48(%r12), %xmm0
	vmovsd	56(%r12), %xmm1
	vmovsd	(%r14), %xmm2
	vmovsd	8(%r14), %xmm3
	vmulsd	%xmm2, %xmm0, %xmm5
	vmulsd	%xmm3, %xmm1, %xmm4
	vsubsd	%xmm4, %xmm5, %xmm6
	vmovq	%xmm6, %r13
	vmulsd	%xmm3, %xmm0, %xmm5
	vmulsd	%xmm2, %xmm1, %xmm4
	vaddsd	%xmm4, %xmm5, %xmm7
	vmovsd	%xmm7, -240(%rbp)
	vucomisd	%xmm7, %xmm6
	jp	.L101
.L42:
	movq	%r13, 16(%rbx)
	vmovsd	-240(%rbp), %xmm3
	vmovsd	%xmm3, 24(%rbx)
	.loc 1 275 3 discriminator 2
	vmovsd	64(%r12), %xmm5
	vmovsd	72(%r12), %xmm1
	vmovsd	16(%r14), %xmm2
	vmovsd	24(%r14), %xmm3
	vmulsd	%xmm2, %xmm5, %xmm4
	vmulsd	%xmm3, %xmm1, %xmm0
	vsubsd	%xmm0, %xmm4, %xmm4
	vmulsd	%xmm3, %xmm5, %xmm0
	vmulsd	%xmm2, %xmm1, %xmm6
	vaddsd	%xmm6, %xmm0, %xmm0
	vucomisd	%xmm0, %xmm4
	jp	.L102
.L43:
	vmovq	%r13, %xmm7
	vaddsd	%xmm4, %xmm7, %xmm2
	vmovq	%xmm2, %r13
	vaddsd	-240(%rbp), %xmm0, %xmm6
	vmovsd	%xmm6, -240(%rbp)
	vmovsd	%xmm2, 16(%rbx)
	vmovsd	%xmm6, 24(%rbx)
	.loc 1 275 3 discriminator 2
	vmovsd	80(%r12), %xmm5
	vmovsd	88(%r12), %xmm1
	vmovsd	32(%r14), %xmm2
	vmovsd	40(%r14), %xmm3
	vmulsd	%xmm2, %xmm5, %xmm4
	vmulsd	%xmm3, %xmm1, %xmm0
	vsubsd	%xmm0, %xmm4, %xmm4
	vmulsd	%xmm3, %xmm5, %xmm0
	vmulsd	%xmm2, %xmm1, %xmm6
	vaddsd	%xmm6, %xmm0, %xmm0
	vucomisd	%xmm0, %xmm4
	jp	.L103
.L44:
	vmovq	%r13, %xmm6
	vaddsd	%xmm4, %xmm6, %xmm4
	vmovsd	%xmm4, 16(%rbx)
	vaddsd	-240(%rbp), %xmm0, %xmm0
	vmovsd	%xmm0, 24(%rbx)
	.loc 1 275 3 discriminator 2
	vmovsd	96(%r12), %xmm0
	vmovsd	104(%r12), %xmm1
	vmovsd	(%r14), %xmm2
	vmovsd	8(%r14), %xmm3
	vmulsd	%xmm2, %xmm0, %xmm5
	vmulsd	%xmm3, %xmm1, %xmm4
	vsubsd	%xmm4, %xmm5, %xmm7
	vmovq	%xmm7, %r13
	vmulsd	%xmm3, %xmm0, %xmm5
	vmulsd	%xmm2, %xmm1, %xmm4
	vaddsd	%xmm4, %xmm5, %xmm7
	vmovsd	%xmm7, -240(%rbp)
	vmovq	%r13, %xmm6
	vucomisd	%xmm7, %xmm6
	jp	.L104
.L45:
	movq	%r13, 32(%rbx)
	vmovsd	-240(%rbp), %xmm2
	vmovsd	%xmm2, 40(%rbx)
	.loc 1 275 3 discriminator 2
	vmovsd	112(%r12), %xmm5
	vmovsd	120(%r12), %xmm1
	vmovsd	16(%r14), %xmm2
	vmovsd	24(%r14), %xmm3
	vmulsd	%xmm2, %xmm5, %xmm4
	vmulsd	%xmm3, %xmm1, %xmm0
	vsubsd	%xmm0, %xmm4, %xmm4
	vmulsd	%xmm3, %xmm5, %xmm0
	vmulsd	%xmm2, %xmm1, %xmm6
	vaddsd	%xmm6, %xmm0, %xmm0
	vucomisd	%xmm0, %xmm4
	jp	.L105
.L46:
	vmovq	%r13, %xmm5
	vaddsd	%xmm4, %xmm5, %xmm3
	vmovq	%xmm3, %r13
	vaddsd	-240(%rbp), %xmm0, %xmm6
	vmovsd	%xmm6, -240(%rbp)
	vmovsd	%xmm3, 32(%rbx)
	vmovsd	%xmm6, 40(%rbx)
	.loc 1 275 3 discriminator 2
	vmovsd	128(%r12), %xmm5
	vmovsd	136(%r12), %xmm1
	vmovsd	32(%r14), %xmm2
	vmovsd	40(%r14), %xmm3
	vmulsd	%xmm2, %xmm5, %xmm4
	vmulsd	%xmm3, %xmm1, %xmm0
	vsubsd	%xmm0, %xmm4, %xmm4
	vmulsd	%xmm3, %xmm5, %xmm0
	vmulsd	%xmm2, %xmm1, %xmm6
	vaddsd	%xmm6, %xmm0, %xmm0
	vucomisd	%xmm0, %xmm4
	jp	.L106
.L47:
	vmovq	%r13, %xmm7
	vaddsd	%xmm4, %xmm7, %xmm4
	vmovsd	%xmm4, 32(%rbx)
	vaddsd	-240(%rbp), %xmm0, %xmm0
	vmovsd	%xmm0, 40(%rbx)
	.loc 1 276 3 discriminator 2
	vmovsd	(%r12), %xmm0
	vmovsd	8(%r12), %xmm1
	vmovsd	(%r15), %xmm2
	vmovsd	8(%r15), %xmm3
	vmulsd	%xmm2, %xmm0, %xmm5
	vmulsd	%xmm3, %xmm1, %xmm4
	vsubsd	%xmm4, %xmm5, %xmm6
	vmovq	%xmm6, %r13
	vmulsd	%xmm3, %xmm0, %xmm5
	vmulsd	%xmm2, %xmm1, %xmm4
	vaddsd	%xmm4, %xmm5, %xmm7
	vmovsd	%xmm7, -240(%rbp)
	vucomisd	%xmm7, %xmm6
	jp	.L107
.L48:
	movq	-264(%rbp), %rax
	movq	%rax, %rbx
	movq	%r13, (%rax)
	vmovsd	-240(%rbp), %xmm2
	vmovsd	%xmm2, 8(%rax)
	.loc 1 276 3 discriminator 2
	vmovsd	16(%r12), %xmm5
	vmovsd	24(%r12), %xmm1
	vmovsd	16(%r15), %xmm2
	vmovsd	24(%r15), %xmm3
	vmulsd	%xmm2, %xmm5, %xmm4
	vmulsd	%xmm3, %xmm1, %xmm0
	vsubsd	%xmm0, %xmm4, %xmm4
	vmulsd	%xmm3, %xmm5, %xmm0
	vmulsd	%xmm2, %xmm1, %xmm6
	vaddsd	%xmm6, %xmm0, %xmm0
	vucomisd	%xmm0, %xmm4
	jp	.L108
.L49:
	vmovq	%r13, %xmm3
	vaddsd	%xmm4, %xmm3, %xmm7
	vmovq	%xmm7, %r13
	vaddsd	-240(%rbp), %xmm0, %xmm6
	vmovsd	%xmm6, -240(%rbp)
	vmovsd	%xmm7, (%rbx)
	vmovsd	%xmm6, 8(%rbx)
	.loc 1 276 3 discriminator 2
	vmovsd	32(%r12), %xmm5
	vmovsd	40(%r12), %xmm1
	vmovsd	32(%r15), %xmm2
	vmovsd	40(%r15), %xmm3
	vmulsd	%xmm2, %xmm5, %xmm4
	vmulsd	%xmm3, %xmm1, %xmm0
	vsubsd	%xmm0, %xmm4, %xmm4
	vmulsd	%xmm3, %xmm5, %xmm0
	vmulsd	%xmm2, %xmm1, %xmm6
	vaddsd	%xmm6, %xmm0, %xmm0
	vucomisd	%xmm0, %xmm4
	jp	.L109
.L50:
	vmovq	%r13, %xmm5
	vaddsd	%xmm4, %xmm5, %xmm4
	vmovsd	%xmm4, (%rbx)
	vaddsd	-240(%rbp), %xmm0, %xmm0
	vmovsd	%xmm0, 8(%rbx)
	.loc 1 276 3 discriminator 2
	vmovsd	48(%r12), %xmm0
	vmovsd	56(%r12), %xmm1
	vmovsd	(%r15), %xmm2
	vmovsd	8(%r15), %xmm3
	vmulsd	%xmm2, %xmm0, %xmm5
	vmulsd	%xmm3, %xmm1, %xmm4
	vsubsd	%xmm4, %xmm5, %xmm7
	vmovq	%xmm7, %r13
	vmulsd	%xmm3, %xmm0, %xmm5
	vmulsd	%xmm2, %xmm1, %xmm4
	vaddsd	%xmm4, %xmm5, %xmm5
	vmovsd	%xmm5, -240(%rbp)
	vucomisd	%xmm5, %xmm7
	jp	.L110
.L51:
	movq	%r13, 16(%rbx)
	vmovsd	-240(%rbp), %xmm3
	vmovsd	%xmm3, 24(%rbx)
	.loc 1 276 3 discriminator 2
	vmovsd	64(%r12), %xmm5
	vmovsd	72(%r12), %xmm1
	vmovsd	16(%r15), %xmm2
	vmovsd	24(%r15), %xmm3
	vmulsd	%xmm2, %xmm5, %xmm4
	vmulsd	%xmm3, %xmm1, %xmm0
	vsubsd	%xmm0, %xmm4, %xmm4
	vmulsd	%xmm3, %xmm5, %xmm0
	vmulsd	%xmm2, %xmm1, %xmm6
	vaddsd	%xmm6, %xmm0, %xmm0
	vucomisd	%xmm0, %xmm4
	jp	.L111
.L52:
	vmovq	%r13, %xmm2
	vaddsd	%xmm4, %xmm2, %xmm5
	vmovq	%xmm5, %r13
	vaddsd	-240(%rbp), %xmm0, %xmm3
	vmovsd	%xmm3, -240(%rbp)
	vmovsd	%xmm5, 16(%rbx)
	vmovsd	%xmm3, 24(%rbx)
	.loc 1 276 3 discriminator 2
	vmovsd	80(%r12), %xmm5
	vmovsd	88(%r12), %xmm1
	vmovsd	32(%r15), %xmm2
	vmovsd	40(%r15), %xmm3
	vmulsd	%xmm2, %xmm5, %xmm4
	vmulsd	%xmm3, %xmm1, %xmm0
	vsubsd	%xmm0, %xmm4, %xmm4
	vmulsd	%xmm3, %xmm5, %xmm0
	vmulsd	%xmm2, %xmm1, %xmm6
	vaddsd	%xmm6, %xmm0, %xmm0
	vucomisd	%xmm0, %xmm4
	jp	.L112
.L53:
	vmovq	%r13, %xmm3
	vaddsd	%xmm4, %xmm3, %xmm4
	vmovsd	%xmm4, 16(%rbx)
	vaddsd	-240(%rbp), %xmm0, %xmm0
	vmovsd	%xmm0, 24(%rbx)
	.loc 1 276 3 discriminator 2
	vmovsd	96(%r12), %xmm0
	vmovsd	104(%r12), %xmm1
	vmovsd	(%r15), %xmm2
	vmovsd	8(%r15), %xmm3
	vmulsd	%xmm2, %xmm0, %xmm5
	vmulsd	%xmm3, %xmm1, %xmm4
	vsubsd	%xmm4, %xmm5, %xmm5
	vmovq	%xmm5, %r13
	vmulsd	%xmm3, %xmm0, %xmm5
	vmulsd	%xmm2, %xmm1, %xmm4
	vaddsd	%xmm4, %xmm5, %xmm7
	vmovsd	%xmm7, -240(%rbp)
	vmovq	%r13, %xmm6
	vucomisd	%xmm7, %xmm6
	jp	.L113
.L54:
	movq	%r13, 32(%rbx)
	vmovsd	-240(%rbp), %xmm2
	vmovsd	%xmm2, 40(%rbx)
	.loc 1 276 3 discriminator 2
	vmovsd	112(%r12), %xmm5
	vmovsd	120(%r12), %xmm1
	vmovsd	16(%r15), %xmm2
	vmovsd	24(%r15), %xmm3
	vmulsd	%xmm2, %xmm5, %xmm4
	vmulsd	%xmm3, %xmm1, %xmm0
	vsubsd	%xmm0, %xmm4, %xmm4
	vmulsd	%xmm3, %xmm5, %xmm0
	vmulsd	%xmm2, %xmm1, %xmm6
	vaddsd	%xmm6, %xmm0, %xmm0
	vucomisd	%xmm0, %xmm4
	jp	.L114
.L55:
	vmovq	%r13, %xmm3
	vaddsd	%xmm4, %xmm3, %xmm7
	vmovq	%xmm7, %r13
	vaddsd	-240(%rbp), %xmm0, %xmm6
	vmovsd	%xmm6, -240(%rbp)
	vmovsd	%xmm7, 32(%rbx)
	vmovsd	%xmm6, 40(%rbx)
	.loc 1 276 3 discriminator 2
	vmovsd	128(%r12), %xmm5
	vmovsd	136(%r12), %xmm1
	vmovsd	32(%r15), %xmm2
	vmovsd	40(%r15), %xmm3
	vmulsd	%xmm2, %xmm5, %xmm4
	vmulsd	%xmm3, %xmm1, %xmm0
	vsubsd	%xmm0, %xmm4, %xmm4
	vmulsd	%xmm3, %xmm5, %xmm0
	vmulsd	%xmm2, %xmm1, %xmm6
	vaddsd	%xmm6, %xmm0, %xmm0
	vucomisd	%xmm0, %xmm4
	jp	.L115
.L56:
	vmovq	%r13, %xmm2
	vaddsd	%xmm4, %xmm2, %xmm4
	vmovsd	%xmm4, 32(%rbx)
	vaddsd	-240(%rbp), %xmm0, %xmm0
	vmovsd	%xmm0, 40(%rbx)
	.loc 1 277 3 discriminator 2
#APP
# 277 "avx_complex_vec_align_load.c" 1
	# LLVM-MCA-END
# 0 "" 2
	.loc 1 261 18 discriminator 2
.LVL249:
	.loc 1 261 12 discriminator 2
#NO_APP
	addq	$48, -264(%rbp)
	addq	$48, -272(%rbp)
	addq	$144, -280(%rbp)
	addq	$48, -232(%rbp)
.LVL250:
	movq	-232(%rbp), %rax
	movabsq	$4800000000, %rsi
	cmpq	%rsi, %rax
	je	.L57
.LVL251:
.L36:
	.loc 1 263 15
	.loc 1 265 26 is_stmt 0
	movq	-248(%rbp), %rsi
	movq	-232(%rbp), %rax
	leaq	(%rsi,%rax), %rdi
	.loc 1 265 11
	leaq	(%r14,%rax), %rsi
	.loc 1 266 27
	movq	-256(%rbp), %rcx
	addq	%rax, %rcx
	.loc 1 266 12
	leaq	(%r15,%rax), %rdx
	movl	$0, %eax
.LVL252:
.L37:
	.loc 1 265 7 is_stmt 1 discriminator 3
	vmovsd	(%rdi,%rax), %xmm1
	vmovsd	8(%rdi,%rax), %xmm0
	.loc 1 265 21 is_stmt 0 discriminator 3
	vmovsd	%xmm1, (%rsi,%rax)
	vmovsd	%xmm0, 8(%rsi,%rax)
	.loc 1 266 7 is_stmt 1 discriminator 3
	vmovsd	(%rcx,%rax), %xmm1
	vmovsd	8(%rcx,%rax), %xmm0
	.loc 1 266 22 is_stmt 0 discriminator 3
	vmovsd	%xmm1, (%rdx,%rax)
	vmovsd	%xmm0, 8(%rdx,%rax)
	.loc 1 263 20 is_stmt 1 discriminator 3
.LVL253:
	.loc 1 263 15 discriminator 3
	addq	$16, %rax
.LVL254:
	cmpq	$48, %rax
	jne	.L37
	.loc 1 271 25 is_stmt 0
	movq	-280(%rbp), %rcx
	.loc 1 271 10
	movq	-232(%rbp), %rax
.LVL255:
	leaq	(%rax,%rax,2), %rdx
	addq	%r12, %rdx
	movl	$0, %eax
	jmp	.L38
.LVL256:
.L98:
	call	__muldc3
.LVL257:
	.loc 1 275 3
	vmovq	%xmm0, %r13
	vmovsd	%xmm1, -240(%rbp)
	jmp	.L39
.L99:
	vmovsd	%xmm5, %xmm5, %xmm0
	call	__muldc3
.LVL258:
	vmovsd	%xmm0, %xmm0, %xmm4
	vmovsd	%xmm1, %xmm1, %xmm0
	jmp	.L40
.L100:
	vmovsd	%xmm5, %xmm5, %xmm0
	call	__muldc3
.LVL259:
	vmovsd	%xmm0, %xmm0, %xmm4
	vmovsd	%xmm1, %xmm1, %xmm0
	jmp	.L41
.L101:
	call	__muldc3
.LVL260:
	vmovq	%xmm0, %r13
	vmovsd	%xmm1, -240(%rbp)
	jmp	.L42
.L102:
	vmovsd	%xmm5, %xmm5, %xmm0
	call	__muldc3
.LVL261:
	vmovsd	%xmm0, %xmm0, %xmm4
	vmovsd	%xmm1, %xmm1, %xmm0
	jmp	.L43
.L103:
	vmovsd	%xmm5, %xmm5, %xmm0
	call	__muldc3
.LVL262:
	vmovsd	%xmm0, %xmm0, %xmm4
	vmovsd	%xmm1, %xmm1, %xmm0
	jmp	.L44
.L104:
	call	__muldc3
.LVL263:
	vmovq	%xmm0, %r13
	vmovsd	%xmm1, -240(%rbp)
	jmp	.L45
.L105:
	vmovsd	%xmm5, %xmm5, %xmm0
	call	__muldc3
.LVL264:
	vmovsd	%xmm0, %xmm0, %xmm4
	vmovsd	%xmm1, %xmm1, %xmm0
	jmp	.L46
.L106:
	vmovsd	%xmm5, %xmm5, %xmm0
	call	__muldc3
.LVL265:
	vmovsd	%xmm0, %xmm0, %xmm4
	vmovsd	%xmm1, %xmm1, %xmm0
	jmp	.L47
.L107:
	call	__muldc3
.LVL266:
	.loc 1 276 3
	vmovq	%xmm0, %r13
	vmovsd	%xmm1, -240(%rbp)
	jmp	.L48
.L108:
	vmovsd	%xmm5, %xmm5, %xmm0
	call	__muldc3
.LVL267:
	vmovsd	%xmm0, %xmm0, %xmm4
	vmovsd	%xmm1, %xmm1, %xmm0
	jmp	.L49
.L109:
	vmovsd	%xmm5, %xmm5, %xmm0
	call	__muldc3
.LVL268:
	vmovsd	%xmm0, %xmm0, %xmm4
	vmovsd	%xmm1, %xmm1, %xmm0
	jmp	.L50
.L110:
	call	__muldc3
.LVL269:
	vmovq	%xmm0, %r13
	vmovsd	%xmm1, -240(%rbp)
	jmp	.L51
.L111:
	vmovsd	%xmm5, %xmm5, %xmm0
	call	__muldc3
.LVL270:
	vmovsd	%xmm0, %xmm0, %xmm4
	vmovsd	%xmm1, %xmm1, %xmm0
	jmp	.L52
.L112:
	vmovsd	%xmm5, %xmm5, %xmm0
	call	__muldc3
.LVL271:
	vmovsd	%xmm0, %xmm0, %xmm4
	vmovsd	%xmm1, %xmm1, %xmm0
	jmp	.L53
.L113:
	call	__muldc3
.LVL272:
	vmovq	%xmm0, %r13
	vmovsd	%xmm1, -240(%rbp)
	jmp	.L54
.L114:
	vmovsd	%xmm5, %xmm5, %xmm0
	call	__muldc3
.LVL273:
	vmovsd	%xmm0, %xmm0, %xmm4
	vmovsd	%xmm1, %xmm1, %xmm0
	jmp	.L55
.L115:
	vmovsd	%xmm5, %xmm5, %xmm0
	call	__muldc3
.LVL274:
	vmovsd	%xmm0, %xmm0, %xmm4
	vmovsd	%xmm1, %xmm1, %xmm0
	jmp	.L56
.LVL275:
.L57:
	.loc 1 280 6
	movq	-360(%rbp), %r15
	.loc 1 280 3 is_stmt 1
	.loc 1 280 6 is_stmt 0
	call	clock
.LVL276:
	movq	%rax, %rbx
.LVL277:
	.loc 1 282 5 is_stmt 1
	.loc 1 282 9 is_stmt 0
	call	omp_get_wtime
.LVL278:
	vmovq	%xmm0, %r13
.LVL279:
	.loc 1 284 3 is_stmt 1
	movl	$0, %esi
	leaq	-80(%rbp), %rdi
	call	gettimeofday
.LVL280:
	.loc 1 285 3
	leaq	-64(%rbp), %rdx
	leaq	-80(%rbp), %rsi
	leaq	-96(%rbp), %rdi
	call	timeval_subtract
.LVL281:
	.loc 1 287 5
	.loc 1 287 87 is_stmt 0
	subq	%r15, %rbx
.LVL282:
	.loc 1 287 5
	vxorpd	%xmm3, %xmm3, %xmm3
	vcvtsi2sdq	%rbx, %xmm3, %xmm0
	vdivsd	.LC1(%rip), %xmm0, %xmm0
	movl	$.LC2, %edx
	movl	$0, %esi
	movl	$.LC7, %edi
	movl	$1, %eax
	call	lprintf
.LVL283:
	.loc 1 289 5 is_stmt 1
	vmovq	%r13, %xmm6
	vsubsd	-288(%rbp), %xmm6, %xmm0
	movl	$.LC4, %edx
	movl	$0, %esi
	movl	$.LC7, %edi
	movl	$1, %eax
	call	lprintf
.LVL284:
	.loc 1 291 5
	.loc 1 291 118 is_stmt 0
	vxorpd	%xmm3, %xmm3, %xmm3
	vcvtsi2sdq	-88(%rbp), %xmm3, %xmm1
	vmulsd	.LC5(%rip), %xmm1, %xmm1
	.loc 1 291 5
	vcvtsi2sdq	-96(%rbp), %xmm3, %xmm0
	vaddsd	%xmm0, %xmm1, %xmm0
	movl	$.LC6, %edx
	movl	$0, %esi
	movl	$.LC7, %edi
	movl	$1, %eax
	call	lprintf
.LVL285:
	.loc 1 300 1 is_stmt 1
	.loc 1 300 15
	.loc 1 291 5 is_stmt 0
	movl	$0, %eax
	.loc 1 314 3
	movl	$1, %r13d
.LVL286:
	movq	%rax, %rbx
	movq	%r12, -360(%rbp)
.LVL287:
	movq	%r14, -368(%rbp)
	jmp	.L58
.LVL288:
.L60:
	.loc 1 315 3 discriminator 6
	movl	$.LC12, %ecx
	movl	$.LC13, %edx
	movl	%r13d, %esi
	call	error
.LVL289:
	.loc 1 317 3 is_stmt 1 discriminator 6
	.loc 1 318 3 discriminator 6
	.loc 1 319 3 discriminator 6
	.loc 1 320 3 discriminator 6
	.loc 1 322 3 discriminator 6
	.loc 1 323 3 discriminator 6
	.loc 1 324 3 discriminator 6
	.loc 1 325 3 discriminator 6
	.loc 1 302 18 discriminator 6
	.loc 1 302 13 discriminator 6
	addq	$16, %r14
.LVL290:
	cmpq	$48, %r14
	je	.L116
.LVL291:
.L61:
	.loc 1 304 3
	.loc 1 304 8 is_stmt 0
	vmovsd	(%r12,%r14), %xmm2
.LVL292:
	.loc 1 305 3 is_stmt 1
	.loc 1 305 8 is_stmt 0
	vmovsd	8(%r12,%r14), %xmm3
.LVL293:
	.loc 1 306 3 is_stmt 1
	.loc 1 306 8 is_stmt 0
	vmovsd	(%rbx,%r14), %xmm7
	vmovsd	%xmm7, -232(%rbp)
.LVL294:
	.loc 1 307 3 is_stmt 1
	.loc 1 307 8 is_stmt 0
	vmovsd	8(%rbx,%r14), %xmm7
.LVL295:
	vmovsd	%xmm7, -264(%rbp)
.LVL296:
	.loc 1 309 3 is_stmt 1
	.loc 1 310 3
	.loc 1 310 9 is_stmt 0
	vmovsd	8(%r15,%r14), %xmm1
.LVL297:
	.loc 1 311 3 is_stmt 1
	.loc 1 311 9 is_stmt 0
	movq	-280(%rbp), %rax
	vmovsd	(%rax,%r14), %xmm7
.LVL298:
	vmovsd	%xmm7, -240(%rbp)
.LVL299:
	.loc 1 312 3 is_stmt 1
	.loc 1 312 9 is_stmt 0
	vmovsd	8(%rax,%r14), %xmm7
.LVL300:
	vmovsd	%xmm7, -272(%rbp)
.LVL301:
	.loc 1 314 3 is_stmt 1
	.loc 1 314 10 is_stmt 0
	vsubsd	(%r15,%r14), %xmm2, %xmm0
	vdivsd	%xmm2, %xmm0, %xmm0
	vandpd	.LC8(%rip), %xmm0, %xmm0
	.loc 1 314 3
	movl	%r13d, %edi
	vcomisd	.LC9(%rip), %xmm0
	ja	.L59
	.loc 1 314 51 discriminator 2
	vsubsd	%xmm1, %xmm3, %xmm1
.LVL302:
	vdivsd	%xmm3, %xmm1, %xmm1
	vandpd	.LC8(%rip), %xmm1, %xmm1
	.loc 1 314 3 discriminator 2
	vcomisd	.LC9(%rip), %xmm1
	seta	%dil
	movzbl	%dil, %edi
.L59:
	.loc 1 314 3 discriminator 6
	movl	$.LC10, %ecx
	movl	$.LC11, %edx
	movl	%r13d, %esi
	call	error
.LVL303:
	.loc 1 315 3 is_stmt 1 discriminator 6
	.loc 1 315 10 is_stmt 0 discriminator 6
	vmovsd	-232(%rbp), %xmm7
	vsubsd	-240(%rbp), %xmm7, %xmm0
	vdivsd	%xmm7, %xmm0, %xmm0
	vandpd	.LC8(%rip), %xmm0, %xmm0
	.loc 1 315 3 discriminator 6
	movl	%r13d, %edi
	vcomisd	.LC9(%rip), %xmm0
	ja	.L60
	.loc 1 315 52 discriminator 2
	vmovsd	-264(%rbp), %xmm7
	vsubsd	-272(%rbp), %xmm7, %xmm0
	vdivsd	%xmm7, %xmm0, %xmm0
	vandpd	.LC8(%rip), %xmm0, %xmm0
	.loc 1 315 3 discriminator 2
	vcomisd	.LC9(%rip), %xmm0
	seta	%dil
	movzbl	%dil, %edi
	jmp	.L60
.LVL304:
.L116:
	.loc 1 300 15 discriminator 2
	movq	-288(%rbp), %rbx
	.loc 1 300 22 is_stmt 1 discriminator 2
.LVL305:
	.loc 1 300 15 discriminator 2
	addq	$48, %rbx
.LVL306:
	movabsq	$4800000000, %rax
	cmpq	%rax, %rbx
	je	.L62
.LVL307:
.L58:
	.loc 1 302 13
	.loc 1 304 10 is_stmt 0
	movq	-296(%rbp), %rax
	leaq	(%rax,%rbx), %r12
	.loc 1 306 10
	movq	-304(%rbp), %rax
	addq	%rbx, %rax
	.loc 1 309 11
	movq	-312(%rbp), %rsi
	leaq	(%rsi,%rbx), %r15
	.loc 1 311 11
	movq	-320(%rbp), %rsi
	addq	%rbx, %rsi
	movq	%rsi, -280(%rbp)
	movl	$0, %r14d
	movq	%rbx, -288(%rbp)
	movq	%rax, %rbx
.LVL308:
	jmp	.L61
.LVL309:
.L62:
	.loc 1 330 3
	movq	-360(%rbp), %r12
	movq	-368(%rbp), %r14
.LVL310:
	.loc 1 330 3 is_stmt 1
	movq	%r12, %rdi
	call	afree
.LVL311:
	.loc 1 331 3
	movq	%r14, %rdi
	call	afree
.LVL312:
	.loc 1 332 3
	movq	-328(%rbp), %rdi
	call	afree
.LVL313:
	.loc 1 333 3
	movq	-296(%rbp), %rdi
	call	afree
.LVL314:
	.loc 1 334 3
	movq	-304(%rbp), %rdi
	call	afree
.LVL315:
	.loc 1 335 3
	movq	-344(%rbp), %rdi
	call	afree
.LVL316:
	.loc 1 336 3
	movq	-352(%rbp), %rdi
	call	afree
.LVL317:
	.loc 1 337 3
	movq	-312(%rbp), %rdi
	call	afree
.LVL318:
	.loc 1 338 3
	movq	-320(%rbp), %rdi
	call	afree
.LVL319:
	.loc 1 339 3
	movq	-248(%rbp), %rdi
	call	afree
.LVL320:
	.loc 1 340 3
	movq	-256(%rbp), %rdi
	call	afree
.LVL321:
	.loc 1 341 3
	movq	-336(%rbp), %rdi
	call	afree
.LVL322:
	.loc 1 343 3
	.loc 1 344 1 is_stmt 0
	movl	$0, %eax
	addq	$320, %rsp
	popq	%rbx
	popq	%r10
	.cfi_def_cfa 10, 0
	popq	%r12
	popq	%r13
	popq	%r14
	popq	%r15
	popq	%rbp
.LVL323:
	leaq	-8(%r10), %rsp
	.cfi_def_cfa 7, 8
	ret
	.cfi_endproc
.LFE6408:
	.size	main, .-main
	.globl	double_MVM_non_macro
	.type	double_MVM_non_macro, @function
double_MVM_non_macro:
.LFB6409:
	.loc 1 348 1 is_stmt 1
	.cfi_startproc
.LVL324:
	pushq	%rbp
	.cfi_def_cfa_offset 16
	.cfi_offset 6, -16
	movq	%rsp, %rbp
	.cfi_def_cfa_register 6
	andq	$-32, %rsp
	.loc 1 349 2
	.loc 1 350 2
	.loc 1 354 2
.LVL325:
.LBB858:
.LBB859:
	.loc 2 869 3
.LBE859:
.LBE858:
	.loc 1 355 2
.LBB860:
.LBB861:
	.loc 2 339 3
	.loc 2 339 20 is_stmt 0
	vpermilpd	$0, (%rdx), %ymm14
.LVL326:
.LBE861:
.LBE860:
	.loc 1 356 2 is_stmt 1
.LBB862:
.LBB863:
	.loc 2 339 3
	.loc 2 339 20 is_stmt 0
	vpermilpd	$15, (%rdx), %ymm0
.LVL327:
.LBE863:
.LBE862:
	.loc 1 359 2 is_stmt 1
.LBB864:
.LBB865:
	.loc 2 893 3
.LBE865:
.LBE864:
	.loc 1 360 2
.LBB866:
.LBB867:
	.loc 2 339 3
	.loc 2 339 20 is_stmt 0
	vpermilpd	$0, 48(%rdx), %ymm6
.LVL328:
.LBE867:
.LBE866:
	.loc 1 361 2 is_stmt 1
.LBB868:
.LBB869:
	.loc 2 339 3
	.loc 2 339 20 is_stmt 0
	vpermilpd	$15, 48(%rdx), %ymm3
.LVL329:
.LBE869:
.LBE868:
	.loc 1 364 2 is_stmt 1
.LBB870:
.LBB871:
	.loc 2 869 3
.LBE871:
.LBE870:
	.loc 1 365 2
.LBB872:
.LBB873:
	.loc 2 339 3
	.loc 2 339 20 is_stmt 0
	vpermilpd	$0, 96(%rdx), %ymm9
.LVL330:
.LBE873:
.LBE872:
	.loc 1 366 2 is_stmt 1
.LBB874:
.LBB875:
	.loc 2 339 3
	.loc 2 339 20 is_stmt 0
	vpermilpd	$15, 96(%rdx), %ymm5
.LVL331:
.LBE875:
.LBE874:
	.loc 1 369 2 is_stmt 1
.LBB876:
.LBB877:
	.loc 2 869 3
	.loc 2 869 10 is_stmt 0
	vmovapd	(%rcx), %ymm1
.LVL332:
.LBE877:
.LBE876:
	.loc 1 370 2 is_stmt 1
.LBB878:
.LBB879:
	.loc 2 339 3
	.loc 2 339 20 is_stmt 0
	vpermilpd	$5, %ymm1, %ymm10
.LVL333:
.LBE879:
.LBE878:
	.loc 1 373 2 is_stmt 1
.LBB880:
.LBB881:
	.loc 2 869 3
	.loc 2 869 10 is_stmt 0
	vmovapd	(%r8), %ymm11
.LVL334:
.LBE881:
.LBE880:
	.loc 1 374 2 is_stmt 1
.LBB882:
.LBB883:
	.loc 2 339 3
	.loc 2 339 20 is_stmt 0
	vpermilpd	$5, %ymm11, %ymm12
.LVL335:
.LBE883:
.LBE882:
	.loc 1 383 2 is_stmt 1
.LBB884:
.LBB885:
	.loc 2 314 3
.LBE885:
.LBE884:
	.loc 1 384 2
.LBB887:
.LBB888:
	.loc 3 241 3
.LBE888:
.LBE887:
.LBB890:
.LBB886:
	.loc 2 314 10 is_stmt 0
	vmulpd	%ymm10, %ymm0, %ymm2
.LVL336:
.LBE886:
.LBE890:
.LBB891:
.LBB889:
	.loc 3 241 19
	vfmaddsub231pd	%ymm1, %ymm14, %ymm2
.LVL337:
.LBE889:
.LBE891:
	.loc 1 387 2 is_stmt 1
.LBB892:
.LBB893:
	.loc 2 314 3
.LBE893:
.LBE892:
	.loc 1 388 2
.LBB895:
.LBB896:
	.loc 3 241 3
.LBE896:
.LBE895:
.LBB898:
.LBB894:
	.loc 2 314 10 is_stmt 0
	vmulpd	%ymm10, %ymm3, %ymm4
.LVL338:
.LBE894:
.LBE898:
.LBB899:
.LBB897:
	.loc 3 241 19
	vfmaddsub231pd	%ymm1, %ymm6, %ymm4
.LVL339:
.LBE897:
.LBE899:
	.loc 1 392 2 is_stmt 1
.LBB900:
.LBB901:
	.loc 2 690 3
	.loc 2 690 20 is_stmt 0
	vperm2f128	$2, %ymm2, %ymm4, %ymm7
.LVL340:
.LBE901:
.LBE900:
	.loc 1 393 2 is_stmt 1
.LBB902:
.LBB903:
	.loc 2 690 3
	.loc 2 690 20 is_stmt 0
	vperm2f128	$1, %ymm2, %ymm2, %ymm2
.LVL341:
.LBE903:
.LBE902:
	.loc 1 395 2 is_stmt 1
.LBB904:
.LBB905:
	.loc 2 196 3
	.loc 2 196 20 is_stmt 0
	vblendpd	$12, %ymm4, %ymm2, %ymm4
.LVL342:
	vmovapd	%ymm4, -32(%rsp)
.LVL343:
.LBE905:
.LBE904:
	.loc 1 396 2 is_stmt 1
.LBB906:
.LBB907:
	.loc 2 143 3
.LBE907:
.LBE906:
	.loc 1 399 2
.LBB909:
.LBB910:
	.loc 2 893 3
.LBE910:
.LBE909:
	.loc 1 400 2
.LBB911:
.LBB912:
	.loc 2 690 3
	.loc 2 690 20 is_stmt 0
	vmovupd	16(%rdx), %ymm2
	vperm2f128	$1, %ymm2, %ymm2, %ymm2
.LVL344:
.LBE912:
.LBE911:
	.loc 1 401 2 is_stmt 1
.LBB913:
.LBB914:
	.loc 2 869 3
.LBE914:
.LBE913:
	.loc 1 402 2
.LBB915:
.LBB916:
	.loc 2 196 3
	.loc 2 196 20 is_stmt 0
	vblendpd	$12, 64(%rdx), %ymm2, %ymm2
.LVL345:
.LBE916:
.LBE915:
	.loc 1 404 2 is_stmt 1
.LBB917:
.LBB918:
	.loc 2 893 3
	.loc 2 893 10 is_stmt 0
	vmovupd	16(%rcx), %ymm4
.LVL346:
.LBE918:
.LBE917:
	.loc 1 405 2 is_stmt 1
.LBB919:
.LBB920:
	.loc 2 690 3
	.loc 2 690 20 is_stmt 0
	vperm2f128	$1, %ymm4, %ymm4, %ymm8
.LVL347:
.LBE920:
.LBE919:
	.loc 1 406 2 is_stmt 1
.LBB921:
.LBB922:
	.loc 2 196 3
	.loc 2 196 20 is_stmt 0
	vblendpd	$12, %ymm4, %ymm8, %ymm4
.LVL348:
.LBE922:
.LBE921:
	.loc 1 408 2 is_stmt 1
.LBB923:
.LBB924:
	.loc 2 339 3
	.loc 2 339 20 is_stmt 0
	vpermilpd	$0, %ymm2, %ymm13
.LVL349:
.LBE924:
.LBE923:
	.loc 1 409 2 is_stmt 1
.LBB925:
.LBB926:
	.loc 2 339 3
	.loc 2 339 20 is_stmt 0
	vpermilpd	$15, %ymm2, %ymm2
.LVL350:
.LBE926:
.LBE925:
	.loc 1 410 2 is_stmt 1
.LBB927:
.LBB928:
	.loc 2 339 3
.LBE928:
.LBE927:
	.loc 1 412 2
.LBB930:
.LBB931:
	.loc 2 314 3
.LBE931:
.LBE930:
	.loc 1 413 2
.LBB933:
.LBB934:
	.loc 3 241 3
.LBE934:
.LBE933:
.LBB936:
.LBB929:
	.loc 2 339 20 is_stmt 0
	vpermilpd	$5, %ymm4, %ymm15
.LBE929:
.LBE936:
.LBB937:
.LBB932:
	.loc 2 314 10
	vmulpd	%ymm2, %ymm15, %ymm15
.LBE932:
.LBE937:
.LBB938:
.LBB935:
	.loc 3 241 19
	vfmaddsub132pd	%ymm13, %ymm15, %ymm4
.LVL351:
.LBE935:
.LBE938:
	.loc 1 416 2 is_stmt 1
.LBB939:
.LBB940:
	.loc 2 143 3
.LBE940:
.LBE939:
	.loc 1 421 2
.LBB942:
.LBB943:
	.loc 2 314 3
.LBE943:
.LBE942:
	.loc 1 422 2
.LBB945:
.LBB946:
	.loc 3 241 3
.LBE946:
.LBE945:
.LBB948:
.LBB944:
	.loc 2 314 10 is_stmt 0
	vmulpd	%ymm12, %ymm0, %ymm0
.LVL352:
.LBE944:
.LBE948:
.LBB949:
.LBB947:
	.loc 3 241 19
	vfmaddsub231pd	%ymm11, %ymm14, %ymm0
.LVL353:
.LBE947:
.LBE949:
	.loc 1 425 2 is_stmt 1
.LBB950:
.LBB951:
	.loc 2 314 3
.LBE951:
.LBE950:
	.loc 1 426 2
.LBB953:
.LBB954:
	.loc 3 241 3
.LBE954:
.LBE953:
.LBB956:
.LBB952:
	.loc 2 314 10 is_stmt 0
	vmulpd	%ymm12, %ymm3, %ymm3
.LVL354:
.LBE952:
.LBE956:
.LBB957:
.LBB955:
	.loc 3 241 19
	vfmaddsub231pd	%ymm11, %ymm6, %ymm3
.LVL355:
.LBE955:
.LBE957:
	.loc 1 430 2 is_stmt 1
.LBB958:
.LBB959:
	.loc 2 690 3
	.loc 2 690 20 is_stmt 0
	vperm2f128	$2, %ymm0, %ymm3, %ymm6
.LVL356:
.LBE959:
.LBE958:
	.loc 1 431 2 is_stmt 1
.LBB960:
.LBB961:
	.loc 2 690 3
	.loc 2 690 20 is_stmt 0
	vperm2f128	$1, %ymm0, %ymm0, %ymm0
.LVL357:
.LBE961:
.LBE960:
	.loc 1 433 2 is_stmt 1
.LBB962:
.LBB963:
	.loc 2 196 3
	.loc 2 196 20 is_stmt 0
	vblendpd	$12, %ymm3, %ymm0, %ymm0
.LVL358:
.LBE963:
.LBE962:
	.loc 1 434 2 is_stmt 1
.LBB964:
.LBB965:
	.loc 2 143 3
.LBE965:
.LBE964:
	.loc 1 437 2
.LBB967:
.LBB968:
	.loc 2 893 3
	.loc 2 893 10 is_stmt 0
	vmovupd	16(%r8), %ymm14
.LVL359:
.LBE968:
.LBE967:
	.loc 1 438 2 is_stmt 1
.LBB969:
.LBB970:
	.loc 2 690 3
	.loc 2 690 20 is_stmt 0
	vperm2f128	$1, %ymm14, %ymm14, %ymm15
.LVL360:
.LBE970:
.LBE969:
	.loc 1 439 2 is_stmt 1
.LBB971:
.LBB972:
	.loc 2 196 3
	.loc 2 196 20 is_stmt 0
	vblendpd	$12, %ymm14, %ymm15, %ymm15
.LVL361:
.LBE972:
.LBE971:
	.loc 1 441 2 is_stmt 1
.LBB973:
.LBB974:
	.loc 2 339 3
.LBE974:
.LBE973:
	.loc 1 442 2
.LBB976:
.LBB977:
	.loc 2 314 3
.LBE977:
.LBE976:
	.loc 1 443 2
.LBB979:
.LBB980:
	.loc 3 241 3
.LBE980:
.LBE979:
.LBB982:
.LBB975:
	.loc 2 339 20 is_stmt 0
	vpermilpd	$5, %ymm15, %ymm3
.LVL362:
.LBE975:
.LBE982:
.LBB983:
.LBB978:
	.loc 2 314 10
	vmulpd	%ymm2, %ymm3, %ymm3
.LBE978:
.LBE983:
.LBB984:
.LBB981:
	.loc 3 241 19
	vfmaddsub231pd	%ymm15, %ymm13, %ymm3
.LVL363:
.LBE981:
.LBE984:
	.loc 1 446 2 is_stmt 1
.LBB985:
.LBB986:
	.loc 2 143 3
.LBE986:
.LBE985:
	.loc 1 453 2
.LBB988:
.LBB989:
	.loc 2 314 3
.LBE989:
.LBE988:
	.loc 1 454 2
.LBB991:
.LBB992:
	.loc 3 241 3
.LBE992:
.LBE991:
.LBB994:
.LBB990:
	.loc 2 314 10 is_stmt 0
	vmulpd	%ymm10, %ymm5, %ymm10
.LVL364:
.LBE990:
.LBE994:
.LBB995:
.LBB993:
	.loc 3 241 19
	vfmaddsub132pd	%ymm9, %ymm10, %ymm1
.LVL365:
.LBE993:
.LBE995:
	.loc 1 459 2 is_stmt 1
.LBB996:
.LBB997:
	.loc 2 314 3
.LBE997:
.LBE996:
	.loc 1 460 2
.LBB999:
.LBB1000:
	.loc 3 241 3
.LBE1000:
.LBE999:
.LBB1002:
.LBB998:
	.loc 2 314 10 is_stmt 0
	vmulpd	%ymm12, %ymm5, %ymm5
.LVL366:
.LBE998:
.LBE1002:
.LBB1003:
.LBB1001:
	.loc 3 241 19
	vfmaddsub132pd	%ymm11, %ymm5, %ymm9
.LVL367:
.LBE1001:
.LBE1003:
	.loc 1 464 2 is_stmt 1
.LBB1004:
.LBB1005:
	.loc 2 690 3
	.loc 2 690 20 is_stmt 0
	vperm2f128	$2, %ymm1, %ymm9, %ymm10
.LVL368:
.LBE1005:
.LBE1004:
	.loc 1 465 2 is_stmt 1
.LBB1006:
.LBB1007:
	.loc 2 690 3
	.loc 2 690 20 is_stmt 0
	vperm2f128	$1, %ymm1, %ymm1, %ymm1
.LVL369:
.LBE1007:
.LBE1006:
	.loc 1 467 2 is_stmt 1
.LBB1008:
.LBB1009:
	.loc 2 196 3
	.loc 2 196 20 is_stmt 0
	vblendpd	$12, %ymm9, %ymm1, %ymm1
.LVL370:
.LBE1009:
.LBE1008:
	.loc 1 468 2 is_stmt 1
.LBB1010:
.LBB1011:
	.loc 2 143 3
.LBE1011:
.LBE1010:
	.loc 1 471 2
.LBB1013:
.LBB1014:
	.loc 2 893 3
	.loc 2 893 10 is_stmt 0
	vmovupd	112(%rdx), %ymm5
.LVL371:
.LBE1014:
.LBE1013:
	.loc 1 472 2 is_stmt 1
.LBB1015:
.LBB1016:
	.loc 2 690 3
	.loc 2 690 20 is_stmt 0
	vperm2f128	$1, %ymm5, %ymm5, %ymm2
.LVL372:
.LBE1016:
.LBE1015:
	.loc 1 473 2 is_stmt 1
.LBB1017:
.LBB1018:
	.loc 2 196 3
	.loc 2 196 20 is_stmt 0
	vblendpd	$12, %ymm5, %ymm2, %ymm2
.LVL373:
.LBE1018:
.LBE1017:
	.loc 1 474 2 is_stmt 1
.LBB1019:
.LBB1020:
	.loc 2 339 3
.LBE1020:
.LBE1019:
	.loc 1 475 2
.LBB1022:
.LBB1023:
	.loc 2 339 3
.LBE1023:
.LBE1022:
	.loc 1 477 2
.LBB1025:
.LBB1026:
	.loc 2 196 3
	.loc 2 196 20 is_stmt 0
	vblendpd	$12, %ymm14, %ymm8, %ymm8
.LVL374:
.LBE1026:
.LBE1025:
	.loc 1 478 2 is_stmt 1
.LBB1027:
.LBB1028:
	.loc 2 339 3
.LBE1028:
.LBE1027:
	.loc 1 480 2
.LBB1030:
.LBB1031:
	.loc 2 314 3
.LBE1031:
.LBE1030:
	.loc 1 481 2
.LBB1033:
.LBB1034:
	.loc 3 241 3
.LBE1034:
.LBE1033:
.LBB1036:
.LBB1021:
	.loc 2 339 20 is_stmt 0
	vpermilpd	$0, %ymm2, %ymm5
.LBE1021:
.LBE1036:
.LBB1037:
.LBB1024:
	vpermilpd	$15, %ymm2, %ymm2
.LBE1024:
.LBE1037:
.LBB1038:
.LBB1029:
	vpermilpd	$5, %ymm8, %ymm9
.LBE1029:
.LBE1038:
.LBB1039:
.LBB1032:
	.loc 2 314 10
	vmulpd	%ymm9, %ymm2, %ymm2
.LBE1032:
.LBE1039:
.LBB1040:
.LBB1035:
	.loc 3 241 19
	vfmaddsub231pd	%ymm8, %ymm5, %ymm2
.LVL375:
.LBE1035:
.LBE1040:
	.loc 1 483 2 is_stmt 1
.LBB1041:
.LBB1042:
	.loc 2 143 3
.LBE1042:
.LBE1041:
.LBB1044:
.LBB1012:
	.loc 2 143 10 is_stmt 0
	vaddpd	%ymm1, %ymm10, %ymm1
.LVL376:
.LBE1012:
.LBE1044:
.LBB1045:
.LBB1043:
	vaddpd	%ymm2, %ymm1, %ymm1
.LVL377:
.LBE1043:
.LBE1045:
	.loc 1 485 2 is_stmt 1
.LBB1046:
.LBB1047:
	.loc 2 1457 3
.LBE1047:
.LBE1046:
	.loc 1 486 2
.LBB1048:
.LBB1049:
	.loc 2 520 3
.LBE1049:
.LBE1048:
	.loc 1 491 2
.LBB1050:
.LBB1051:
	.loc 2 899 3
.LBE1051:
.LBE1050:
.LBB1053:
.LBB908:
	.loc 2 143 10 is_stmt 0
	vaddpd	-32(%rsp), %ymm7, %ymm7
.LVL378:
.LBE908:
.LBE1053:
.LBB1054:
.LBB941:
	vaddpd	%ymm4, %ymm7, %ymm7
.LVL379:
.LBE941:
.LBE1054:
.LBB1055:
.LBB1052:
	.loc 2 899 21
	vmovupd	%ymm7, (%rdi)
.LVL380:
.LBE1052:
.LBE1055:
	.loc 1 492 2 is_stmt 1
.LBB1056:
.LBB1057:
	.loc 4 166 3
	.loc 4 166 19 is_stmt 0
	vmovapd	%xmm1, 192(%rdi)
.LVL381:
.LBE1057:
.LBE1056:
	.loc 1 494 2 is_stmt 1
.LBB1058:
.LBB1059:
	.loc 2 899 3
.LBE1059:
.LBE1058:
.LBB1061:
.LBB966:
	.loc 2 143 10 is_stmt 0
	vaddpd	%ymm0, %ymm6, %ymm6
.LVL382:
.LBE966:
.LBE1061:
.LBB1062:
.LBB987:
	vaddpd	%ymm3, %ymm6, %ymm6
.LVL383:
.LBE987:
.LBE1062:
.LBB1063:
.LBB1060:
	.loc 2 899 21
	vmovupd	%ymm6, (%rsi)
.LVL384:
.LBE1060:
.LBE1063:
	.loc 1 495 2 is_stmt 1
.LBB1064:
.LBB1065:
	.loc 4 166 3
	.loc 4 166 19 is_stmt 0
	vextractf128	$0x1, %ymm1, 192(%rsi)
.LVL385:
.LBE1065:
.LBE1064:
	.loc 1 496 1
	leave
	.cfi_def_cfa 7, 8
	ret
	.cfi_endproc
.LFE6409:
	.size	double_MVM_non_macro, .-double_MVM_non_macro
	.section	.rodata.cst8,"aM",@progbits,8
	.align 8
.LC1:
	.long	0
	.long	1093567616
	.align 8
.LC5:
	.long	-1598689907
	.long	1051772663
	.section	.rodata.cst16,"aM",@progbits,16
	.align 16
.LC8:
	.long	-1
	.long	2147483647
	.long	0
	.long	0
	.section	.rodata.cst8
	.align 8
.LC9:
	.long	-1629006314
	.long	1020396463
	.text
.Letext0:
	.file 5 "/home/mrahman/spack/opt/spack/linux-centos7-haswell/gcc-4.8.5/gcc-12.1.0-rfwstyfbaftyze73vaufakvxclc3eqpm/lib/gcc/x86_64-pc-linux-gnu/12.1.0/include/stddef.h"
	.file 6 "/usr/include/bits/types.h"
	.file 7 "/usr/include/time.h"
	.file 8 "/usr/include/bits/time.h"
	.file 9 "/usr/include/sys/time.h"
	.file 10 "/usr/include/bits/sched.h"
	.file 11 "suN_types.h"
	.file 12 "memory.h"
	.file 13 "error.h"
	.file 14 "logger.h"
	.file 15 "header.h"
	.file 16 "/home/mrahman/spack/opt/spack/linux-centos7-haswell/gcc-4.8.5/gcc-12.1.0-rfwstyfbaftyze73vaufakvxclc3eqpm/lib/gcc/x86_64-pc-linux-gnu/12.1.0/include/omp.h"
	.file 17 "/usr/include/sched.h"
	.file 18 "<built-in>"
	.section	.note.GNU-stack,"",@progbits
